---
triple:          'arm64-apple-darwin'
binary-path:     chat
relocations:
  - { offset: 0x3F, size: 0x8, addend: 0x0, symName: __ZL8opt_6_7B, symObjAddr: 0x155858, symBinAddr: 0x1000D4A38, symSize: 0x0 }
  - { offset: 0x121, size: 0x8, addend: 0x0, symName: __ZL8opt_1_3B, symObjAddr: 0x15587C, symBinAddr: 0x1000D4A5C, symSize: 0x0 }
  - { offset: 0x13A, size: 0x8, addend: 0x0, symName: __ZL8opt_125m, symObjAddr: 0x1558A0, symBinAddr: 0x1000D4A80, symSize: 0x0 }
  - { offset: 0x153, size: 0x8, addend: 0x0, symName: __ZL8llama_7B, symObjAddr: 0x1558C4, symBinAddr: 0x1000D4AA4, symSize: 0x0 }
  - { offset: 0x16C, size: 0x8, addend: 0x0, symName: _OPT_rng, symObjAddr: 0x12ED8, symBinAddr: 0x1000D4000, symSize: 0x0 }
  - { offset: 0x822B, size: 0x8, addend: 0x0, symName: __ZNSt3__1L19piecewise_constructE, symObjAddr: 0x13BA4, symBinAddr: 0x1000C9960, symSize: 0x0 }
  - { offset: 0x10539, size: 0x8, addend: 0x0, symName: __ZNSt3__124__put_character_sequenceB8ne180100IcNS_11char_traitsIcEEEERNS_13basic_ostreamIT_T0_EES7_PKS4_m, symObjAddr: 0xA6FC, symBinAddr: 0x10000BC4C, symSize: 0x1E8 }
  - { offset: 0x11666, size: 0x8, addend: 0x0, symName: __ZNSt3__17advanceB8ne180100INS_21__tree_const_iteratorINS_12__value_typeINS_12basic_stringIcNS_11char_traitsIcEENS_9allocatorIcEEEEiEEPNS_11__tree_nodeIS9_PvEElEEllvEEvRT_T0_, symObjAddr: 0xDCA8, symBinAddr: 0x10000F1F8, symSize: 0x38 }
  - { offset: 0x116F7, size: 0x8, addend: 0x0, symName: __ZNSt3__17advanceB8ne180100INS_21__tree_const_iteratorINS_12__value_typeINS_12basic_stringIcNS_11char_traitsIcEENS_9allocatorIcEEEES8_EEPNS_11__tree_nodeIS9_PvEElEEllvEEvRT_T0_, symObjAddr: 0xF308, symBinAddr: 0x100010858, symSize: 0x38 }
  - { offset: 0x12FBE, size: 0x8, addend: 0x0, symName: __ZNSt3__1eqB8ne180100INS_9allocatorIcEEEEbRKNS_12basic_stringIcNS_11char_traitsIcEET_EES9_, symObjAddr: 0x49C, symBinAddr: 0x1000019EC, symSize: 0x134 }
  - { offset: 0x13031, size: 0x8, addend: 0x0, symName: __ZNSt3__1lsB8ne180100INS_11char_traitsIcEEEERNS_13basic_ostreamIcT_EES6_PKc, symObjAddr: 0x1964, symBinAddr: 0x100002EB4, symSize: 0x48 }
  - { offset: 0x13077, size: 0x8, addend: 0x0, symName: __ZNSt3__14endlB8ne180100IcNS_11char_traitsIcEEEERNS_13basic_ostreamIT_T0_EES7_, symObjAddr: 0x19D8, symBinAddr: 0x100002F28, symSize: 0x58 }
  - { offset: 0x130B7, size: 0x8, addend: 0x0, symName: __ZNSt3__1neB8ne180100ERKNS_14__map_iteratorINS_15__tree_iteratorINS_12__value_typeINS_12basic_stringIcNS_11char_traitsIcEENS_9allocatorIcEEEEiEEPNS_11__tree_nodeIS9_PvEElEEEESH_, symObjAddr: 0x1AA0, symBinAddr: 0x100002FF0, symSize: 0x2C }
  - { offset: 0x130F4, size: 0x8, addend: 0x0, symName: __ZNSt3__1lsB8ne180100IcNS_11char_traitsIcEENS_9allocatorIcEEEERNS_13basic_ostreamIT_T0_EES9_RKNS_12basic_stringIS6_S7_T1_EE, symObjAddr: 0x1AF4, symBinAddr: 0x100003044, symSize: 0x4C }
  - { offset: 0x1314C, size: 0x8, addend: 0x0, symName: __ZNSt3__15flushB8ne180100IcNS_11char_traitsIcEEEERNS_13basic_ostreamIT_T0_EES7_, symObjAddr: 0x1C18, symBinAddr: 0x100003168, symSize: 0x28 }
  - { offset: 0x13C48, size: 0x8, addend: 0x0, symName: __ZNSt3__17getlineB8ne180100IcNS_11char_traitsIcEENS_9allocatorIcEEEERNS_13basic_istreamIT_T0_EES9_RNS_12basic_stringIS6_S7_T1_EE, symObjAddr: 0x1E08, symBinAddr: 0x100003358, symSize: 0x5C }
  - { offset: 0x13CA0, size: 0x8, addend: 0x0, symName: __ZNSt3__1plB8ne180100IcNS_11char_traitsIcEENS_9allocatorIcEEEENS_12basic_stringIT_T0_T1_EEOS9_PKS6_, symObjAddr: 0x1E64, symBinAddr: 0x1000033B4, symSize: 0x40 }
  - { offset: 0x1F9DF, size: 0x8, addend: 0x0, symName: __ZNSt3__119__libcpp_deallocateB8ne180100EPvmm, symObjAddr: 0x3544, symBinAddr: 0x100004A94, symSize: 0x30 }
  - { offset: 0x1FA27, size: 0x8, addend: 0x0, symName: __ZNSt3__127__do_deallocate_handle_sizeB8ne180100IJEEEvPvmDpT_, symObjAddr: 0x3574, symBinAddr: 0x100004AC4, symSize: 0x28 }
  - { offset: 0x1FA65, size: 0x8, addend: 0x0, symName: __ZNSt3__124__libcpp_operator_deleteB8ne180100IJPvEEEvDpT_, symObjAddr: 0x359C, symBinAddr: 0x100004AEC, symSize: 0x24 }
  - { offset: 0x1FA9A, size: 0x8, addend: 0x0, symName: __ZNSt3__13maxB8ne180100ImEERKT_S3_S3_, symObjAddr: 0x3A14, symBinAddr: 0x100004F64, symSize: 0x2C }
  - { offset: 0x1FADD, size: 0x8, addend: 0x0, symName: __ZNSt3__116__is_hash_power2B8ne180100Em, symObjAddr: 0x3A40, symBinAddr: 0x100004F90, symSize: 0x4C }
  - { offset: 0x1FB09, size: 0x8, addend: 0x0, symName: __ZNSt3__116__next_hash_pow2B8ne180100Em, symObjAddr: 0x3A8C, symBinAddr: 0x100004FDC, symSize: 0x68 }
  - { offset: 0x1FB3A, size: 0x8, addend: 0x0, symName: __ZNSt3__16__math4ceilB8ne180100Ef, symObjAddr: 0x3AF4, symBinAddr: 0x100005044, symSize: 0x18 }
  - { offset: 0x1FBAB, size: 0x8, addend: 0x0, symName: __ZNSt3__116__constrain_hashB8ne180100Emm, symObjAddr: 0x3CF8, symBinAddr: 0x100005248, symSize: 0x90 }
  - { offset: 0x1FBE5, size: 0x8, addend: 0x0, symName: __ZNSt3__117__libcpp_allocateB8ne180100Emm, symObjAddr: 0x3E4C, symBinAddr: 0x10000539C, symSize: 0x28 }
  - { offset: 0x1FC22, size: 0x8, addend: 0x0, symName: __ZNSt3__121__libcpp_operator_newB8ne180100IJmEEEPvDpT_, symObjAddr: 0x3E88, symBinAddr: 0x1000053D8, symSize: 0x24 }
  - { offset: 0x1FC8E, size: 0x8, addend: 0x0, symName: __ZNSt3__13maxB8ne180100ImNS_6__lessIvvEEEERKT_S5_S5_T0_, symObjAddr: 0x3F0C, symBinAddr: 0x10000545C, symSize: 0x54 }
  - { offset: 0x1FD2D, size: 0x8, addend: 0x0, symName: __ZNSt3__112__libcpp_clzB8ne180100Em, symObjAddr: 0x3F90, symBinAddr: 0x1000054E0, symSize: 0x1C }
  - { offset: 0x1FD59, size: 0x8, addend: 0x0, symName: __ZNSt3__1neB8ne180100ERKNS_25__hash_map_const_iteratorINS_21__hash_const_iteratorIPNS_11__hash_nodeINS_17__hash_value_typeIifEEPvEEEEEESB_, symObjAddr: 0x4008, symBinAddr: 0x100005558, symSize: 0x2C }
  - { offset: 0x1FD96, size: 0x8, addend: 0x0, symName: __ZNSt3__1neB8ne180100ERKNS_21__hash_const_iteratorIPNS_11__hash_nodeINS_17__hash_value_typeIifEEPvEEEES9_, symObjAddr: 0x40D8, symBinAddr: 0x100005628, symSize: 0x30 }
  - { offset: 0x1FDD3, size: 0x8, addend: 0x0, symName: __ZNSt3__1eqB8ne180100ERKNS_21__hash_const_iteratorIPNS_11__hash_nodeINS_17__hash_value_typeIifEEPvEEEES9_, symObjAddr: 0x4108, symBinAddr: 0x100005658, symSize: 0x2C }
  - { offset: 0x1FE53, size: 0x8, addend: 0x0, symName: __ZNSt3__114__construct_atB8ne180100INS_11__hash_nodeINS_17__hash_value_typeIifEEPvEEJDnRmEPS5_EEPT_S9_DpOT0_, symObjAddr: 0x4AB4, symBinAddr: 0x100006004, symSize: 0x48 }
  - { offset: 0x1FED6, size: 0x8, addend: 0x0, symName: __ZNSt3__112__destroy_atB8ne180100INS_11__hash_nodeINS_17__hash_value_typeIifEEPvEETnNS_9enable_ifIXntsr8is_arrayIT_EE5valueEiE4typeELi0EEEvPS7_, symObjAddr: 0x5098, symBinAddr: 0x1000065E8, symSize: 0x24 }
  - { offset: 0x1FF0D, size: 0x8, addend: 0x0, symName: __ZNSt3__112__destroy_atB8ne180100INS_4pairIKifEETnNS_9enable_ifIXntsr8is_arrayIT_EE5valueEiE4typeELi0EEEvPS5_, symObjAddr: 0x50F0, symBinAddr: 0x100006640, symSize: 0x10 }
  - { offset: 0x1FF77, size: 0x8, addend: 0x0, symName: __ZNSt3__112__to_addressB8ne180100I21Fp32llamaDecoderLayerEEPT_S3_, symObjAddr: 0x5944, symBinAddr: 0x100006E94, symSize: 0x14 }
  - { offset: 0x1FFAC, size: 0x8, addend: 0x0, symName: __ZNSt3__112__to_addressB8ne180100I21Int4llamaDecoderLayerEEPT_S3_, symObjAddr: 0x60B8, symBinAddr: 0x100007608, symSize: 0x14 }
  - { offset: 0x1FFE1, size: 0x8, addend: 0x0, symName: __ZNSt3__122__make_exception_guardB8ne180100INS_6vectorI19Int8OPTDecoderLayerNS_9allocatorIS2_EEE16__destroy_vectorEEENS_28__exception_guard_exceptionsIT_EES8_, symObjAddr: 0x6988, symBinAddr: 0x100007ED8, symSize: 0x40 }
  - { offset: 0x20016, size: 0x8, addend: 0x0, symName: __ZNSt3__119__allocate_at_leastB8ne180100INS_9allocatorI19Int8OPTDecoderLayerEEEENS_19__allocation_resultINS_16allocator_traitsIT_E7pointerEEERS6_m, symObjAddr: 0x6C74, symBinAddr: 0x1000081C4, symSize: 0x40 }
  - { offset: 0x20059, size: 0x8, addend: 0x0, symName: __ZNSt3__13minB8ne180100ImEERKT_S3_S3_, symObjAddr: 0x6D18, symBinAddr: 0x100008268, symSize: 0x2C }
  - { offset: 0x2029D, size: 0x8, addend: 0x0, symName: __ZNSt3__13minB8ne180100ImNS_6__lessIvvEEEERKT_S5_S5_T0_, symObjAddr: 0x6D7C, symBinAddr: 0x1000082CC, symSize: 0x54 }
  - { offset: 0x202F7, size: 0x8, addend: 0x0, symName: __ZNSt3__120__throw_length_errorB8ne180100EPKc, symObjAddr: 0x6DF8, symBinAddr: 0x100008348, symSize: 0x64 }
  - { offset: 0x2031F, size: 0x8, addend: 0x0, symName: __ZNSt3__130__uninitialized_allocator_copyB8ne180100INS_9allocatorI19Int8OPTDecoderLayerEEPS2_S4_S4_EET2_RT_T0_T1_S5_, symObjAddr: 0x6FD8, symBinAddr: 0x100008528, symSize: 0x80 }
  - { offset: 0x203BC, size: 0x8, addend: 0x0, symName: __ZNSt3__114__unwrap_rangeB8ne180100IP19Int8OPTDecoderLayerS2_EENS_4pairIT0_S4_EET_S6_, symObjAddr: 0x70D0, symBinAddr: 0x100008620, symSize: 0x60 }
  - { offset: 0x20408, size: 0x8, addend: 0x0, symName: __ZNSt3__135__uninitialized_allocator_copy_implB8ne180100INS_9allocatorI19Int8OPTDecoderLayerEEPS2_S4_S4_EET2_RT_T0_T1_S5_, symObjAddr: 0x7130, symBinAddr: 0x100008680, symSize: 0xF0 }
  - { offset: 0x204A6, size: 0x8, addend: 0x0, symName: __ZNSt3__113__unwrap_iterB8ne180100IP19Int8OPTDecoderLayerNS_18__unwrap_iter_implIS2_Lb1EEETnNS_9enable_ifIXsr21is_copy_constructibleIT_EE5valueEiE4typeELi0EEEDTclsrT0_8__unwrapclsr3stdE7declvalIS6_EEEES6_, symObjAddr: 0x7220, symBinAddr: 0x100008770, symSize: 0x24 }
  - { offset: 0x204EA, size: 0x8, addend: 0x0, symName: __ZNSt3__113__rewrap_iterB8ne180100IP19Int8OPTDecoderLayerS2_NS_18__unwrap_iter_implIS2_Lb1EEEEET_S5_T0_, symObjAddr: 0x7244, symBinAddr: 0x100008794, symSize: 0x3C }
  - { offset: 0x2053F, size: 0x8, addend: 0x0, symName: __ZNSt3__19make_pairB8ne180100IP19Int8OPTDecoderLayerS2_EENS_4pairINS_18__unwrap_ref_decayIT_E4typeENS4_IT0_E4typeEEEOS5_OS8_, symObjAddr: 0x7280, symBinAddr: 0x1000087D0, symSize: 0x38 }
  - { offset: 0x20662, size: 0x8, addend: 0x0, symName: __ZNSt3__122__make_exception_guardB8ne180100INS_29_AllocatorDestroyRangeReverseINS_9allocatorI19Int8OPTDecoderLayerEEPS3_EEEENS_28__exception_guard_exceptionsIT_EES8_, symObjAddr: 0x7328, symBinAddr: 0x100008878, symSize: 0x4C }
  - { offset: 0x20698, size: 0x8, addend: 0x0, symName: __ZNSt3__112__to_addressB8ne180100I19Int8OPTDecoderLayerEEPT_S3_, symObjAddr: 0x73EC, symBinAddr: 0x10000893C, symSize: 0x14 }
  - { offset: 0x206CD, size: 0x8, addend: 0x0, symName: __ZNSt3__119__allocator_destroyB8ne180100INS_9allocatorI19Int8OPTDecoderLayerEENS_16reverse_iteratorIPS2_EES6_EEvRT_T0_T1_, symObjAddr: 0x7F10, symBinAddr: 0x100009460, symSize: 0x70 }
  - { offset: 0x20730, size: 0x8, addend: 0x0, symName: __ZNSt3__1neB8ne180100IP19Int8OPTDecoderLayerS2_EEbRKNS_16reverse_iteratorIT_EERKNS3_IT0_EE, symObjAddr: 0x7FB4, symBinAddr: 0x100009504, symSize: 0x44 }
  - { offset: 0x2077C, size: 0x8, addend: 0x0, symName: __ZNSt3__112__to_addressB8ne180100INS_16reverse_iteratorIP19Int8OPTDecoderLayerEEvEEu7__decayIDTclsr19__to_address_helperIT_EE6__callclsr3stdE7declvalIRKS5_EEEEES7_, symObjAddr: 0x8024, symBinAddr: 0x100009574, symSize: 0x24 }
  - { offset: 0x208BB, size: 0x8, addend: 0x0, symName: __ZNSt3__112__destroy_atB8ne180100INS_11__hash_nodeINS_17__hash_value_typeINS_12basic_stringIcNS_11char_traitsIcEENS_9allocatorIcEEEES8_EEPvEETnNS_9enable_ifIXntsr8is_arrayIT_EE5valueEiE4typeELi0EEEvPSD_, symObjAddr: 0x8A80, symBinAddr: 0x100009FD0, symSize: 0x24 }
  - { offset: 0x20925, size: 0x8, addend: 0x0, symName: __ZNSt3__112__destroy_atB8ne180100INS_4pairIKNS_12basic_stringIcNS_11char_traitsIcEENS_9allocatorIcEEEES7_EETnNS_9enable_ifIXntsr8is_arrayIT_EE5valueEiE4typeELi0EEEvPSB_, symObjAddr: 0x8B24, symBinAddr: 0x10000A074, symSize: 0x24 }
  - { offset: 0x209E9, size: 0x8, addend: 0x0, symName: __ZNSt3__112__destroy_atB8ne180100INS_11__hash_nodeINS_17__hash_value_typeINS_4pairINS_12basic_stringIcNS_11char_traitsIcEENS_9allocatorIcEEEES9_EEiEEPvEETnNS_9enable_ifIXntsr8is_arrayIT_EE5valueEiE4typeELi0EEEvPSF_, symObjAddr: 0x90C0, symBinAddr: 0x10000A610, symSize: 0x24 }
  - { offset: 0x20A53, size: 0x8, addend: 0x0, symName: __ZNSt3__112__destroy_atB8ne180100INS_4pairIKNS1_INS_12basic_stringIcNS_11char_traitsIcEENS_9allocatorIcEEEES7_EEiEETnNS_9enable_ifIXntsr8is_arrayIT_EE5valueEiE4typeELi0EEEvPSC_, symObjAddr: 0x9164, symBinAddr: 0x10000A6B4, symSize: 0x24 }
  - { offset: 0x20B17, size: 0x8, addend: 0x0, symName: __ZNSt3__112__destroy_atB8ne180100INS_11__hash_nodeINS_17__hash_value_typeINS_12basic_stringIcNS_11char_traitsIcEENS_9allocatorIcEEEEiEEPvEETnNS_9enable_ifIXntsr8is_arrayIT_EE5valueEiE4typeELi0EEEvPSD_, symObjAddr: 0x97C0, symBinAddr: 0x10000AD10, symSize: 0x24 }
  - { offset: 0x20B81, size: 0x8, addend: 0x0, symName: __ZNSt3__112__destroy_atB8ne180100INS_4pairIKNS_12basic_stringIcNS_11char_traitsIcEENS_9allocatorIcEEEEiEETnNS_9enable_ifIXntsr8is_arrayIT_EE5valueEiE4typeELi0EEEvPSB_, symObjAddr: 0x9864, symBinAddr: 0x10000ADB4, symSize: 0x24 }
  - { offset: 0x20C45, size: 0x8, addend: 0x0, symName: __ZNSt3__112__destroy_atB8ne180100INS_11__hash_nodeINS_17__hash_value_typeIiNS_12basic_stringIcNS_11char_traitsIcEENS_9allocatorIcEEEEEEPvEETnNS_9enable_ifIXntsr8is_arrayIT_EE5valueEiE4typeELi0EEEvPSD_, symObjAddr: 0x9E04, symBinAddr: 0x10000B354, symSize: 0x24 }
  - { offset: 0x20CAF, size: 0x8, addend: 0x0, symName: __ZNSt3__112__destroy_atB8ne180100INS_4pairIKiNS_12basic_stringIcNS_11char_traitsIcEENS_9allocatorIcEEEEEETnNS_9enable_ifIXntsr8is_arrayIT_EE5valueEiE4typeELi0EEEvPSB_, symObjAddr: 0x9EA8, symBinAddr: 0x10000B3F8, symSize: 0x24 }
  - { offset: 0x20DA6, size: 0x8, addend: 0x0, symName: __ZNSt3__118__constexpr_strlenB8ne180100EPKc, symObjAddr: 0xA6D8, symBinAddr: 0x10000BC28, symSize: 0x24 }
  - { offset: 0x20DD2, size: 0x8, addend: 0x0, symName: __ZNSt3__116__pad_and_outputB8ne180100IcNS_11char_traitsIcEEEENS_19ostreambuf_iteratorIT_T0_EES6_PKS4_S8_S8_RNS_8ios_baseES4_, symObjAddr: 0xA928, symBinAddr: 0x10000BE78, symSize: 0x214 }
  - { offset: 0x20EA1, size: 0x8, addend: 0x0, symName: __ZNSt3__19use_facetB8ne180100INS_5ctypeIcEEEERKT_RKNS_6localeE, symObjAddr: 0xAE80, symBinAddr: 0x10000C3D0, symSize: 0x2C }
  - { offset: 0x2136E, size: 0x8, addend: 0x0, symName: __ZNSt3__112__to_addressB8ne180100IKcEEPT_S3_, symObjAddr: 0xAF18, symBinAddr: 0x10000C468, symSize: 0x14 }
  - { offset: 0x2140D, size: 0x8, addend: 0x0, symName: __ZNSt3__116forward_as_tupleB8ne180100IJRKNS_12basic_stringIcNS_11char_traitsIcEENS_9allocatorIcEEEEEEENS_5tupleIJDpOT_EEESC_, symObjAddr: 0xB428, symBinAddr: 0x10000C978, symSize: 0x2C }
  - { offset: 0x21446, size: 0x8, addend: 0x0, symName: __ZNSt3__116forward_as_tupleB8ne180100IJEEENS_5tupleIJDpOT_EEES4_, symObjAddr: 0xB454, symBinAddr: 0x10000C9A4, symSize: 0x4 }
  - { offset: 0x2146A, size: 0x8, addend: 0x0, symName: __ZNSt3__1ltB8ne180100IcNS_11char_traitsIcEENS_9allocatorIcEEEEbRKNS_12basic_stringIT_T0_T1_EESB_, symObjAddr: 0xBA60, symBinAddr: 0x10000CFB0, symSize: 0x34 }
  - { offset: 0x214EB, size: 0x8, addend: 0x0, symName: __ZNSt3__13getB8ne180100ILm0EJRKNS_12basic_stringIcNS_11char_traitsIcEENS_9allocatorIcEEEEEEERNS_13tuple_elementIXT_ENS_5tupleIJDpT0_EEEE4typeERSD_, symObjAddr: 0xC15C, symBinAddr: 0x10000D6AC, symSize: 0x24 }
  - { offset: 0x2152E, size: 0x8, addend: 0x0, symName: __ZNSt3__127__tree_balance_after_insertB8ne180100IPNS_16__tree_node_baseIPvEEEEvT_S5_, symObjAddr: 0xC220, symBinAddr: 0x10000D770, symSize: 0x30C }
  - { offset: 0x215AA, size: 0x8, addend: 0x0, symName: __ZNSt3__120__tree_is_left_childB8ne180100IPNS_16__tree_node_baseIPvEEEEbT_, symObjAddr: 0xC56C, symBinAddr: 0x10000DABC, symSize: 0x28 }
  - { offset: 0x215DF, size: 0x8, addend: 0x0, symName: __ZNSt3__118__tree_left_rotateB8ne180100IPNS_16__tree_node_baseIPvEEEEvT_, symObjAddr: 0xC594, symBinAddr: 0x10000DAE4, symSize: 0xD0 }
  - { offset: 0x2161E, size: 0x8, addend: 0x0, symName: __ZNSt3__119__tree_right_rotateB8ne180100IPNS_16__tree_node_baseIPvEEEEvT_, symObjAddr: 0xC664, symBinAddr: 0x10000DBB4, symSize: 0xC4 }
  - { offset: 0x216B7, size: 0x8, addend: 0x0, symName: __ZNSt3__1eqB8ne180100ERKNS_21__tree_const_iteratorINS_12__value_typeINS_12basic_stringIcNS_11char_traitsIcEENS_9allocatorIcEEEEiEEPNS_11__tree_nodeIS8_PvEElEESF_, symObjAddr: 0xDA00, symBinAddr: 0x10000EF50, symSize: 0x2C }
  - { offset: 0x216F4, size: 0x8, addend: 0x0, symName: __ZNSt3__14nextB8ne180100INS_21__tree_const_iteratorINS_12__value_typeINS_12basic_stringIcNS_11char_traitsIcEENS_9allocatorIcEEEEiEEPNS_11__tree_nodeIS9_PvEElEETnNS_9enable_ifIXsr29__has_input_iterator_categoryIT_EE5valueEiE4typeELi0EEESG_SG_NS_15iterator_traitsISG_E15difference_typeE, symObjAddr: 0xDB28, symBinAddr: 0x10000F078, symSize: 0x3C }
  - { offset: 0x2173D, size: 0x8, addend: 0x0, symName: __ZNSt3__116__tree_prev_iterB8ne180100IPNS_16__tree_node_baseIPvEEPNS_15__tree_end_nodeIS4_EEEET_T0_, symObjAddr: 0xDBF0, symBinAddr: 0x10000F140, symSize: 0x80 }
  - { offset: 0x21789, size: 0x8, addend: 0x0, symName: __ZNSt3__110__tree_maxB8ne180100IPNS_16__tree_node_baseIPvEEEET_S5_, symObjAddr: 0xDC70, symBinAddr: 0x10000F1C0, symSize: 0x38 }
  - { offset: 0x217BE, size: 0x8, addend: 0x0, symName: __ZNSt3__121__convert_to_integralB8ne180100El, symObjAddr: 0xDCE0, symBinAddr: 0x10000F230, symSize: 0x14 }
  - { offset: 0x217EA, size: 0x8, addend: 0x0, symName: __ZNSt3__19__advanceB8ne180100INS_21__tree_const_iteratorINS_12__value_typeINS_12basic_stringIcNS_11char_traitsIcEENS_9allocatorIcEEEEiEEPNS_11__tree_nodeIS9_PvEElEEEEvRT_NS_15iterator_traitsISF_E15difference_typeENS_26bidirectional_iterator_tagE, symObjAddr: 0xDCF4, symBinAddr: 0x10000F244, symSize: 0x90 }
  - { offset: 0x21833, size: 0x8, addend: 0x0, symName: __ZNSt3__116__tree_next_iterB8ne180100IPNS_15__tree_end_nodeIPNS_16__tree_node_baseIPvEEEES5_EET_T0_, symObjAddr: 0xDDBC, symBinAddr: 0x10000F30C, symSize: 0x78 }
  - { offset: 0x21871, size: 0x8, addend: 0x0, symName: __ZNSt3__110__tree_minB8ne180100IPNS_16__tree_node_baseIPvEEEET_S5_, symObjAddr: 0xDE34, symBinAddr: 0x10000F384, symSize: 0x38 }
  - { offset: 0x218A6, size: 0x8, addend: 0x0, symName: __ZNSt3__1eqB8ne180100ERKNS_21__tree_const_iteratorINS_12__value_typeINS_12basic_stringIcNS_11char_traitsIcEENS_9allocatorIcEEEES7_EEPNS_11__tree_nodeIS8_PvEElEESF_, symObjAddr: 0xEE5C, symBinAddr: 0x1000103AC, symSize: 0x2C }
  - { offset: 0x218E3, size: 0x8, addend: 0x0, symName: __ZNSt3__14nextB8ne180100INS_21__tree_const_iteratorINS_12__value_typeINS_12basic_stringIcNS_11char_traitsIcEENS_9allocatorIcEEEES8_EEPNS_11__tree_nodeIS9_PvEElEETnNS_9enable_ifIXsr29__has_input_iterator_categoryIT_EE5valueEiE4typeELi0EEESG_SG_NS_15iterator_traitsISG_E15difference_typeE, symObjAddr: 0xF1A8, symBinAddr: 0x1000106F8, symSize: 0x3C }
  - { offset: 0x2192C, size: 0x8, addend: 0x0, symName: __ZNSt3__19__advanceB8ne180100INS_21__tree_const_iteratorINS_12__value_typeINS_12basic_stringIcNS_11char_traitsIcEENS_9allocatorIcEEEES8_EEPNS_11__tree_nodeIS9_PvEElEEEEvRT_NS_15iterator_traitsISF_E15difference_typeENS_26bidirectional_iterator_tagE, symObjAddr: 0xF340, symBinAddr: 0x100010890, symSize: 0x90 }
  - { offset: 0x21993, size: 0x8, addend: 0x0, symName: __ZNSt3__1neB8ne180100ERKNS_15__tree_iteratorINS_12__value_typeINS_12basic_stringIcNS_11char_traitsIcEENS_9allocatorIcEEEEiEEPNS_11__tree_nodeIS8_PvEElEESF_, symObjAddr: 0xFEC4, symBinAddr: 0x100011414, symSize: 0x30 }
  - { offset: 0x219D0, size: 0x8, addend: 0x0, symName: __ZNSt3__1eqB8ne180100ERKNS_15__tree_iteratorINS_12__value_typeINS_12basic_stringIcNS_11char_traitsIcEENS_9allocatorIcEEEEiEEPNS_11__tree_nodeIS8_PvEElEESF_, symObjAddr: 0xFEF4, symBinAddr: 0x100011444, symSize: 0x2C }
  - { offset: 0x21A40, size: 0x8, addend: 0x0, symName: __ZNSt3__17getlineB8ne180100IcNS_11char_traitsIcEENS_9allocatorIcEEEERNS_13basic_istreamIT_T0_EES9_RNS_12basic_stringIS6_S7_T1_EES6_, symObjAddr: 0x10318, symBinAddr: 0x100011868, symSize: 0x224 }
  - { offset: 0x220CF, size: 0x8, addend: 0x0, symName: __ZNSt3__112__to_addressB8ne180100IiEEPT_S2_, symObjAddr: 0x10F6C, symBinAddr: 0x1000124BC, symSize: 0x14 }
  - { offset: 0x22104, size: 0x8, addend: 0x0, symName: __ZNSt3__122__make_exception_guardB8ne180100INS_6vectorIiNS_9allocatorIiEEE16__destroy_vectorEEENS_28__exception_guard_exceptionsIT_EES7_, symObjAddr: 0x11300, symBinAddr: 0x100012850, symSize: 0x40 }
  - { offset: 0x22139, size: 0x8, addend: 0x0, symName: __ZNSt3__119__allocate_at_leastB8ne180100INS_9allocatorIiEEEENS_19__allocation_resultINS_16allocator_traitsIT_E7pointerEEERS5_m, symObjAddr: 0x11590, symBinAddr: 0x100012AE0, symSize: 0x40 }
  - { offset: 0x2217C, size: 0x8, addend: 0x0, symName: __ZNSt3__130__uninitialized_allocator_copyB8ne180100INS_9allocatorIiEEPiS3_S3_EET2_RT_T0_T1_S4_, symObjAddr: 0x1170C, symBinAddr: 0x100012C5C, symSize: 0x80 }
  - { offset: 0x22219, size: 0x8, addend: 0x0, symName: __ZNSt3__114__unwrap_rangeB8ne180100IPiS1_EENS_4pairIT0_S3_EET_S5_, symObjAddr: 0x117FC, symBinAddr: 0x100012D4C, symSize: 0x60 }
  - { offset: 0x22265, size: 0x8, addend: 0x0, symName: __ZNSt3__135__uninitialized_allocator_copy_implB8ne180100INS_9allocatorIiEEiiiTnPNS_9enable_ifIXaaaaaasr31is_trivially_copy_constructibleIT1_EE5valuesr28is_trivially_copy_assignableIS4_EE5valuesr7is_sameIu14__remove_constIT0_Eu14__remove_constIT2_EEE5valuesr38__allocator_has_trivial_copy_constructIT_S4_EE5valueEvE4typeELPv0EEEPS7_RS9_PS5_SG_SE_, symObjAddr: 0x1185C, symBinAddr: 0x100012DAC, symSize: 0x38 }
  - { offset: 0x222E6, size: 0x8, addend: 0x0, symName: __ZNSt3__113__unwrap_iterB8ne180100IPiNS_18__unwrap_iter_implIS1_Lb1EEETnNS_9enable_ifIXsr21is_copy_constructibleIT_EE5valueEiE4typeELi0EEEDTclsrT0_8__unwrapclsr3stdE7declvalIS5_EEEES5_, symObjAddr: 0x11894, symBinAddr: 0x100012DE4, symSize: 0x24 }
  - { offset: 0x2232A, size: 0x8, addend: 0x0, symName: __ZNSt3__113__rewrap_iterB8ne180100IPiS1_NS_18__unwrap_iter_implIS1_Lb1EEEEET_S4_T0_, symObjAddr: 0x118B8, symBinAddr: 0x100012E08, symSize: 0x3C }
  - { offset: 0x2237F, size: 0x8, addend: 0x0, symName: __ZNSt3__19make_pairB8ne180100IPiS1_EENS_4pairINS_18__unwrap_ref_decayIT_E4typeENS3_IT0_E4typeEEEOS4_OS7_, symObjAddr: 0x118F4, symBinAddr: 0x100012E44, symSize: 0x38 }
  - { offset: 0x224D1, size: 0x8, addend: 0x0, symName: __ZNSt3__14copyB8ne180100IPiS1_EET0_T_S3_S2_, symObjAddr: 0x1199C, symBinAddr: 0x100012EEC, symSize: 0x40 }
  - { offset: 0x2252B, size: 0x8, addend: 0x0, symName: __ZNSt3__16__copyB8ne180100INS_17_ClassicAlgPolicyEPiS2_S2_EENS_4pairIT0_T2_EES4_T1_S5_, symObjAddr: 0x119DC, symBinAddr: 0x100012F2C, symSize: 0x44 }
  - { offset: 0x22597, size: 0x8, addend: 0x0, symName: __ZNSt3__123__dispatch_copy_or_moveB8ne180100INS_17_ClassicAlgPolicyENS_11__copy_loopIS1_EENS_14__copy_trivialEPiS5_S5_EENS_4pairIT2_T4_EES7_T3_S8_, symObjAddr: 0x11A20, symBinAddr: 0x100012F70, symSize: 0x44 }
  - { offset: 0x22615, size: 0x8, addend: 0x0, symName: __ZNSt3__121__unwrap_and_dispatchB8ne180100INS_10__overloadINS_11__copy_loopINS_17_ClassicAlgPolicyEEENS_14__copy_trivialEEEPiS7_S7_TnNS_9enable_ifIXsr12__can_rewrapIT0_T1_T2_EE5valueEiE4typeELi0EEENS_4pairIS9_SB_EES9_SA_SB_, symObjAddr: 0x11A64, symBinAddr: 0x100012FB4, symSize: 0xB4 }
  - { offset: 0x226E9, size: 0x8, addend: 0x0, symName: __ZNSt3__114__rewrap_rangeB8ne180100IPiS1_EET_S2_T0_, symObjAddr: 0x11B60, symBinAddr: 0x1000130B0, symSize: 0x2C }
  - { offset: 0x22735, size: 0x8, addend: 0x0, symName: __ZNSt3__119__copy_trivial_implB8ne180100IiiEENS_4pairIPT_PT0_EES3_S3_S5_, symObjAddr: 0x11B8C, symBinAddr: 0x1000130DC, symSize: 0x80 }
  - { offset: 0x2279D, size: 0x8, addend: 0x0, symName: __ZNSt3__119__constexpr_memmoveB8ne180100IiiTnNS_9enable_ifIXsr23__is_always_bitcastableIT0_T_EE5valueEiE4typeELi0EEEPS3_S6_PS2_NS_15__element_countE, symObjAddr: 0x11C0C, symBinAddr: 0x10001315C, symSize: 0x60 }
  - { offset: 0x2280B, size: 0x8, addend: 0x0, symName: __ZNSt3__19make_pairB8ne180100IRPiS1_EENS_4pairINS_18__unwrap_ref_decayIT_E4typeENS4_IT0_E4typeEEEOS5_OS8_, symObjAddr: 0x11C6C, symBinAddr: 0x1000131BC, symSize: 0x38 }
  - { offset: 0x28E70, size: 0x8, addend: 0x0, symName: __ZSt28__throw_bad_array_new_lengthB8ne180100v, symObjAddr: 0x3E18, symBinAddr: 0x100005368, symSize: 0x34 }
  - { offset: 0x292DB, size: 0x8, addend: 0x0, symName: _model_config, symObjAddr: 0x1558E8, symBinAddr: 0x1000D61D0, symSize: 0x0 }
  - { offset: 0x2994D, size: 0x8, addend: 0x0, symName: _model_path, symObjAddr: 0x155900, symBinAddr: 0x1000D61E8, symSize: 0x0 }
  - { offset: 0x29D24, size: 0x8, addend: 0x0, symName: _data_format_list, symObjAddr: 0x155918, symBinAddr: 0x1000D6200, symSize: 0x0 }
  - { offset: 0x2EBA6, size: 0x8, addend: 0x0, symName: __ZN12model_configC1Eiiiiiiii, symObjAddr: 0x0, symBinAddr: 0x100001550, symSize: 0x78 }
  - { offset: 0x2EC40, size: 0x8, addend: 0x0, symName: __ZNSt3__123mersenne_twister_engineIjLm32ELm624ELm397ELm31ELj2567483615ELm11ELj4294967295ELm7ELj2636928640ELm15ELj4022730752ELm18ELj1812433253EEC1B8ne180100Ev, symObjAddr: 0x78, symBinAddr: 0x1000015C8, symSize: 0x30 }
  - { offset: 0x2EC89, size: 0x8, addend: 0x0, symName: '__ZNSt3__14pairIKNS_12basic_stringIcNS_11char_traitsIcEENS_9allocatorIcEEEEiEC1B8ne180100IRA9_Kc3$_0TnNS_9enable_ifIXclsr10_CheckArgsE17__enable_implicitIT_T0_EEEiE4typeELi0EEEOSF_OSG_', symObjAddr: 0xA8, symBinAddr: 0x1000015F8, symSize: 0x3C }
  - { offset: 0x2ED00, size: 0x8, addend: 0x0, symName: '__ZNSt3__14pairIKNS_12basic_stringIcNS_11char_traitsIcEENS_9allocatorIcEEEEiEC1B8ne180100IRA13_Kc3$_0TnNS_9enable_ifIXclsr10_CheckArgsE17__enable_implicitIT_T0_EEEiE4typeELi0EEEOSF_OSG_', symObjAddr: 0xE4, symBinAddr: 0x100001634, symSize: 0x3C }
  - { offset: 0x2ED77, size: 0x8, addend: 0x0, symName: '__ZNSt3__14pairIKNS_12basic_stringIcNS_11char_traitsIcEENS_9allocatorIcEEEEiEC1B8ne180100IRA16_Kc3$_0TnNS_9enable_ifIXclsr10_CheckArgsE17__enable_implicitIT_T0_EEEiE4typeELi0EEEOSF_OSG_', symObjAddr: 0x120, symBinAddr: 0x100001670, symSize: 0x3C }
  - { offset: 0x2EDD5, size: 0x8, addend: 0x0, symName: __ZNSt3__14pairIKNS_12basic_stringIcNS_11char_traitsIcEENS_9allocatorIcEEEEiED1Ev, symObjAddr: 0x15C, symBinAddr: 0x1000016AC, symSize: 0x2C }
  - { offset: 0x2EE01, size: 0x8, addend: 0x0, symName: __ZNSt3__13mapINS_12basic_stringIcNS_11char_traitsIcEENS_9allocatorIcEEEEiNS_4lessIS6_EENS4_INS_4pairIKS6_iEEEEEC1B8ne180100ESt16initializer_listISB_ERKS8_, symObjAddr: 0x188, symBinAddr: 0x1000016D8, symSize: 0x44 }
  - { offset: 0x2EE49, size: 0x8, addend: 0x0, symName: __ZNSt3__13mapINS_12basic_stringIcNS_11char_traitsIcEENS_9allocatorIcEEEEiNS_4lessIS6_EENS4_INS_4pairIKS6_iEEEEED1B8ne180100Ev, symObjAddr: 0x1CC, symBinAddr: 0x10000171C, symSize: 0x2C }
  - { offset: 0x2EE73, size: 0x8, addend: 0x0, symName: __ZNSt3__14pairIKNS_12basic_stringIcNS_11char_traitsIcEENS_9allocatorIcEEEES6_EC1B8ne180100IRA9_KcRA16_SA_TnNS_9enable_ifIXclsr10_CheckArgsE17__enable_implicitIT_T0_EEEiE4typeELi0EEEOSG_OSH_, symObjAddr: 0x1F8, symBinAddr: 0x100001748, symSize: 0x3C }
  - { offset: 0x2EEEA, size: 0x8, addend: 0x0, symName: __ZNSt3__14pairIKNS_12basic_stringIcNS_11char_traitsIcEENS_9allocatorIcEEEES6_EC1B8ne180100IRA13_KcRA20_SA_TnNS_9enable_ifIXclsr10_CheckArgsE17__enable_implicitIT_T0_EEEiE4typeELi0EEEOSG_OSH_, symObjAddr: 0x234, symBinAddr: 0x100001784, symSize: 0x3C }
  - { offset: 0x2EF61, size: 0x8, addend: 0x0, symName: __ZNSt3__14pairIKNS_12basic_stringIcNS_11char_traitsIcEENS_9allocatorIcEEEES6_EC1B8ne180100IRA16_KcRA23_SA_TnNS_9enable_ifIXclsr10_CheckArgsE17__enable_implicitIT_T0_EEEiE4typeELi0EEEOSG_OSH_, symObjAddr: 0x270, symBinAddr: 0x1000017C0, symSize: 0x3C }
  - { offset: 0x2EFBF, size: 0x8, addend: 0x0, symName: __ZNSt3__14pairIKNS_12basic_stringIcNS_11char_traitsIcEENS_9allocatorIcEEEES6_ED1Ev, symObjAddr: 0x2AC, symBinAddr: 0x1000017FC, symSize: 0x2C }
  - { offset: 0x2EFEB, size: 0x8, addend: 0x0, symName: __ZNSt3__13mapINS_12basic_stringIcNS_11char_traitsIcEENS_9allocatorIcEEEES6_NS_4lessIS6_EENS4_INS_4pairIKS6_S6_EEEEEC1B8ne180100ESt16initializer_listISB_ERKS8_, symObjAddr: 0x2D8, symBinAddr: 0x100001828, symSize: 0x44 }
  - { offset: 0x2F033, size: 0x8, addend: 0x0, symName: __ZNSt3__13mapINS_12basic_stringIcNS_11char_traitsIcEENS_9allocatorIcEEEES6_NS_4lessIS6_EENS4_INS_4pairIKS6_S6_EEEEED1B8ne180100Ev, symObjAddr: 0x31C, symBinAddr: 0x10000186C, symSize: 0x2C }
  - { offset: 0x2F07C, size: 0x8, addend: 0x0, symName: '__ZNSt3__14pairIKNS_12basic_stringIcNS_11char_traitsIcEENS_9allocatorIcEEEEiEC1B8ne180100IRA5_Kc3$_1TnNS_9enable_ifIXclsr10_CheckArgsE17__enable_implicitIT_T0_EEEiE4typeELi0EEEOSF_OSG_', symObjAddr: 0x348, symBinAddr: 0x100001898, symSize: 0x3C }
  - { offset: 0x2F0D9, size: 0x8, addend: 0x0, symName: __Z9isLLaMA7BNSt3__112basic_stringIcNS_11char_traitsIcEENS_9allocatorIcEEEE, symObjAddr: 0x384, symBinAddr: 0x1000018D4, symSize: 0xE4 }
  - { offset: 0x2F11A, size: 0x8, addend: 0x0, symName: __ZNSt3__112basic_stringIcNS_11char_traitsIcEENS_9allocatorIcEEEC1B8ne180100ILi0EEEPKc, symObjAddr: 0x468, symBinAddr: 0x1000019B8, symSize: 0x34 }
  - { offset: 0x2F159, size: 0x8, addend: 0x0, symName: __ZNKSt3__112basic_stringIcNS_11char_traitsIcEENS_9allocatorIcEEE6substrB8ne180100Emm, symObjAddr: 0x5D0, symBinAddr: 0x100001B20, symSize: 0x68 }
  - { offset: 0x2F19D, size: 0x8, addend: 0x0, symName: __ZNKSt3__112basic_stringIcNS_11char_traitsIcEENS_9allocatorIcEEE4sizeB8ne180100Ev, symObjAddr: 0x638, symBinAddr: 0x100001B88, symSize: 0x54 }
  - { offset: 0x2F1C3, size: 0x8, addend: 0x0, symName: _main, symObjAddr: 0x68C, symBinAddr: 0x100001BDC, symSize: 0x12AC }
  - { offset: 0x2F42E, size: 0x8, addend: 0x0, symName: __ZNKSt3__13mapINS_12basic_stringIcNS_11char_traitsIcEENS_9allocatorIcEEEEiNS_4lessIS6_EENS4_INS_4pairIKS6_iEEEEE5countB8ne180100ERSA_, symObjAddr: 0x1938, symBinAddr: 0x100002E88, symSize: 0x2C }
  - { offset: 0x2F463, size: 0x8, addend: 0x0, symName: __ZNSt3__113basic_ostreamIcNS_11char_traitsIcEEElsB8ne180100EPFRS3_S4_E, symObjAddr: 0x19AC, symBinAddr: 0x100002EFC, symSize: 0x2C }
  - { offset: 0x2F497, size: 0x8, addend: 0x0, symName: __ZNSt3__13mapINS_12basic_stringIcNS_11char_traitsIcEENS_9allocatorIcEEEEiNS_4lessIS6_EENS4_INS_4pairIKS6_iEEEEE5beginB8ne180100Ev, symObjAddr: 0x1A30, symBinAddr: 0x100002F80, symSize: 0x38 }
  - { offset: 0x2F4BD, size: 0x8, addend: 0x0, symName: __ZNSt3__13mapINS_12basic_stringIcNS_11char_traitsIcEENS_9allocatorIcEEEEiNS_4lessIS6_EENS4_INS_4pairIKS6_iEEEEE3endB8ne180100Ev, symObjAddr: 0x1A68, symBinAddr: 0x100002FB8, symSize: 0x38 }
  - { offset: 0x2F4E3, size: 0x8, addend: 0x0, symName: __ZNKSt3__114__map_iteratorINS_15__tree_iteratorINS_12__value_typeINS_12basic_stringIcNS_11char_traitsIcEENS_9allocatorIcEEEEiEEPNS_11__tree_nodeIS9_PvEElEEEdeB8ne180100Ev, symObjAddr: 0x1ACC, symBinAddr: 0x10000301C, symSize: 0x28 }
  - { offset: 0x2F509, size: 0x8, addend: 0x0, symName: __ZNSt3__114__map_iteratorINS_15__tree_iteratorINS_12__value_typeINS_12basic_stringIcNS_11char_traitsIcEENS_9allocatorIcEEEEiEEPNS_11__tree_nodeIS9_PvEElEEEppB8ne180100Ev, symObjAddr: 0x1B40, symBinAddr: 0x100003090, symSize: 0x2C }
  - { offset: 0x2F52F, size: 0x8, addend: 0x0, symName: __ZNSt3__112basic_stringIcNS_11char_traitsIcEENS_9allocatorIcEEEaSB8ne180100EPKc, symObjAddr: 0x1B6C, symBinAddr: 0x1000030BC, symSize: 0x2C }
  - { offset: 0x2F564, size: 0x8, addend: 0x0, symName: __ZNSt3__13mapINS_12basic_stringIcNS_11char_traitsIcEENS_9allocatorIcEEEEiNS_4lessIS6_EENS4_INS_4pairIKS6_iEEEEEixERSA_, symObjAddr: 0x1B98, symBinAddr: 0x1000030E8, symSize: 0x80 }
  - { offset: 0x2F59B, size: 0x8, addend: 0x0, symName: __ZNSt3__13mapINS_12basic_stringIcNS_11char_traitsIcEENS_9allocatorIcEEEES6_NS_4lessIS6_EENS4_INS_4pairIKS6_S6_EEEEEixERSA_, symObjAddr: 0x1C40, symBinAddr: 0x100003190, symSize: 0x80 }
  - { offset: 0x2F7E0, size: 0x8, addend: 0x0, symName: __ZN10opt_paramsC1Ev, symObjAddr: 0x1CC0, symBinAddr: 0x100003210, symSize: 0x2C }
  - { offset: 0x2F80C, size: 0x8, addend: 0x0, symName: __ZL20get_opt_model_configi, symObjAddr: 0x1CEC, symBinAddr: 0x10000323C, symSize: 0xF0 }
  - { offset: 0x2F849, size: 0x8, addend: 0x0, symName: __ZNSt3__112basic_stringIcNS_11char_traitsIcEENS_9allocatorIcEEEC1B8ne180100Ev, symObjAddr: 0x1DDC, symBinAddr: 0x10000332C, symSize: 0x2C }
  - { offset: 0x2F873, size: 0x8, addend: 0x0, symName: __ZNSt3__112basic_stringIcNS_11char_traitsIcEENS_9allocatorIcEEEaSB8ne180100EOS5_, symObjAddr: 0x1EA4, symBinAddr: 0x1000033F4, symSize: 0x34 }
  - { offset: 0x2F8B3, size: 0x8, addend: 0x0, symName: __ZN10opt_paramsC1ERKS_, symObjAddr: 0x1ED8, symBinAddr: 0x100003428, symSize: 0x34 }
  - { offset: 0x2F8E8, size: 0x8, addend: 0x0, symName: __ZNSt3__16vectorIiNS_9allocatorIiEEED1B8ne180100Ev, symObjAddr: 0x1F0C, symBinAddr: 0x10000345C, symSize: 0x2C }
  - { offset: 0x2F912, size: 0x8, addend: 0x0, symName: __ZN10opt_paramsD1Ev, symObjAddr: 0x1F38, symBinAddr: 0x100003488, symSize: 0x2C }
  - { offset: 0x2FF78, size: 0x8, addend: 0x0, symName: __ZN20Fp32LlamaForCausalLMD1Ev, symObjAddr: 0x1F64, symBinAddr: 0x1000034B4, symSize: 0x2C }
  - { offset: 0x302AE, size: 0x8, addend: 0x0, symName: __ZN20Int4LlamaForCausalLMD1Ev, symObjAddr: 0x1F90, symBinAddr: 0x1000034E0, symSize: 0x2C }
  - { offset: 0x302DA, size: 0x8, addend: 0x0, symName: __ZNSt3__16vectorIiNS_9allocatorIiEEEC1ERKS3_, symObjAddr: 0x1FBC, symBinAddr: 0x10000350C, symSize: 0x34 }
  - { offset: 0x30827, size: 0x8, addend: 0x0, symName: __ZN14OPTForCausalLMC1ERKS_, symObjAddr: 0x1FF0, symBinAddr: 0x100003540, symSize: 0x34 }
  - { offset: 0x3085C, size: 0x8, addend: 0x0, symName: __ZN14OPTForCausalLMD1Ev, symObjAddr: 0x2024, symBinAddr: 0x100003574, symSize: 0x2C }
  - { offset: 0x31A29, size: 0x8, addend: 0x0, symName: __ZN7EncoderD1Ev, symObjAddr: 0x2050, symBinAddr: 0x1000035A0, symSize: 0x2C }
  - { offset: 0x31A55, size: 0x8, addend: 0x0, symName: __ZN12model_configC2Eiiiiiiii, symObjAddr: 0x207C, symBinAddr: 0x1000035CC, symSize: 0x78 }
  - { offset: 0x31AEF, size: 0x8, addend: 0x0, symName: __ZNSt3__14pairIKNS_12basic_stringIcNS_11char_traitsIcEENS_9allocatorIcEEEEiED2Ev, symObjAddr: 0x20F4, symBinAddr: 0x100003644, symSize: 0x2C }
  - { offset: 0x31B1B, size: 0x8, addend: 0x0, symName: __ZNSt3__14pairIKNS_12basic_stringIcNS_11char_traitsIcEENS_9allocatorIcEEEES6_ED2Ev, symObjAddr: 0x2120, symBinAddr: 0x100003670, symSize: 0x38 }
  - { offset: 0x31B47, size: 0x8, addend: 0x0, symName: __ZN10opt_paramsC2Ev, symObjAddr: 0x2158, symBinAddr: 0x1000036A8, symSize: 0xD8 }
  - { offset: 0x31B73, size: 0x8, addend: 0x0, symName: __ZNSt3__113unordered_mapIifNS_4hashIiEENS_8equal_toIiEENS_9allocatorINS_4pairIKifEEEEEC1B8ne180100Ev, symObjAddr: 0x2230, symBinAddr: 0x100003780, symSize: 0x2C }
  - { offset: 0x31B9D, size: 0x8, addend: 0x0, symName: __ZNSt3__113unordered_mapIifNS_4hashIiEENS_8equal_toIiEENS_9allocatorINS_4pairIKifEEEEEC2B8ne180100Ev, symObjAddr: 0x225C, symBinAddr: 0x1000037AC, symSize: 0x2C }
  - { offset: 0x31BC7, size: 0x8, addend: 0x0, symName: __ZNSt3__112__hash_tableINS_17__hash_value_typeIifEENS_22__unordered_map_hasherIiS2_NS_4hashIiEENS_8equal_toIiEELb1EEENS_21__unordered_map_equalIiS2_S7_S5_Lb1EEENS_9allocatorIS2_EEEC1Ev, symObjAddr: 0x2288, symBinAddr: 0x1000037D8, symSize: 0x2C }
  - { offset: 0x31BF3, size: 0x8, addend: 0x0, symName: __ZNSt3__112__hash_tableINS_17__hash_value_typeIifEENS_22__unordered_map_hasherIiS2_NS_4hashIiEENS_8equal_toIiEELb1EEENS_21__unordered_map_equalIiS2_S7_S5_Lb1EEENS_9allocatorIS2_EEEC2Ev, symObjAddr: 0x22B4, symBinAddr: 0x100003804, symSize: 0x7C }
  - { offset: 0x31C1F, size: 0x8, addend: 0x0, symName: __ZNSt3__110unique_ptrIA_PNS_16__hash_node_baseIPNS_11__hash_nodeINS_17__hash_value_typeIifEEPvEEEENS_25__bucket_list_deallocatorINS_9allocatorIS9_EEEEEC1B8ne180100ILb1EvEEv, symObjAddr: 0x2330, symBinAddr: 0x100003880, symSize: 0x2C }
  - { offset: 0x31C54, size: 0x8, addend: 0x0, symName: __ZNSt3__117__compressed_pairINS_16__hash_node_baseIPNS_11__hash_nodeINS_17__hash_value_typeIifEEPvEEEENS_9allocatorIS6_EEEC1B8ne180100ILb1EvEEv, symObjAddr: 0x235C, symBinAddr: 0x1000038AC, symSize: 0x2C }
  - { offset: 0x31C95, size: 0x8, addend: 0x0, symName: __ZNSt3__117__compressed_pairImNS_22__unordered_map_hasherIiNS_17__hash_value_typeIifEENS_4hashIiEENS_8equal_toIiEELb1EEEEC1B8ne180100IiNS_18__default_init_tagEEEOT_OT0_, symObjAddr: 0x2398, symBinAddr: 0x1000038E8, symSize: 0x3C }
  - { offset: 0x31CF3, size: 0x8, addend: 0x0, symName: __ZNSt3__117__compressed_pairIfNS_21__unordered_map_equalIiNS_17__hash_value_typeIifEENS_8equal_toIiEENS_4hashIiEELb1EEEEC1B8ne180100IfNS_18__default_init_tagEEEOT_OT0_, symObjAddr: 0x23D4, symBinAddr: 0x100003924, symSize: 0x3C }
  - { offset: 0x31D4B, size: 0x8, addend: 0x0, symName: __ZNSt3__110unique_ptrIA_PNS_16__hash_node_baseIPNS_11__hash_nodeINS_17__hash_value_typeIifEEPvEEEENS_25__bucket_list_deallocatorINS_9allocatorIS9_EEEEEC2B8ne180100ILb1EvEEv, symObjAddr: 0x2410, symBinAddr: 0x100003960, symSize: 0x3C }
  - { offset: 0x31D86, size: 0x8, addend: 0x0, symName: __ZNSt3__117__compressed_pairIPPNS_16__hash_node_baseIPNS_11__hash_nodeINS_17__hash_value_typeIifEEPvEEEENS_25__bucket_list_deallocatorINS_9allocatorIS9_EEEEEC1B8ne180100INS_16__value_init_tagESH_EEOT_OT0_, symObjAddr: 0x244C, symBinAddr: 0x10000399C, symSize: 0x3C }
  - { offset: 0x31DDE, size: 0x8, addend: 0x0, symName: __ZNSt3__117__compressed_pairIPPNS_16__hash_node_baseIPNS_11__hash_nodeINS_17__hash_value_typeIifEEPvEEEENS_25__bucket_list_deallocatorINS_9allocatorIS9_EEEEEC2B8ne180100INS_16__value_init_tagESH_EEOT_OT0_, symObjAddr: 0x2488, symBinAddr: 0x1000039D8, symSize: 0x40 }
  - { offset: 0x31E36, size: 0x8, addend: 0x0, symName: __ZNSt3__122__compressed_pair_elemIPPNS_16__hash_node_baseIPNS_11__hash_nodeINS_17__hash_value_typeIifEEPvEEEELi0ELb0EEC2B8ne180100ENS_16__value_init_tagE, symObjAddr: 0x24C8, symBinAddr: 0x100003A18, symSize: 0x18 }
  - { offset: 0x31E6A, size: 0x8, addend: 0x0, symName: __ZNSt3__122__compressed_pair_elemINS_25__bucket_list_deallocatorINS_9allocatorIPNS_16__hash_node_baseIPNS_11__hash_nodeINS_17__hash_value_typeIifEEPvEEEEEEEELi1ELb0EEC2B8ne180100ENS_16__value_init_tagE, symObjAddr: 0x24E0, symBinAddr: 0x100003A30, symSize: 0x2C }
  - { offset: 0x31E9E, size: 0x8, addend: 0x0, symName: __ZNSt3__125__bucket_list_deallocatorINS_9allocatorIPNS_16__hash_node_baseIPNS_11__hash_nodeINS_17__hash_value_typeIifEEPvEEEEEEEC1B8ne180100Ev, symObjAddr: 0x250C, symBinAddr: 0x100003A5C, symSize: 0x2C }
  - { offset: 0x31EC8, size: 0x8, addend: 0x0, symName: __ZNSt3__125__bucket_list_deallocatorINS_9allocatorIPNS_16__hash_node_baseIPNS_11__hash_nodeINS_17__hash_value_typeIifEEPvEEEEEEEC2B8ne180100Ev, symObjAddr: 0x2538, symBinAddr: 0x100003A88, symSize: 0x40 }
  - { offset: 0x31EF2, size: 0x8, addend: 0x0, symName: __ZNSt3__117__compressed_pairImNS_9allocatorIPNS_16__hash_node_baseIPNS_11__hash_nodeINS_17__hash_value_typeIifEEPvEEEEEEEC1B8ne180100IiNS_18__default_init_tagEEEOT_OT0_, symObjAddr: 0x2578, symBinAddr: 0x100003AC8, symSize: 0x3C }
  - { offset: 0x31F4A, size: 0x8, addend: 0x0, symName: __ZNSt3__117__compressed_pairImNS_9allocatorIPNS_16__hash_node_baseIPNS_11__hash_nodeINS_17__hash_value_typeIifEEPvEEEEEEEC2B8ne180100IiNS_18__default_init_tagEEEOT_OT0_, symObjAddr: 0x25B4, symBinAddr: 0x100003B04, symSize: 0x40 }
  - { offset: 0x31FA2, size: 0x8, addend: 0x0, symName: __ZNSt3__122__compressed_pair_elemImLi0ELb0EEC2B8ne180100IivEEOT_, symObjAddr: 0x25F4, symBinAddr: 0x100003B44, symSize: 0x24 }
  - { offset: 0x31FE4, size: 0x8, addend: 0x0, symName: __ZNSt3__122__compressed_pair_elemINS_9allocatorIPNS_16__hash_node_baseIPNS_11__hash_nodeINS_17__hash_value_typeIifEEPvEEEEEELi1ELb1EEC2B8ne180100ENS_18__default_init_tagE, symObjAddr: 0x2618, symBinAddr: 0x100003B68, symSize: 0x2C }
  - { offset: 0x32018, size: 0x8, addend: 0x0, symName: __ZNSt3__19allocatorIPNS_16__hash_node_baseIPNS_11__hash_nodeINS_17__hash_value_typeIifEEPvEEEEEC2B8ne180100Ev, symObjAddr: 0x2644, symBinAddr: 0x100003B94, symSize: 0x2C }
  - { offset: 0x32042, size: 0x8, addend: 0x0, symName: __ZNSt3__116__non_trivial_ifILb1ENS_9allocatorIPNS_16__hash_node_baseIPNS_11__hash_nodeINS_17__hash_value_typeIifEEPvEEEEEEEC2B8ne180100Ev, symObjAddr: 0x2670, symBinAddr: 0x100003BC0, symSize: 0x14 }
  - { offset: 0x3206C, size: 0x8, addend: 0x0, symName: __ZNSt3__117__compressed_pairINS_16__hash_node_baseIPNS_11__hash_nodeINS_17__hash_value_typeIifEEPvEEEENS_9allocatorIS6_EEEC2B8ne180100ILb1EvEEv, symObjAddr: 0x2684, symBinAddr: 0x100003BD4, symSize: 0x34 }
  - { offset: 0x320A1, size: 0x8, addend: 0x0, symName: __ZNSt3__122__compressed_pair_elemINS_16__hash_node_baseIPNS_11__hash_nodeINS_17__hash_value_typeIifEEPvEEEELi0ELb0EEC2B8ne180100ENS_16__value_init_tagE, symObjAddr: 0x26B8, symBinAddr: 0x100003C08, symSize: 0x2C }
  - { offset: 0x320D5, size: 0x8, addend: 0x0, symName: __ZNSt3__122__compressed_pair_elemINS_9allocatorINS_11__hash_nodeINS_17__hash_value_typeIifEEPvEEEELi1ELb1EEC2B8ne180100ENS_16__value_init_tagE, symObjAddr: 0x26E4, symBinAddr: 0x100003C34, symSize: 0x2C }
  - { offset: 0x32109, size: 0x8, addend: 0x0, symName: __ZNSt3__116__hash_node_baseIPNS_11__hash_nodeINS_17__hash_value_typeIifEEPvEEEC1B8ne180100Ev, symObjAddr: 0x2710, symBinAddr: 0x100003C60, symSize: 0x2C }
  - { offset: 0x32133, size: 0x8, addend: 0x0, symName: __ZNSt3__116__hash_node_baseIPNS_11__hash_nodeINS_17__hash_value_typeIifEEPvEEEC2B8ne180100Ev, symObjAddr: 0x273C, symBinAddr: 0x100003C8C, symSize: 0x18 }
  - { offset: 0x3215D, size: 0x8, addend: 0x0, symName: __ZNSt3__19allocatorINS_11__hash_nodeINS_17__hash_value_typeIifEEPvEEEC2B8ne180100Ev, symObjAddr: 0x2754, symBinAddr: 0x100003CA4, symSize: 0x2C }
  - { offset: 0x32187, size: 0x8, addend: 0x0, symName: __ZNSt3__116__non_trivial_ifILb1ENS_9allocatorINS_11__hash_nodeINS_17__hash_value_typeIifEEPvEEEEEC2B8ne180100Ev, symObjAddr: 0x2780, symBinAddr: 0x100003CD0, symSize: 0x14 }
  - { offset: 0x321B1, size: 0x8, addend: 0x0, symName: __ZNSt3__117__compressed_pairImNS_22__unordered_map_hasherIiNS_17__hash_value_typeIifEENS_4hashIiEENS_8equal_toIiEELb1EEEEC2B8ne180100IiNS_18__default_init_tagEEEOT_OT0_, symObjAddr: 0x2794, symBinAddr: 0x100003CE4, symSize: 0x40 }
  - { offset: 0x32209, size: 0x8, addend: 0x0, symName: __ZNSt3__122__compressed_pair_elemINS_22__unordered_map_hasherIiNS_17__hash_value_typeIifEENS_4hashIiEENS_8equal_toIiEELb1EEELi1ELb1EEC2B8ne180100ENS_18__default_init_tagE, symObjAddr: 0x27D4, symBinAddr: 0x100003D24, symSize: 0x2C }
  - { offset: 0x3223D, size: 0x8, addend: 0x0, symName: __ZNSt3__122__unordered_map_hasherIiNS_17__hash_value_typeIifEENS_4hashIiEENS_8equal_toIiEELb1EEC2B8ne180100Ev, symObjAddr: 0x2800, symBinAddr: 0x100003D50, symSize: 0x14 }
  - { offset: 0x32267, size: 0x8, addend: 0x0, symName: __ZNSt3__117__compressed_pairIfNS_21__unordered_map_equalIiNS_17__hash_value_typeIifEENS_8equal_toIiEENS_4hashIiEELb1EEEEC2B8ne180100IfNS_18__default_init_tagEEEOT_OT0_, symObjAddr: 0x2814, symBinAddr: 0x100003D64, symSize: 0x40 }
  - { offset: 0x322BF, size: 0x8, addend: 0x0, symName: __ZNSt3__122__compressed_pair_elemIfLi0ELb0EEC2B8ne180100IfvEEOT_, symObjAddr: 0x2854, symBinAddr: 0x100003DA4, symSize: 0x24 }
  - { offset: 0x32301, size: 0x8, addend: 0x0, symName: __ZNSt3__122__compressed_pair_elemINS_21__unordered_map_equalIiNS_17__hash_value_typeIifEENS_8equal_toIiEENS_4hashIiEELb1EEELi1ELb1EEC2B8ne180100ENS_18__default_init_tagE, symObjAddr: 0x2878, symBinAddr: 0x100003DC8, symSize: 0x2C }
  - { offset: 0x32335, size: 0x8, addend: 0x0, symName: __ZNSt3__121__unordered_map_equalIiNS_17__hash_value_typeIifEENS_8equal_toIiEENS_4hashIiEELb1EEC2B8ne180100Ev, symObjAddr: 0x28A4, symBinAddr: 0x100003DF4, symSize: 0x14 }
  - { offset: 0x3235F, size: 0x8, addend: 0x0, symName: __ZN12model_configC1Ev, symObjAddr: 0x28B8, symBinAddr: 0x100003E08, symSize: 0x50 }
  - { offset: 0x32389, size: 0x8, addend: 0x0, symName: __ZN10opt_paramsC2ERKS_, symObjAddr: 0x2908, symBinAddr: 0x100003E58, symSize: 0x68 }
  - { offset: 0x323BE, size: 0x8, addend: 0x0, symName: __ZNSt3__113unordered_mapIifNS_4hashIiEENS_8equal_toIiEENS_9allocatorINS_4pairIKifEEEEEC1ERKSA_, symObjAddr: 0x2970, symBinAddr: 0x100003EC0, symSize: 0x34 }
  - { offset: 0x323F9, size: 0x8, addend: 0x0, symName: __ZNSt3__113unordered_mapIifNS_4hashIiEENS_8equal_toIiEENS_9allocatorINS_4pairIKifEEEEEC2ERKSA_, symObjAddr: 0x29A4, symBinAddr: 0x100003EF4, symSize: 0xA0 }
  - { offset: 0x32434, size: 0x8, addend: 0x0, symName: __ZNSt3__112__hash_tableINS_17__hash_value_typeIifEENS_22__unordered_map_hasherIiS2_NS_4hashIiEENS_8equal_toIiEELb1EEENS_21__unordered_map_equalIiS2_S7_S5_Lb1EEENS_9allocatorIS2_EEEC1ERKSD_, symObjAddr: 0x2A44, symBinAddr: 0x100003F94, symSize: 0x34 }
  - { offset: 0x3246F, size: 0x8, addend: 0x0, symName: __ZNSt3__112__hash_tableINS_17__hash_value_typeIifEENS_22__unordered_map_hasherIiS2_NS_4hashIiEENS_8equal_toIiEELb1EEENS_21__unordered_map_equalIiS2_S7_S5_Lb1EEENS_9allocatorIS2_EEE15__rehash_uniqueB8ne180100Em, symObjAddr: 0x2A78, symBinAddr: 0x100003FC8, symSize: 0x2C }
  - { offset: 0x324A4, size: 0x8, addend: 0x0, symName: __ZNKSt3__113unordered_mapIifNS_4hashIiEENS_8equal_toIiEENS_9allocatorINS_4pairIKifEEEEE12bucket_countB8ne180100Ev, symObjAddr: 0x2AA4, symBinAddr: 0x100003FF4, symSize: 0x24 }
  - { offset: 0x324CA, size: 0x8, addend: 0x0, symName: __ZNSt3__113unordered_mapIifNS_4hashIiEENS_8equal_toIiEENS_9allocatorINS_4pairIKifEEEEE6insertINS_25__hash_map_const_iteratorINS_21__hash_const_iteratorIPNS_11__hash_nodeINS_17__hash_value_typeIifEEPvEEEEEEEEvT_SM_, symObjAddr: 0x2AC8, symBinAddr: 0x100004018, symSize: 0x70 }
  - { offset: 0x32517, size: 0x8, addend: 0x0, symName: __ZNKSt3__113unordered_mapIifNS_4hashIiEENS_8equal_toIiEENS_9allocatorINS_4pairIKifEEEEE5beginB8ne180100Ev, symObjAddr: 0x2B38, symBinAddr: 0x100004088, symSize: 0x38 }
  - { offset: 0x3253D, size: 0x8, addend: 0x0, symName: __ZNKSt3__113unordered_mapIifNS_4hashIiEENS_8equal_toIiEENS_9allocatorINS_4pairIKifEEEEE3endB8ne180100Ev, symObjAddr: 0x2B70, symBinAddr: 0x1000040C0, symSize: 0x38 }
  - { offset: 0x32563, size: 0x8, addend: 0x0, symName: __ZNSt3__112__hash_tableINS_17__hash_value_typeIifEENS_22__unordered_map_hasherIiS2_NS_4hashIiEENS_8equal_toIiEELb1EEENS_21__unordered_map_equalIiS2_S7_S5_Lb1EEENS_9allocatorIS2_EEED1Ev, symObjAddr: 0x2BA8, symBinAddr: 0x1000040F8, symSize: 0x2C }
  - { offset: 0x3258F, size: 0x8, addend: 0x0, symName: __ZNSt3__112__hash_tableINS_17__hash_value_typeIifEENS_22__unordered_map_hasherIiS2_NS_4hashIiEENS_8equal_toIiEELb1EEENS_21__unordered_map_equalIiS2_S7_S5_Lb1EEENS_9allocatorIS2_EEEC2ERKSD_, symObjAddr: 0x2BD4, symBinAddr: 0x100004124, symSize: 0xEC }
  - { offset: 0x325D5, size: 0x8, addend: 0x0, symName: __ZNSt3__116allocator_traitsINS_9allocatorIPNS_16__hash_node_baseIPNS_11__hash_nodeINS_17__hash_value_typeIifEEPvEEEEEEE37select_on_container_copy_constructionB8ne180100ISB_vvEESB_RKSB_, symObjAddr: 0x2CC0, symBinAddr: 0x100004210, symSize: 0x10 }
  - { offset: 0x32604, size: 0x8, addend: 0x0, symName: __ZNKSt3__110unique_ptrIA_PNS_16__hash_node_baseIPNS_11__hash_nodeINS_17__hash_value_typeIifEEPvEEEENS_25__bucket_list_deallocatorINS_9allocatorIS9_EEEEE11get_deleterB8ne180100Ev, symObjAddr: 0x2CD0, symBinAddr: 0x100004220, symSize: 0x24 }
  - { offset: 0x3262A, size: 0x8, addend: 0x0, symName: __ZNKSt3__125__bucket_list_deallocatorINS_9allocatorIPNS_16__hash_node_baseIPNS_11__hash_nodeINS_17__hash_value_typeIifEEPvEEEEEEE7__allocB8ne180100Ev, symObjAddr: 0x2CF4, symBinAddr: 0x100004244, symSize: 0x24 }
  - { offset: 0x32650, size: 0x8, addend: 0x0, symName: __ZNSt3__125__bucket_list_deallocatorINS_9allocatorIPNS_16__hash_node_baseIPNS_11__hash_nodeINS_17__hash_value_typeIifEEPvEEEEEEEC1B8ne180100ERKSB_m, symObjAddr: 0x2D18, symBinAddr: 0x100004268, symSize: 0x3C }
  - { offset: 0x32698, size: 0x8, addend: 0x0, symName: __ZNSt3__110unique_ptrIA_PNS_16__hash_node_baseIPNS_11__hash_nodeINS_17__hash_value_typeIifEEPvEEEENS_25__bucket_list_deallocatorINS_9allocatorIS9_EEEEEC1B8ne180100ILb1EvEEDnNS_16__dependent_typeINS_27__unique_ptr_deleter_sfinaeISE_EEXT_EE20__good_rval_ref_typeE, symObjAddr: 0x2D54, symBinAddr: 0x1000042A4, symSize: 0x3C }
  - { offset: 0x326F2, size: 0x8, addend: 0x0, symName: __ZNSt3__116allocator_traitsINS_9allocatorINS_11__hash_nodeINS_17__hash_value_typeIifEEPvEEEEE37select_on_container_copy_constructionB8ne180100IS7_vvEES7_RKS7_, symObjAddr: 0x2D90, symBinAddr: 0x1000042E0, symSize: 0x10 }
  - { offset: 0x32721, size: 0x8, addend: 0x0, symName: __ZNKSt3__112__hash_tableINS_17__hash_value_typeIifEENS_22__unordered_map_hasherIiS2_NS_4hashIiEENS_8equal_toIiEELb1EEENS_21__unordered_map_equalIiS2_S7_S5_Lb1EEENS_9allocatorIS2_EEE12__node_allocB8ne180100Ev, symObjAddr: 0x2DA0, symBinAddr: 0x1000042F0, symSize: 0x28 }
  - { offset: 0x3274D, size: 0x8, addend: 0x0, symName: __ZNSt3__117__compressed_pairINS_16__hash_node_baseIPNS_11__hash_nodeINS_17__hash_value_typeIifEEPvEEEENS_9allocatorIS6_EEEC1B8ne180100INS_18__default_init_tagESA_EEOT_OT0_, symObjAddr: 0x2DC8, symBinAddr: 0x100004318, symSize: 0x3C }
  - { offset: 0x327A5, size: 0x8, addend: 0x0, symName: __ZNKSt3__112__hash_tableINS_17__hash_value_typeIifEENS_22__unordered_map_hasherIiS2_NS_4hashIiEENS_8equal_toIiEELb1EEENS_21__unordered_map_equalIiS2_S7_S5_Lb1EEENS_9allocatorIS2_EEE13hash_functionB8ne180100Ev, symObjAddr: 0x2E04, symBinAddr: 0x100004354, symSize: 0x28 }
  - { offset: 0x327CB, size: 0x8, addend: 0x0, symName: __ZNSt3__117__compressed_pairImNS_22__unordered_map_hasherIiNS_17__hash_value_typeIifEENS_4hashIiEENS_8equal_toIiEELb1EEEEC1B8ne180100IiRKS8_EEOT_OT0_, symObjAddr: 0x2E2C, symBinAddr: 0x10000437C, symSize: 0x3C }
  - { offset: 0x32823, size: 0x8, addend: 0x0, symName: __ZNSt3__110unique_ptrIA_PNS_16__hash_node_baseIPNS_11__hash_nodeINS_17__hash_value_typeIifEEPvEEEENS_25__bucket_list_deallocatorINS_9allocatorIS9_EEEEED1B8ne180100Ev, symObjAddr: 0x2E68, symBinAddr: 0x1000043B8, symSize: 0x2C }
  - { offset: 0x3284D, size: 0x8, addend: 0x0, symName: __ZNKSt3__117__compressed_pairIPPNS_16__hash_node_baseIPNS_11__hash_nodeINS_17__hash_value_typeIifEEPvEEEENS_25__bucket_list_deallocatorINS_9allocatorIS9_EEEEE6secondB8ne180100Ev, symObjAddr: 0x2E94, symBinAddr: 0x1000043E4, symSize: 0x28 }
  - { offset: 0x32873, size: 0x8, addend: 0x0, symName: __ZNKSt3__122__compressed_pair_elemINS_25__bucket_list_deallocatorINS_9allocatorIPNS_16__hash_node_baseIPNS_11__hash_nodeINS_17__hash_value_typeIifEEPvEEEEEEEELi1ELb0EE5__getB8ne180100Ev, symObjAddr: 0x2EBC, symBinAddr: 0x10000440C, symSize: 0x14 }
  - { offset: 0x32899, size: 0x8, addend: 0x0, symName: __ZNKSt3__117__compressed_pairImNS_9allocatorIPNS_16__hash_node_baseIPNS_11__hash_nodeINS_17__hash_value_typeIifEEPvEEEEEEE6secondB8ne180100Ev, symObjAddr: 0x2ED0, symBinAddr: 0x100004420, symSize: 0x24 }
  - { offset: 0x328BF, size: 0x8, addend: 0x0, symName: __ZNKSt3__122__compressed_pair_elemINS_9allocatorIPNS_16__hash_node_baseIPNS_11__hash_nodeINS_17__hash_value_typeIifEEPvEEEEEELi1ELb1EE5__getB8ne180100Ev, symObjAddr: 0x2EF4, symBinAddr: 0x100004444, symSize: 0x14 }
  - { offset: 0x328E5, size: 0x8, addend: 0x0, symName: __ZNSt3__125__bucket_list_deallocatorINS_9allocatorIPNS_16__hash_node_baseIPNS_11__hash_nodeINS_17__hash_value_typeIifEEPvEEEEEEEC2B8ne180100ERKSB_m, symObjAddr: 0x2F08, symBinAddr: 0x100004458, symSize: 0x44 }
  - { offset: 0x3292D, size: 0x8, addend: 0x0, symName: __ZNSt3__117__compressed_pairImNS_9allocatorIPNS_16__hash_node_baseIPNS_11__hash_nodeINS_17__hash_value_typeIifEEPvEEEEEEEC1B8ne180100IRmRKSB_EEOT_OT0_, symObjAddr: 0x2F4C, symBinAddr: 0x10000449C, symSize: 0x3C }
  - { offset: 0x32985, size: 0x8, addend: 0x0, symName: __ZNSt3__117__compressed_pairImNS_9allocatorIPNS_16__hash_node_baseIPNS_11__hash_nodeINS_17__hash_value_typeIifEEPvEEEEEEEC2B8ne180100IRmRKSB_EEOT_OT0_, symObjAddr: 0x2F88, symBinAddr: 0x1000044D8, symSize: 0x44 }
  - { offset: 0x329DD, size: 0x8, addend: 0x0, symName: __ZNSt3__122__compressed_pair_elemImLi0ELb0EEC2B8ne180100IRmvEEOT_, symObjAddr: 0x2FCC, symBinAddr: 0x10000451C, symSize: 0x24 }
  - { offset: 0x32A1F, size: 0x8, addend: 0x0, symName: __ZNSt3__122__compressed_pair_elemINS_9allocatorIPNS_16__hash_node_baseIPNS_11__hash_nodeINS_17__hash_value_typeIifEEPvEEEEEELi1ELb1EEC2B8ne180100IRKSB_vEEOT_, symObjAddr: 0x2FF0, symBinAddr: 0x100004540, symSize: 0x18 }
  - { offset: 0x32A61, size: 0x8, addend: 0x0, symName: __ZNSt3__110unique_ptrIA_PNS_16__hash_node_baseIPNS_11__hash_nodeINS_17__hash_value_typeIifEEPvEEEENS_25__bucket_list_deallocatorINS_9allocatorIS9_EEEEEC2B8ne180100ILb1EvEEDnNS_16__dependent_typeINS_27__unique_ptr_deleter_sfinaeISE_EEXT_EE20__good_rval_ref_typeE, symObjAddr: 0x3008, symBinAddr: 0x100004558, symSize: 0x48 }
  - { offset: 0x32AB6, size: 0x8, addend: 0x0, symName: __ZNSt3__117__compressed_pairIPPNS_16__hash_node_baseIPNS_11__hash_nodeINS_17__hash_value_typeIifEEPvEEEENS_25__bucket_list_deallocatorINS_9allocatorIS9_EEEEEC1B8ne180100IDnSE_EEOT_OT0_, symObjAddr: 0x3050, symBinAddr: 0x1000045A0, symSize: 0x3C }
  - { offset: 0x32B0E, size: 0x8, addend: 0x0, symName: __ZNSt3__117__compressed_pairIPPNS_16__hash_node_baseIPNS_11__hash_nodeINS_17__hash_value_typeIifEEPvEEEENS_25__bucket_list_deallocatorINS_9allocatorIS9_EEEEEC2B8ne180100IDnSE_EEOT_OT0_, symObjAddr: 0x308C, symBinAddr: 0x1000045DC, symSize: 0x48 }
  - { offset: 0x32B66, size: 0x8, addend: 0x0, symName: __ZNSt3__122__compressed_pair_elemIPPNS_16__hash_node_baseIPNS_11__hash_nodeINS_17__hash_value_typeIifEEPvEEEELi0ELb0EEC2B8ne180100IDnvEEOT_, symObjAddr: 0x30D4, symBinAddr: 0x100004624, symSize: 0x1C }
  - { offset: 0x32BA8, size: 0x8, addend: 0x0, symName: __ZNSt3__122__compressed_pair_elemINS_25__bucket_list_deallocatorINS_9allocatorIPNS_16__hash_node_baseIPNS_11__hash_nodeINS_17__hash_value_typeIifEEPvEEEEEEEELi1ELb0EEC2B8ne180100ISD_vEEOT_, symObjAddr: 0x30F0, symBinAddr: 0x100004640, symSize: 0x34 }
  - { offset: 0x32BEA, size: 0x8, addend: 0x0, symName: __ZNSt3__125__bucket_list_deallocatorINS_9allocatorIPNS_16__hash_node_baseIPNS_11__hash_nodeINS_17__hash_value_typeIifEEPvEEEEEEEC1B8ne180100EOSC_, symObjAddr: 0x3124, symBinAddr: 0x100004674, symSize: 0x34 }
  - { offset: 0x32C23, size: 0x8, addend: 0x0, symName: __ZNSt3__125__bucket_list_deallocatorINS_9allocatorIPNS_16__hash_node_baseIPNS_11__hash_nodeINS_17__hash_value_typeIifEEPvEEEEEEEC2B8ne180100EOSC_, symObjAddr: 0x3158, symBinAddr: 0x1000046A8, symSize: 0x48 }
  - { offset: 0x32C5C, size: 0x8, addend: 0x0, symName: __ZNSt3__125__bucket_list_deallocatorINS_9allocatorIPNS_16__hash_node_baseIPNS_11__hash_nodeINS_17__hash_value_typeIifEEPvEEEEEEE4sizeB8ne180100Ev, symObjAddr: 0x31A0, symBinAddr: 0x1000046F0, symSize: 0x24 }
  - { offset: 0x32C82, size: 0x8, addend: 0x0, symName: __ZNSt3__117__compressed_pairImNS_9allocatorIPNS_16__hash_node_baseIPNS_11__hash_nodeINS_17__hash_value_typeIifEEPvEEEEEEE5firstB8ne180100Ev, symObjAddr: 0x31C4, symBinAddr: 0x100004714, symSize: 0x24 }
  - { offset: 0x32CA8, size: 0x8, addend: 0x0, symName: __ZNSt3__122__compressed_pair_elemImLi0ELb0EE5__getB8ne180100Ev, symObjAddr: 0x31E8, symBinAddr: 0x100004738, symSize: 0x14 }
  - { offset: 0x32CCE, size: 0x8, addend: 0x0, symName: __ZNKSt3__117__compressed_pairINS_16__hash_node_baseIPNS_11__hash_nodeINS_17__hash_value_typeIifEEPvEEEENS_9allocatorIS6_EEE6secondB8ne180100Ev, symObjAddr: 0x31FC, symBinAddr: 0x10000474C, symSize: 0x24 }
  - { offset: 0x32CF4, size: 0x8, addend: 0x0, symName: __ZNKSt3__122__compressed_pair_elemINS_9allocatorINS_11__hash_nodeINS_17__hash_value_typeIifEEPvEEEELi1ELb1EE5__getB8ne180100Ev, symObjAddr: 0x3220, symBinAddr: 0x100004770, symSize: 0x14 }
  - { offset: 0x32D1A, size: 0x8, addend: 0x0, symName: __ZNSt3__117__compressed_pairINS_16__hash_node_baseIPNS_11__hash_nodeINS_17__hash_value_typeIifEEPvEEEENS_9allocatorIS6_EEEC2B8ne180100INS_18__default_init_tagESA_EEOT_OT0_, symObjAddr: 0x3234, symBinAddr: 0x100004784, symSize: 0x40 }
  - { offset: 0x32D72, size: 0x8, addend: 0x0, symName: __ZNSt3__122__compressed_pair_elemINS_16__hash_node_baseIPNS_11__hash_nodeINS_17__hash_value_typeIifEEPvEEEELi0ELb0EEC2B8ne180100ENS_18__default_init_tagE, symObjAddr: 0x3274, symBinAddr: 0x1000047C4, symSize: 0x2C }
  - { offset: 0x32DA6, size: 0x8, addend: 0x0, symName: __ZNSt3__122__compressed_pair_elemINS_9allocatorINS_11__hash_nodeINS_17__hash_value_typeIifEEPvEEEELi1ELb1EEC2B8ne180100IS7_vEEOT_, symObjAddr: 0x32A0, symBinAddr: 0x1000047F0, symSize: 0x18 }
  - { offset: 0x32DE8, size: 0x8, addend: 0x0, symName: __ZNKSt3__117__compressed_pairImNS_22__unordered_map_hasherIiNS_17__hash_value_typeIifEENS_4hashIiEENS_8equal_toIiEELb1EEEE6secondB8ne180100Ev, symObjAddr: 0x32B8, symBinAddr: 0x100004808, symSize: 0x24 }
  - { offset: 0x32E0E, size: 0x8, addend: 0x0, symName: __ZNKSt3__122__compressed_pair_elemINS_22__unordered_map_hasherIiNS_17__hash_value_typeIifEENS_4hashIiEENS_8equal_toIiEELb1EEELi1ELb1EE5__getB8ne180100Ev, symObjAddr: 0x32DC, symBinAddr: 0x10000482C, symSize: 0x14 }
  - { offset: 0x32E34, size: 0x8, addend: 0x0, symName: __ZNSt3__117__compressed_pairImNS_22__unordered_map_hasherIiNS_17__hash_value_typeIifEENS_4hashIiEENS_8equal_toIiEELb1EEEEC2B8ne180100IiRKS8_EEOT_OT0_, symObjAddr: 0x32F0, symBinAddr: 0x100004840, symSize: 0x44 }
  - { offset: 0x32E8C, size: 0x8, addend: 0x0, symName: __ZNSt3__122__compressed_pair_elemINS_22__unordered_map_hasherIiNS_17__hash_value_typeIifEENS_4hashIiEENS_8equal_toIiEELb1EEELi1ELb1EEC2B8ne180100IRKS8_vEEOT_, symObjAddr: 0x3334, symBinAddr: 0x100004884, symSize: 0x18 }
  - { offset: 0x32ECE, size: 0x8, addend: 0x0, symName: __ZNSt3__110unique_ptrIA_PNS_16__hash_node_baseIPNS_11__hash_nodeINS_17__hash_value_typeIifEEPvEEEENS_25__bucket_list_deallocatorINS_9allocatorIS9_EEEEED2B8ne180100Ev, symObjAddr: 0x334C, symBinAddr: 0x10000489C, symSize: 0x30 }
  - { offset: 0x32EF8, size: 0x8, addend: 0x0, symName: __ZNSt3__110unique_ptrIA_PNS_16__hash_node_baseIPNS_11__hash_nodeINS_17__hash_value_typeIifEEPvEEEENS_25__bucket_list_deallocatorINS_9allocatorIS9_EEEEE5resetB8ne180100EDn, symObjAddr: 0x337C, symBinAddr: 0x1000048CC, symSize: 0x64 }
  - { offset: 0x32F38, size: 0x8, addend: 0x0, symName: __ZNSt3__117__compressed_pairIPPNS_16__hash_node_baseIPNS_11__hash_nodeINS_17__hash_value_typeIifEEPvEEEENS_25__bucket_list_deallocatorINS_9allocatorIS9_EEEEE5firstB8ne180100Ev, symObjAddr: 0x33E0, symBinAddr: 0x100004930, symSize: 0x24 }
  - { offset: 0x32F5E, size: 0x8, addend: 0x0, symName: __ZNSt3__117__compressed_pairIPPNS_16__hash_node_baseIPNS_11__hash_nodeINS_17__hash_value_typeIifEEPvEEEENS_25__bucket_list_deallocatorINS_9allocatorIS9_EEEEE6secondB8ne180100Ev, symObjAddr: 0x3404, symBinAddr: 0x100004954, symSize: 0x28 }
  - { offset: 0x32F84, size: 0x8, addend: 0x0, symName: __ZNSt3__125__bucket_list_deallocatorINS_9allocatorIPNS_16__hash_node_baseIPNS_11__hash_nodeINS_17__hash_value_typeIifEEPvEEEEEEEclB8ne180100EPSA_, symObjAddr: 0x342C, symBinAddr: 0x10000497C, symSize: 0x58 }
  - { offset: 0x32FB9, size: 0x8, addend: 0x0, symName: __ZNSt3__122__compressed_pair_elemIPPNS_16__hash_node_baseIPNS_11__hash_nodeINS_17__hash_value_typeIifEEPvEEEELi0ELb0EE5__getB8ne180100Ev, symObjAddr: 0x3484, symBinAddr: 0x1000049D4, symSize: 0x14 }
  - { offset: 0x32FDF, size: 0x8, addend: 0x0, symName: __ZNSt3__122__compressed_pair_elemINS_25__bucket_list_deallocatorINS_9allocatorIPNS_16__hash_node_baseIPNS_11__hash_nodeINS_17__hash_value_typeIifEEPvEEEEEEEELi1ELb0EE5__getB8ne180100Ev, symObjAddr: 0x3498, symBinAddr: 0x1000049E8, symSize: 0x14 }
  - { offset: 0x33005, size: 0x8, addend: 0x0, symName: __ZNSt3__116allocator_traitsINS_9allocatorIPNS_16__hash_node_baseIPNS_11__hash_nodeINS_17__hash_value_typeIifEEPvEEEEEEE10deallocateB8ne180100ERSB_PSA_m, symObjAddr: 0x34AC, symBinAddr: 0x1000049FC, symSize: 0x34 }
  - { offset: 0x33047, size: 0x8, addend: 0x0, symName: __ZNSt3__125__bucket_list_deallocatorINS_9allocatorIPNS_16__hash_node_baseIPNS_11__hash_nodeINS_17__hash_value_typeIifEEPvEEEEEEE7__allocB8ne180100Ev, symObjAddr: 0x34E0, symBinAddr: 0x100004A30, symSize: 0x24 }
  - { offset: 0x3306D, size: 0x8, addend: 0x0, symName: __ZNSt3__19allocatorIPNS_16__hash_node_baseIPNS_11__hash_nodeINS_17__hash_value_typeIifEEPvEEEEE10deallocateB8ne180100EPS9_m, symObjAddr: 0x3504, symBinAddr: 0x100004A54, symSize: 0x40 }
  - { offset: 0x330AF, size: 0x8, addend: 0x0, symName: __ZNSt3__117__compressed_pairImNS_9allocatorIPNS_16__hash_node_baseIPNS_11__hash_nodeINS_17__hash_value_typeIifEEPvEEEEEEE6secondB8ne180100Ev, symObjAddr: 0x35C0, symBinAddr: 0x100004B10, symSize: 0x24 }
  - { offset: 0x330D5, size: 0x8, addend: 0x0, symName: __ZNSt3__122__compressed_pair_elemINS_9allocatorIPNS_16__hash_node_baseIPNS_11__hash_nodeINS_17__hash_value_typeIifEEPvEEEEEELi1ELb1EE5__getB8ne180100Ev, symObjAddr: 0x35E4, symBinAddr: 0x100004B34, symSize: 0x14 }
  - { offset: 0x330FB, size: 0x8, addend: 0x0, symName: __ZNSt3__112__hash_tableINS_17__hash_value_typeIifEENS_22__unordered_map_hasherIiS2_NS_4hashIiEENS_8equal_toIiEELb1EEENS_21__unordered_map_equalIiS2_S7_S5_Lb1EEENS_9allocatorIS2_EEE8__rehashILb1EEEvm, symObjAddr: 0x35F8, symBinAddr: 0x100004B48, symSize: 0x194 }
  - { offset: 0x33149, size: 0x8, addend: 0x0, symName: __ZNKSt3__112__hash_tableINS_17__hash_value_typeIifEENS_22__unordered_map_hasherIiS2_NS_4hashIiEENS_8equal_toIiEELb1EEENS_21__unordered_map_equalIiS2_S7_S5_Lb1EEENS_9allocatorIS2_EEE12bucket_countB8ne180100Ev, symObjAddr: 0x378C, symBinAddr: 0x100004CDC, symSize: 0x28 }
  - { offset: 0x3316F, size: 0x8, addend: 0x0, symName: __ZNSt3__112__hash_tableINS_17__hash_value_typeIifEENS_22__unordered_map_hasherIiS2_NS_4hashIiEENS_8equal_toIiEELb1EEENS_21__unordered_map_equalIiS2_S7_S5_Lb1EEENS_9allocatorIS2_EEE11__do_rehashILb1EEEvm, symObjAddr: 0x37B4, symBinAddr: 0x100004D04, symSize: 0x260 }
  - { offset: 0x33250, size: 0x8, addend: 0x0, symName: __ZNSt3__112__hash_tableINS_17__hash_value_typeIifEENS_22__unordered_map_hasherIiS2_NS_4hashIiEENS_8equal_toIiEELb1EEENS_21__unordered_map_equalIiS2_S7_S5_Lb1EEENS_9allocatorIS2_EEE4sizeB8ne180100Ev, symObjAddr: 0x3B0C, symBinAddr: 0x10000505C, symSize: 0x28 }
  - { offset: 0x33276, size: 0x8, addend: 0x0, symName: __ZNSt3__112__hash_tableINS_17__hash_value_typeIifEENS_22__unordered_map_hasherIiS2_NS_4hashIiEENS_8equal_toIiEELb1EEENS_21__unordered_map_equalIiS2_S7_S5_Lb1EEENS_9allocatorIS2_EEE15max_load_factorB8ne180100Ev, symObjAddr: 0x3B34, symBinAddr: 0x100005084, symSize: 0x28 }
  - { offset: 0x3329C, size: 0x8, addend: 0x0, symName: __ZNKSt3__125__bucket_list_deallocatorINS_9allocatorIPNS_16__hash_node_baseIPNS_11__hash_nodeINS_17__hash_value_typeIifEEPvEEEEEEE4sizeB8ne180100Ev, symObjAddr: 0x3B5C, symBinAddr: 0x1000050AC, symSize: 0x28 }
  - { offset: 0x332C2, size: 0x8, addend: 0x0, symName: __ZNKSt3__117__compressed_pairImNS_9allocatorIPNS_16__hash_node_baseIPNS_11__hash_nodeINS_17__hash_value_typeIifEEPvEEEEEEE5firstB8ne180100Ev, symObjAddr: 0x3B84, symBinAddr: 0x1000050D4, symSize: 0x24 }
  - { offset: 0x332E8, size: 0x8, addend: 0x0, symName: __ZNKSt3__122__compressed_pair_elemImLi0ELb0EE5__getB8ne180100Ev, symObjAddr: 0x3BA8, symBinAddr: 0x1000050F8, symSize: 0x14 }
  - { offset: 0x3330E, size: 0x8, addend: 0x0, symName: __ZNSt3__110unique_ptrIA_PNS_16__hash_node_baseIPNS_11__hash_nodeINS_17__hash_value_typeIifEEPvEEEENS_25__bucket_list_deallocatorINS_9allocatorIS9_EEEEE11get_deleterB8ne180100Ev, symObjAddr: 0x3BBC, symBinAddr: 0x10000510C, symSize: 0x24 }
  - { offset: 0x33334, size: 0x8, addend: 0x0, symName: __ZNSt3__110unique_ptrIA_PNS_16__hash_node_baseIPNS_11__hash_nodeINS_17__hash_value_typeIifEEPvEEEENS_25__bucket_list_deallocatorINS_9allocatorIS9_EEEEE5resetB8ne180100IPS9_TnNS_9enable_ifIXsr28_CheckArrayPointerConversionIT_EE5valueEiE4typeELi0EEEvSJ_, symObjAddr: 0x3BE0, symBinAddr: 0x100005130, symSize: 0x70 }
  - { offset: 0x33387, size: 0x8, addend: 0x0, symName: __ZNSt3__116allocator_traitsINS_9allocatorIPNS_16__hash_node_baseIPNS_11__hash_nodeINS_17__hash_value_typeIifEEPvEEEEEEE8allocateB8ne180100ERSB_m, symObjAddr: 0x3C50, symBinAddr: 0x1000051A0, symSize: 0x2C }
  - { offset: 0x333BA, size: 0x8, addend: 0x0, symName: __ZNKSt3__110unique_ptrIA_PNS_16__hash_node_baseIPNS_11__hash_nodeINS_17__hash_value_typeIifEEPvEEEENS_25__bucket_list_deallocatorINS_9allocatorIS9_EEEEEixB8ne180100Em, symObjAddr: 0x3C7C, symBinAddr: 0x1000051CC, symSize: 0x34 }
  - { offset: 0x333EF, size: 0x8, addend: 0x0, symName: __ZNSt3__117__compressed_pairINS_16__hash_node_baseIPNS_11__hash_nodeINS_17__hash_value_typeIifEEPvEEEENS_9allocatorIS6_EEE5firstB8ne180100Ev, symObjAddr: 0x3CB0, symBinAddr: 0x100005200, symSize: 0x24 }
  - { offset: 0x33415, size: 0x8, addend: 0x0, symName: __ZNSt3__116__hash_node_baseIPNS_11__hash_nodeINS_17__hash_value_typeIifEEPvEEE5__ptrB8ne180100Ev, symObjAddr: 0x3CD4, symBinAddr: 0x100005224, symSize: 0x24 }
  - { offset: 0x3343B, size: 0x8, addend: 0x0, symName: __ZNKSt3__116__hash_node_baseIPNS_11__hash_nodeINS_17__hash_value_typeIifEEPvEEE6__hashB8ne180100Ev, symObjAddr: 0x3D88, symBinAddr: 0x1000052D8, symSize: 0x18 }
  - { offset: 0x33461, size: 0x8, addend: 0x0, symName: __ZNSt3__19allocatorIPNS_16__hash_node_baseIPNS_11__hash_nodeINS_17__hash_value_typeIifEEPvEEEEE8allocateB8ne180100Em, symObjAddr: 0x3DA0, symBinAddr: 0x1000052F0, symSize: 0x54 }
  - { offset: 0x33495, size: 0x8, addend: 0x0, symName: __ZNSt3__116allocator_traitsINS_9allocatorIPNS_16__hash_node_baseIPNS_11__hash_nodeINS_17__hash_value_typeIifEEPvEEEEEEE8max_sizeB8ne180100ISB_vEEmRKSB_, symObjAddr: 0x3DF4, symBinAddr: 0x100005344, symSize: 0x24 }
  - { offset: 0x334C3, size: 0x8, addend: 0x0, symName: __ZNKSt3__19allocatorIPNS_16__hash_node_baseIPNS_11__hash_nodeINS_17__hash_value_typeIifEEPvEEEEE8max_sizeB8ne180100Ev, symObjAddr: 0x3E74, symBinAddr: 0x1000053C4, symSize: 0x14 }
  - { offset: 0x334E9, size: 0x8, addend: 0x0, symName: __ZNKSt3__117__compressed_pairIPPNS_16__hash_node_baseIPNS_11__hash_nodeINS_17__hash_value_typeIifEEPvEEEENS_25__bucket_list_deallocatorINS_9allocatorIS9_EEEEE5firstB8ne180100Ev, symObjAddr: 0x3EAC, symBinAddr: 0x1000053FC, symSize: 0x24 }
  - { offset: 0x3350F, size: 0x8, addend: 0x0, symName: __ZNKSt3__122__compressed_pair_elemIPPNS_16__hash_node_baseIPNS_11__hash_nodeINS_17__hash_value_typeIifEEPvEEEELi0ELb0EE5__getB8ne180100Ev, symObjAddr: 0x3ED0, symBinAddr: 0x100005420, symSize: 0x14 }
  - { offset: 0x33535, size: 0x8, addend: 0x0, symName: __ZNSt3__122__compressed_pair_elemINS_16__hash_node_baseIPNS_11__hash_nodeINS_17__hash_value_typeIifEEPvEEEELi0ELb0EE5__getB8ne180100Ev, symObjAddr: 0x3EE4, symBinAddr: 0x100005434, symSize: 0x14 }
  - { offset: 0x3355B, size: 0x8, addend: 0x0, symName: __ZNSt3__114pointer_traitsIPNS_16__hash_node_baseIPNS_11__hash_nodeINS_17__hash_value_typeIifEEPvEEEEE10pointer_toB8ne180100ERS8_, symObjAddr: 0x3EF8, symBinAddr: 0x100005448, symSize: 0x14 }
  - { offset: 0x33588, size: 0x8, addend: 0x0, symName: __ZNKSt3__16__lessIvvEclB8ne180100ImmEEbRKT_RKT0_, symObjAddr: 0x3F60, symBinAddr: 0x1000054B0, symSize: 0x30 }
  - { offset: 0x335DC, size: 0x8, addend: 0x0, symName: __ZNSt3__117__compressed_pairImNS_22__unordered_map_hasherIiNS_17__hash_value_typeIifEENS_4hashIiEENS_8equal_toIiEELb1EEEE5firstB8ne180100Ev, symObjAddr: 0x3FAC, symBinAddr: 0x1000054FC, symSize: 0x24 }
  - { offset: 0x33602, size: 0x8, addend: 0x0, symName: __ZNSt3__117__compressed_pairIfNS_21__unordered_map_equalIiNS_17__hash_value_typeIifEENS_8equal_toIiEENS_4hashIiEELb1EEEE5firstB8ne180100Ev, symObjAddr: 0x3FD0, symBinAddr: 0x100005520, symSize: 0x24 }
  - { offset: 0x33628, size: 0x8, addend: 0x0, symName: __ZNSt3__122__compressed_pair_elemIfLi0ELb0EE5__getB8ne180100Ev, symObjAddr: 0x3FF4, symBinAddr: 0x100005544, symSize: 0x14 }
  - { offset: 0x3364E, size: 0x8, addend: 0x0, symName: __ZNSt3__112__hash_tableINS_17__hash_value_typeIifEENS_22__unordered_map_hasherIiS2_NS_4hashIiEENS_8equal_toIiEELb1EEENS_21__unordered_map_equalIiS2_S7_S5_Lb1EEENS_9allocatorIS2_EEE15__insert_uniqueB8ne180100ERKNS_4pairIKifEE, symObjAddr: 0x4034, symBinAddr: 0x100005584, symSize: 0x50 }
  - { offset: 0x33683, size: 0x8, addend: 0x0, symName: __ZNKSt3__125__hash_map_const_iteratorINS_21__hash_const_iteratorIPNS_11__hash_nodeINS_17__hash_value_typeIifEEPvEEEEEdeB8ne180100Ev, symObjAddr: 0x4084, symBinAddr: 0x1000055D4, symSize: 0x28 }
  - { offset: 0x336A9, size: 0x8, addend: 0x0, symName: __ZNSt3__125__hash_map_const_iteratorINS_21__hash_const_iteratorIPNS_11__hash_nodeINS_17__hash_value_typeIifEEPvEEEEEppB8ne180100Ev, symObjAddr: 0x40AC, symBinAddr: 0x1000055FC, symSize: 0x2C }
  - { offset: 0x336CF, size: 0x8, addend: 0x0, symName: __ZNSt3__112__hash_tableINS_17__hash_value_typeIifEENS_22__unordered_map_hasherIiS2_NS_4hashIiEENS_8equal_toIiEELb1EEENS_21__unordered_map_equalIiS2_S7_S5_Lb1EEENS_9allocatorIS2_EEE25__emplace_unique_key_argsIiJRKNS_4pairIKifEEEEENSF_INS_15__hash_iteratorIPNS_11__hash_nodeIS2_PvEEEEbEERKT_DpOT0_, symObjAddr: 0x4134, symBinAddr: 0x100005684, symSize: 0x464 }
  - { offset: 0x337AD, size: 0x8, addend: 0x0, symName: __ZNSt3__122__hash_key_value_typesINS_17__hash_value_typeIifEEE9__get_keyB8ne180100ERKNS_4pairIKifEE, symObjAddr: 0x4598, symBinAddr: 0x100005AE8, symSize: 0x14 }
  - { offset: 0x337D0, size: 0x8, addend: 0x0, symName: __ZNSt3__112__hash_tableINS_17__hash_value_typeIifEENS_22__unordered_map_hasherIiS2_NS_4hashIiEENS_8equal_toIiEELb1EEENS_21__unordered_map_equalIiS2_S7_S5_Lb1EEENS_9allocatorIS2_EEE13hash_functionB8ne180100Ev, symObjAddr: 0x45AC, symBinAddr: 0x100005AFC, symSize: 0x28 }
  - { offset: 0x337F6, size: 0x8, addend: 0x0, symName: __ZNKSt3__122__unordered_map_hasherIiNS_17__hash_value_typeIifEENS_4hashIiEENS_8equal_toIiEELb1EEclB8ne180100ERKi, symObjAddr: 0x45D4, symBinAddr: 0x100005B24, symSize: 0x30 }
  - { offset: 0x3382B, size: 0x8, addend: 0x0, symName: __ZNSt3__112__hash_tableINS_17__hash_value_typeIifEENS_22__unordered_map_hasherIiS2_NS_4hashIiEENS_8equal_toIiEELb1EEENS_21__unordered_map_equalIiS2_S7_S5_Lb1EEENS_9allocatorIS2_EEE6key_eqB8ne180100Ev, symObjAddr: 0x4604, symBinAddr: 0x100005B54, symSize: 0x28 }
  - { offset: 0x33851, size: 0x8, addend: 0x0, symName: __ZNKSt3__121__unordered_map_equalIiNS_17__hash_value_typeIifEENS_8equal_toIiEENS_4hashIiEELb1EEclB8ne180100ERKS2_RKi, symObjAddr: 0x462C, symBinAddr: 0x100005B7C, symSize: 0x44 }
  - { offset: 0x33895, size: 0x8, addend: 0x0, symName: __ZNSt3__116__hash_node_baseIPNS_11__hash_nodeINS_17__hash_value_typeIifEEPvEEE8__upcastB8ne180100Ev, symObjAddr: 0x4670, symBinAddr: 0x100005BC0, symSize: 0x24 }
  - { offset: 0x338BB, size: 0x8, addend: 0x0, symName: __ZNSt3__111__hash_nodeINS_17__hash_value_typeIifEEPvE11__get_valueB8ne180100Ev, symObjAddr: 0x4694, symBinAddr: 0x100005BE4, symSize: 0x18 }
  - { offset: 0x338E1, size: 0x8, addend: 0x0, symName: __ZNSt3__112__hash_tableINS_17__hash_value_typeIifEENS_22__unordered_map_hasherIiS2_NS_4hashIiEENS_8equal_toIiEELb1EEENS_21__unordered_map_equalIiS2_S7_S5_Lb1EEENS_9allocatorIS2_EEE21__construct_node_hashIRKNS_4pairIKifEEJEEENS_10unique_ptrINS_11__hash_nodeIS2_PvEENS_22__hash_node_destructorINSB_ISN_EEEEEEmOT_DpOT0_, symObjAddr: 0x46AC, symBinAddr: 0x100005BFC, symSize: 0x13C }
  - { offset: 0x33952, size: 0x8, addend: 0x0, symName: __ZNKSt3__110unique_ptrINS_11__hash_nodeINS_17__hash_value_typeIifEEPvEENS_22__hash_node_destructorINS_9allocatorIS5_EEEEEptB8ne180100Ev, symObjAddr: 0x47E8, symBinAddr: 0x100005D38, symSize: 0x28 }
  - { offset: 0x33978, size: 0x8, addend: 0x0, symName: __ZNKSt3__110unique_ptrINS_11__hash_nodeINS_17__hash_value_typeIifEEPvEENS_22__hash_node_destructorINS_9allocatorIS5_EEEEE3getB8ne180100Ev, symObjAddr: 0x4810, symBinAddr: 0x100005D60, symSize: 0x28 }
  - { offset: 0x3399E, size: 0x8, addend: 0x0, symName: __ZNSt3__110unique_ptrINS_11__hash_nodeINS_17__hash_value_typeIifEEPvEENS_22__hash_node_destructorINS_9allocatorIS5_EEEEE7releaseB8ne180100Ev, symObjAddr: 0x4838, symBinAddr: 0x100005D88, symSize: 0x44 }
  - { offset: 0x339D3, size: 0x8, addend: 0x0, symName: __ZNSt3__110unique_ptrINS_11__hash_nodeINS_17__hash_value_typeIifEEPvEENS_22__hash_node_destructorINS_9allocatorIS5_EEEEED1B8ne180100Ev, symObjAddr: 0x487C, symBinAddr: 0x100005DCC, symSize: 0x2C }
  - { offset: 0x339FD, size: 0x8, addend: 0x0, symName: __ZNSt3__115__hash_iteratorIPNS_11__hash_nodeINS_17__hash_value_typeIifEEPvEEEC1B8ne180100EPNS_16__hash_node_baseIS6_EE, symObjAddr: 0x48A8, symBinAddr: 0x100005DF8, symSize: 0x34 }
  - { offset: 0x33A42, size: 0x8, addend: 0x0, symName: __ZNSt3__14pairINS_15__hash_iteratorIPNS_11__hash_nodeINS_17__hash_value_typeIifEEPvEEEEbEC1B8ne180100IS8_RbTnNS_9enable_ifIXclsr10_CheckArgsE17__enable_implicitIT_T0_EEEiE4typeELi0EEEOSD_OSE_, symObjAddr: 0x48DC, symBinAddr: 0x100005E2C, symSize: 0x3C }
  - { offset: 0x33AA0, size: 0x8, addend: 0x0, symName: __ZNSt3__117__compressed_pairImNS_22__unordered_map_hasherIiNS_17__hash_value_typeIifEENS_4hashIiEENS_8equal_toIiEELb1EEEE6secondB8ne180100Ev, symObjAddr: 0x4918, symBinAddr: 0x100005E68, symSize: 0x24 }
  - { offset: 0x33AC6, size: 0x8, addend: 0x0, symName: __ZNSt3__122__compressed_pair_elemINS_22__unordered_map_hasherIiNS_17__hash_value_typeIifEENS_4hashIiEENS_8equal_toIiEELb1EEELi1ELb1EE5__getB8ne180100Ev, symObjAddr: 0x493C, symBinAddr: 0x100005E8C, symSize: 0x14 }
  - { offset: 0x33AEC, size: 0x8, addend: 0x0, symName: __ZNKSt3__14hashIiEclB8ne180100Ei, symObjAddr: 0x4950, symBinAddr: 0x100005EA0, symSize: 0x18 }
  - { offset: 0x33B21, size: 0x8, addend: 0x0, symName: __ZNSt3__117__compressed_pairIfNS_21__unordered_map_equalIiNS_17__hash_value_typeIifEENS_8equal_toIiEENS_4hashIiEELb1EEEE6secondB8ne180100Ev, symObjAddr: 0x4968, symBinAddr: 0x100005EB8, symSize: 0x24 }
  - { offset: 0x33B47, size: 0x8, addend: 0x0, symName: __ZNSt3__122__compressed_pair_elemINS_21__unordered_map_equalIiNS_17__hash_value_typeIifEENS_8equal_toIiEENS_4hashIiEELb1EEELi1ELb1EE5__getB8ne180100Ev, symObjAddr: 0x498C, symBinAddr: 0x100005EDC, symSize: 0x14 }
  - { offset: 0x33B6D, size: 0x8, addend: 0x0, symName: __ZNKSt3__18equal_toIiEclB8ne180100ERKiS3_, symObjAddr: 0x49A0, symBinAddr: 0x100005EF0, symSize: 0x30 }
  - { offset: 0x33BB1, size: 0x8, addend: 0x0, symName: __ZNKSt3__117__hash_value_typeIifE11__get_valueB8ne180100Ev, symObjAddr: 0x49D0, symBinAddr: 0x100005F20, symSize: 0x14 }
  - { offset: 0x33BD7, size: 0x8, addend: 0x0, symName: __ZNSt3__112__hash_tableINS_17__hash_value_typeIifEENS_22__unordered_map_hasherIiS2_NS_4hashIiEENS_8equal_toIiEELb1EEENS_21__unordered_map_equalIiS2_S7_S5_Lb1EEENS_9allocatorIS2_EEE12__node_allocB8ne180100Ev, symObjAddr: 0x49E4, symBinAddr: 0x100005F34, symSize: 0x28 }
  - { offset: 0x33BFD, size: 0x8, addend: 0x0, symName: __ZNSt3__116allocator_traitsINS_9allocatorINS_11__hash_nodeINS_17__hash_value_typeIifEEPvEEEEE8allocateB8ne180100ERS7_m, symObjAddr: 0x4A0C, symBinAddr: 0x100005F5C, symSize: 0x2C }
  - { offset: 0x33C30, size: 0x8, addend: 0x0, symName: __ZNSt3__122__hash_node_destructorINS_9allocatorINS_11__hash_nodeINS_17__hash_value_typeIifEEPvEEEEEC1B8ne180100ERS7_b, symObjAddr: 0x4A38, symBinAddr: 0x100005F88, symSize: 0x40 }
  - { offset: 0x33C7E, size: 0x8, addend: 0x0, symName: __ZNSt3__110unique_ptrINS_11__hash_nodeINS_17__hash_value_typeIifEEPvEENS_22__hash_node_destructorINS_9allocatorIS5_EEEEEC1B8ne180100ILb1EvEEPS5_NS_16__dependent_typeINS_27__unique_ptr_deleter_sfinaeIS9_EEXT_EE20__good_rval_ref_typeE, symObjAddr: 0x4A78, symBinAddr: 0x100005FC8, symSize: 0x3C }
  - { offset: 0x33CCF, size: 0x8, addend: 0x0, symName: __ZNKSt3__110unique_ptrINS_11__hash_nodeINS_17__hash_value_typeIifEEPvEENS_22__hash_node_destructorINS_9allocatorIS5_EEEEEdeB8ne180100Ev, symObjAddr: 0x4AFC, symBinAddr: 0x10000604C, symSize: 0x28 }
  - { offset: 0x33CF5, size: 0x8, addend: 0x0, symName: __ZNSt3__116allocator_traitsINS_9allocatorINS_11__hash_nodeINS_17__hash_value_typeIifEEPvEEEEE9constructB8ne180100INS_4pairIKifEEJRKSC_EvEEvRS7_PT_DpOT0_, symObjAddr: 0x4B24, symBinAddr: 0x100006074, symSize: 0x34 }
  - { offset: 0x33D4C, size: 0x8, addend: 0x0, symName: __ZNSt3__122__hash_key_value_typesINS_17__hash_value_typeIifEEE9__get_ptrB8ne180100ERS2_, symObjAddr: 0x4B58, symBinAddr: 0x1000060A8, symSize: 0x24 }
  - { offset: 0x33D6F, size: 0x8, addend: 0x0, symName: __ZNSt3__110unique_ptrINS_11__hash_nodeINS_17__hash_value_typeIifEEPvEENS_22__hash_node_destructorINS_9allocatorIS5_EEEEE11get_deleterB8ne180100Ev, symObjAddr: 0x4B7C, symBinAddr: 0x1000060CC, symSize: 0x24 }
  - { offset: 0x33D95, size: 0x8, addend: 0x0, symName: __ZNSt3__117__compressed_pairINS_16__hash_node_baseIPNS_11__hash_nodeINS_17__hash_value_typeIifEEPvEEEENS_9allocatorIS6_EEE6secondB8ne180100Ev, symObjAddr: 0x4BA0, symBinAddr: 0x1000060F0, symSize: 0x24 }
  - { offset: 0x33DBB, size: 0x8, addend: 0x0, symName: __ZNSt3__122__compressed_pair_elemINS_9allocatorINS_11__hash_nodeINS_17__hash_value_typeIifEEPvEEEELi1ELb1EE5__getB8ne180100Ev, symObjAddr: 0x4BC4, symBinAddr: 0x100006114, symSize: 0x14 }
  - { offset: 0x33DE1, size: 0x8, addend: 0x0, symName: __ZNSt3__19allocatorINS_11__hash_nodeINS_17__hash_value_typeIifEEPvEEE8allocateB8ne180100Em, symObjAddr: 0x4BD8, symBinAddr: 0x100006128, symSize: 0x58 }
  - { offset: 0x33E15, size: 0x8, addend: 0x0, symName: __ZNSt3__116allocator_traitsINS_9allocatorINS_11__hash_nodeINS_17__hash_value_typeIifEEPvEEEEE8max_sizeB8ne180100IS7_vEEmRKS7_, symObjAddr: 0x4C30, symBinAddr: 0x100006180, symSize: 0x24 }
  - { offset: 0x33E43, size: 0x8, addend: 0x0, symName: __ZNKSt3__19allocatorINS_11__hash_nodeINS_17__hash_value_typeIifEEPvEEE8max_sizeB8ne180100Ev, symObjAddr: 0x4C54, symBinAddr: 0x1000061A4, symSize: 0x18 }
  - { offset: 0x33E69, size: 0x8, addend: 0x0, symName: __ZNSt3__122__hash_node_destructorINS_9allocatorINS_11__hash_nodeINS_17__hash_value_typeIifEEPvEEEEEC2B8ne180100ERS7_b, symObjAddr: 0x4C6C, symBinAddr: 0x1000061BC, symSize: 0x30 }
  - { offset: 0x33EB1, size: 0x8, addend: 0x0, symName: __ZNSt3__110unique_ptrINS_11__hash_nodeINS_17__hash_value_typeIifEEPvEENS_22__hash_node_destructorINS_9allocatorIS5_EEEEEC2B8ne180100ILb1EvEEPS5_NS_16__dependent_typeINS_27__unique_ptr_deleter_sfinaeIS9_EEXT_EE20__good_rval_ref_typeE, symObjAddr: 0x4C9C, symBinAddr: 0x1000061EC, symSize: 0x48 }
  - { offset: 0x33F02, size: 0x8, addend: 0x0, symName: __ZNSt3__117__compressed_pairIPNS_11__hash_nodeINS_17__hash_value_typeIifEEPvEENS_22__hash_node_destructorINS_9allocatorIS5_EEEEEC1B8ne180100IRS6_SA_EEOT_OT0_, symObjAddr: 0x4CE4, symBinAddr: 0x100006234, symSize: 0x3C }
  - { offset: 0x33F5A, size: 0x8, addend: 0x0, symName: __ZNSt3__117__compressed_pairIPNS_11__hash_nodeINS_17__hash_value_typeIifEEPvEENS_22__hash_node_destructorINS_9allocatorIS5_EEEEEC2B8ne180100IRS6_SA_EEOT_OT0_, symObjAddr: 0x4D20, symBinAddr: 0x100006270, symSize: 0x48 }
  - { offset: 0x33FB2, size: 0x8, addend: 0x0, symName: __ZNSt3__122__compressed_pair_elemIPNS_11__hash_nodeINS_17__hash_value_typeIifEEPvEELi0ELb0EEC2B8ne180100IRS6_vEEOT_, symObjAddr: 0x4D68, symBinAddr: 0x1000062B8, symSize: 0x24 }
  - { offset: 0x33FF4, size: 0x8, addend: 0x0, symName: __ZNSt3__122__compressed_pair_elemINS_22__hash_node_destructorINS_9allocatorINS_11__hash_nodeINS_17__hash_value_typeIifEEPvEEEEEELi1ELb0EEC2B8ne180100IS9_vEEOT_, symObjAddr: 0x4D8C, symBinAddr: 0x1000062DC, symSize: 0x24 }
  - { offset: 0x34036, size: 0x8, addend: 0x0, symName: __ZNSt3__111__hash_nodeINS_17__hash_value_typeIifEEPvEC1B8ne180100EPNS_16__hash_node_baseIPS4_EEm, symObjAddr: 0x4DB0, symBinAddr: 0x100006300, symSize: 0x3C }
  - { offset: 0x3407C, size: 0x8, addend: 0x0, symName: __ZNSt3__111__hash_nodeINS_17__hash_value_typeIifEEPvEC2B8ne180100EPNS_16__hash_node_baseIPS4_EEm, symObjAddr: 0x4DEC, symBinAddr: 0x10000633C, symSize: 0x40 }
  - { offset: 0x340C2, size: 0x8, addend: 0x0, symName: __ZNSt3__116__hash_node_baseIPNS_11__hash_nodeINS_17__hash_value_typeIifEEPvEEEC2B8ne180100EPS7_, symObjAddr: 0x4E2C, symBinAddr: 0x10000637C, symSize: 0x20 }
  - { offset: 0x340FA, size: 0x8, addend: 0x0, symName: __ZNKSt3__117__compressed_pairIPNS_11__hash_nodeINS_17__hash_value_typeIifEEPvEENS_22__hash_node_destructorINS_9allocatorIS5_EEEEE5firstB8ne180100Ev, symObjAddr: 0x4E4C, symBinAddr: 0x10000639C, symSize: 0x24 }
  - { offset: 0x34120, size: 0x8, addend: 0x0, symName: __ZNKSt3__122__compressed_pair_elemIPNS_11__hash_nodeINS_17__hash_value_typeIifEEPvEELi0ELb0EE5__getB8ne180100Ev, symObjAddr: 0x4E70, symBinAddr: 0x1000063C0, symSize: 0x14 }
  - { offset: 0x34146, size: 0x8, addend: 0x0, symName: __ZNSt3__19allocatorINS_11__hash_nodeINS_17__hash_value_typeIifEEPvEEE9constructB8ne180100INS_4pairIKifEEJRKSA_EEEvPT_DpOT0_, symObjAddr: 0x4E84, symBinAddr: 0x1000063D4, symSize: 0x28 }
  - { offset: 0x3419C, size: 0x8, addend: 0x0, symName: __ZNSt3__117__hash_value_typeIifE11__get_valueB8ne180100Ev, symObjAddr: 0x4EAC, symBinAddr: 0x1000063FC, symSize: 0x14 }
  - { offset: 0x341C2, size: 0x8, addend: 0x0, symName: __ZNSt3__117__compressed_pairIPNS_11__hash_nodeINS_17__hash_value_typeIifEEPvEENS_22__hash_node_destructorINS_9allocatorIS5_EEEEE6secondB8ne180100Ev, symObjAddr: 0x4EC0, symBinAddr: 0x100006410, symSize: 0x28 }
  - { offset: 0x341E8, size: 0x8, addend: 0x0, symName: __ZNSt3__122__compressed_pair_elemINS_22__hash_node_destructorINS_9allocatorINS_11__hash_nodeINS_17__hash_value_typeIifEEPvEEEEEELi1ELb0EE5__getB8ne180100Ev, symObjAddr: 0x4EE8, symBinAddr: 0x100006438, symSize: 0x14 }
  - { offset: 0x3420E, size: 0x8, addend: 0x0, symName: __ZNSt3__117__compressed_pairIPNS_11__hash_nodeINS_17__hash_value_typeIifEEPvEENS_22__hash_node_destructorINS_9allocatorIS5_EEEEE5firstB8ne180100Ev, symObjAddr: 0x4EFC, symBinAddr: 0x10000644C, symSize: 0x24 }
  - { offset: 0x34234, size: 0x8, addend: 0x0, symName: __ZNSt3__122__compressed_pair_elemIPNS_11__hash_nodeINS_17__hash_value_typeIifEEPvEELi0ELb0EE5__getB8ne180100Ev, symObjAddr: 0x4F20, symBinAddr: 0x100006470, symSize: 0x14 }
  - { offset: 0x3425A, size: 0x8, addend: 0x0, symName: __ZNSt3__110unique_ptrINS_11__hash_nodeINS_17__hash_value_typeIifEEPvEENS_22__hash_node_destructorINS_9allocatorIS5_EEEEED2B8ne180100Ev, symObjAddr: 0x4F34, symBinAddr: 0x100006484, symSize: 0x30 }
  - { offset: 0x34284, size: 0x8, addend: 0x0, symName: __ZNSt3__110unique_ptrINS_11__hash_nodeINS_17__hash_value_typeIifEEPvEENS_22__hash_node_destructorINS_9allocatorIS5_EEEEE5resetB8ne180100EPS5_, symObjAddr: 0x4F64, symBinAddr: 0x1000064B4, symSize: 0x70 }
  - { offset: 0x342C8, size: 0x8, addend: 0x0, symName: __ZNSt3__122__hash_node_destructorINS_9allocatorINS_11__hash_nodeINS_17__hash_value_typeIifEEPvEEEEEclB8ne180100EPS6_, symObjAddr: 0x4FD4, symBinAddr: 0x100006524, symSize: 0x9C }
  - { offset: 0x342FD, size: 0x8, addend: 0x0, symName: __ZNSt3__116allocator_traitsINS_9allocatorINS_11__hash_nodeINS_17__hash_value_typeIifEEPvEEEEE7destroyB8ne180100INS_4pairIKifEEvvEEvRS7_PT_, symObjAddr: 0x5070, symBinAddr: 0x1000065C0, symSize: 0x28 }
  - { offset: 0x34337, size: 0x8, addend: 0x0, symName: __ZNSt3__116allocator_traitsINS_9allocatorINS_11__hash_nodeINS_17__hash_value_typeIifEEPvEEEEE10deallocateB8ne180100ERS7_PS6_m, symObjAddr: 0x50BC, symBinAddr: 0x10000660C, symSize: 0x34 }
  - { offset: 0x34379, size: 0x8, addend: 0x0, symName: __ZNSt3__111__hash_nodeINS_17__hash_value_typeIifEEPvED1B8ne180100Ev, symObjAddr: 0x5100, symBinAddr: 0x100006650, symSize: 0x2C }
  - { offset: 0x343A3, size: 0x8, addend: 0x0, symName: __ZNSt3__111__hash_nodeINS_17__hash_value_typeIifEEPvED2B8ne180100Ev, symObjAddr: 0x512C, symBinAddr: 0x10000667C, symSize: 0x14 }
  - { offset: 0x343CD, size: 0x8, addend: 0x0, symName: __ZNSt3__19allocatorINS_11__hash_nodeINS_17__hash_value_typeIifEEPvEEE10deallocateB8ne180100EPS5_m, symObjAddr: 0x5140, symBinAddr: 0x100006690, symSize: 0x44 }
  - { offset: 0x3440F, size: 0x8, addend: 0x0, symName: __ZNSt3__115__hash_iteratorIPNS_11__hash_nodeINS_17__hash_value_typeIifEEPvEEEC2B8ne180100EPNS_16__hash_node_baseIS6_EE, symObjAddr: 0x5184, symBinAddr: 0x1000066D4, symSize: 0x20 }
  - { offset: 0x34448, size: 0x8, addend: 0x0, symName: __ZNSt3__14pairINS_15__hash_iteratorIPNS_11__hash_nodeINS_17__hash_value_typeIifEEPvEEEEbEC2B8ne180100IS8_RbTnNS_9enable_ifIXclsr10_CheckArgsE17__enable_implicitIT_T0_EEEiE4typeELi0EEEOSD_OSE_, symObjAddr: 0x51A4, symBinAddr: 0x1000066F4, symSize: 0x38 }
  - { offset: 0x344A6, size: 0x8, addend: 0x0, symName: __ZNKSt3__121__hash_const_iteratorIPNS_11__hash_nodeINS_17__hash_value_typeIifEEPvEEEptB8ne180100Ev, symObjAddr: 0x51DC, symBinAddr: 0x10000672C, symSize: 0x30 }
  - { offset: 0x344CC, size: 0x8, addend: 0x0, symName: __ZNSt3__114pointer_traitsIPKNS_17__hash_value_typeIifEEE10pointer_toB8ne180100ERS3_, symObjAddr: 0x520C, symBinAddr: 0x10000675C, symSize: 0x14 }
  - { offset: 0x344EF, size: 0x8, addend: 0x0, symName: __ZNSt3__121__hash_const_iteratorIPNS_11__hash_nodeINS_17__hash_value_typeIifEEPvEEEppB8ne180100Ev, symObjAddr: 0x5220, symBinAddr: 0x100006770, symSize: 0x20 }
  - { offset: 0x34515, size: 0x8, addend: 0x0, symName: __ZNKSt3__112__hash_tableINS_17__hash_value_typeIifEENS_22__unordered_map_hasherIiS2_NS_4hashIiEENS_8equal_toIiEELb1EEENS_21__unordered_map_equalIiS2_S7_S5_Lb1EEENS_9allocatorIS2_EEE5beginEv, symObjAddr: 0x5240, symBinAddr: 0x100006790, symSize: 0x38 }
  - { offset: 0x3453D, size: 0x8, addend: 0x0, symName: __ZNSt3__125__hash_map_const_iteratorINS_21__hash_const_iteratorIPNS_11__hash_nodeINS_17__hash_value_typeIifEEPvEEEEEC1B8ne180100ES8_, symObjAddr: 0x5278, symBinAddr: 0x1000067C8, symSize: 0x34 }
  - { offset: 0x34576, size: 0x8, addend: 0x0, symName: __ZNKSt3__117__compressed_pairINS_16__hash_node_baseIPNS_11__hash_nodeINS_17__hash_value_typeIifEEPvEEEENS_9allocatorIS6_EEE5firstB8ne180100Ev, symObjAddr: 0x52AC, symBinAddr: 0x1000067FC, symSize: 0x24 }
  - { offset: 0x3459C, size: 0x8, addend: 0x0, symName: __ZNSt3__121__hash_const_iteratorIPNS_11__hash_nodeINS_17__hash_value_typeIifEEPvEEEC1B8ne180100EPNS_16__hash_node_baseIS6_EE, symObjAddr: 0x52D0, symBinAddr: 0x100006820, symSize: 0x34 }
  - { offset: 0x345D5, size: 0x8, addend: 0x0, symName: __ZNKSt3__122__compressed_pair_elemINS_16__hash_node_baseIPNS_11__hash_nodeINS_17__hash_value_typeIifEEPvEEEELi0ELb0EE5__getB8ne180100Ev, symObjAddr: 0x5304, symBinAddr: 0x100006854, symSize: 0x14 }
  - { offset: 0x345FB, size: 0x8, addend: 0x0, symName: __ZNSt3__121__hash_const_iteratorIPNS_11__hash_nodeINS_17__hash_value_typeIifEEPvEEEC2B8ne180100EPNS_16__hash_node_baseIS6_EE, symObjAddr: 0x5318, symBinAddr: 0x100006868, symSize: 0x20 }
  - { offset: 0x34634, size: 0x8, addend: 0x0, symName: __ZNSt3__125__hash_map_const_iteratorINS_21__hash_const_iteratorIPNS_11__hash_nodeINS_17__hash_value_typeIifEEPvEEEEEC2B8ne180100ES8_, symObjAddr: 0x5338, symBinAddr: 0x100006888, symSize: 0x20 }
  - { offset: 0x3466D, size: 0x8, addend: 0x0, symName: __ZNKSt3__112__hash_tableINS_17__hash_value_typeIifEENS_22__unordered_map_hasherIiS2_NS_4hashIiEENS_8equal_toIiEELb1EEENS_21__unordered_map_equalIiS2_S7_S5_Lb1EEENS_9allocatorIS2_EEE3endEv, symObjAddr: 0x5358, symBinAddr: 0x1000068A8, symSize: 0x2C }
  - { offset: 0x34695, size: 0x8, addend: 0x0, symName: __ZNSt3__112__hash_tableINS_17__hash_value_typeIifEENS_22__unordered_map_hasherIiS2_NS_4hashIiEENS_8equal_toIiEELb1EEENS_21__unordered_map_equalIiS2_S7_S5_Lb1EEENS_9allocatorIS2_EEED2Ev, symObjAddr: 0x5384, symBinAddr: 0x1000068D4, symSize: 0x48 }
  - { offset: 0x346C1, size: 0x8, addend: 0x0, symName: __ZNSt3__112__hash_tableINS_17__hash_value_typeIifEENS_22__unordered_map_hasherIiS2_NS_4hashIiEENS_8equal_toIiEELb1EEENS_21__unordered_map_equalIiS2_S7_S5_Lb1EEENS_9allocatorIS2_EEE17__deallocate_nodeEPNS_16__hash_node_baseIPNS_11__hash_nodeIS2_PvEEEE, symObjAddr: 0x53CC, symBinAddr: 0x10000691C, symSize: 0xA8 }
  - { offset: 0x3472B, size: 0x8, addend: 0x0, symName: __ZN10opt_paramsD2Ev, symObjAddr: 0x5474, symBinAddr: 0x1000069C4, symSize: 0x30 }
  - { offset: 0x34757, size: 0x8, addend: 0x0, symName: __ZNSt3__113unordered_mapIifNS_4hashIiEENS_8equal_toIiEENS_9allocatorINS_4pairIKifEEEEED1B8ne180100Ev, symObjAddr: 0x54A4, symBinAddr: 0x1000069F4, symSize: 0x2C }
  - { offset: 0x34781, size: 0x8, addend: 0x0, symName: __ZNSt3__113unordered_mapIifNS_4hashIiEENS_8equal_toIiEENS_9allocatorINS_4pairIKifEEEEED2B8ne180100Ev, symObjAddr: 0x54D0, symBinAddr: 0x100006A20, symSize: 0x2C }
  - { offset: 0x347AB, size: 0x8, addend: 0x0, symName: __ZN20Fp32LlamaForCausalLMD2Ev, symObjAddr: 0x54FC, symBinAddr: 0x100006A4C, symSize: 0x44 }
  - { offset: 0x347D7, size: 0x8, addend: 0x0, symName: __ZN9Linear_FPD1Ev, symObjAddr: 0x5540, symBinAddr: 0x100006A90, symSize: 0x2C }
  - { offset: 0x34803, size: 0x8, addend: 0x0, symName: __ZN16Fp32llamaDecoderD1Ev, symObjAddr: 0x556C, symBinAddr: 0x100006ABC, symSize: 0x2C }
  - { offset: 0x3482F, size: 0x8, addend: 0x0, symName: __ZN9Linear_FPD2Ev, symObjAddr: 0x5598, symBinAddr: 0x100006AE8, symSize: 0x30 }
  - { offset: 0x3485B, size: 0x8, addend: 0x0, symName: __ZN16Fp32llamaDecoderD2Ev, symObjAddr: 0x55C8, symBinAddr: 0x100006B18, symSize: 0x50 }
  - { offset: 0x34887, size: 0x8, addend: 0x0, symName: __ZNSt3__16vectorI21Fp32llamaDecoderLayerNS_9allocatorIS1_EEED1B8ne180100Ev, symObjAddr: 0x5618, symBinAddr: 0x100006B68, symSize: 0x2C }
  - { offset: 0x348B1, size: 0x8, addend: 0x0, symName: __ZN12LlamaRMSNormD1Ev, symObjAddr: 0x5644, symBinAddr: 0x100006B94, symSize: 0x2C }
  - { offset: 0x348DD, size: 0x8, addend: 0x0, symName: __ZN9EmbeddingD1Ev, symObjAddr: 0x5670, symBinAddr: 0x100006BC0, symSize: 0x2C }
  - { offset: 0x34909, size: 0x8, addend: 0x0, symName: __ZNSt3__16vectorI21Fp32llamaDecoderLayerNS_9allocatorIS1_EEED2B8ne180100Ev, symObjAddr: 0x569C, symBinAddr: 0x100006BEC, symSize: 0x44 }
  - { offset: 0x34933, size: 0x8, addend: 0x0, symName: __ZNSt3__16vectorI21Fp32llamaDecoderLayerNS_9allocatorIS1_EEE16__destroy_vectorC1B8ne180100ERS4_, symObjAddr: 0x56E0, symBinAddr: 0x100006C30, symSize: 0x34 }
  - { offset: 0x3496C, size: 0x8, addend: 0x0, symName: __ZNSt3__16vectorI21Fp32llamaDecoderLayerNS_9allocatorIS1_EEE16__destroy_vectorclB8ne180100Ev, symObjAddr: 0x5714, symBinAddr: 0x100006C64, symSize: 0x88 }
  - { offset: 0x34992, size: 0x8, addend: 0x0, symName: __ZNSt3__16vectorI21Fp32llamaDecoderLayerNS_9allocatorIS1_EEE16__destroy_vectorC2B8ne180100ERS4_, symObjAddr: 0x579C, symBinAddr: 0x100006CEC, symSize: 0x20 }
  - { offset: 0x349CB, size: 0x8, addend: 0x0, symName: __ZNSt3__16vectorI21Fp32llamaDecoderLayerNS_9allocatorIS1_EEE7__clearB8ne180100Ev, symObjAddr: 0x57BC, symBinAddr: 0x100006D0C, symSize: 0x28 }
  - { offset: 0x349F1, size: 0x8, addend: 0x0, symName: __ZNKSt3__16vectorI21Fp32llamaDecoderLayerNS_9allocatorIS1_EEE17__annotate_deleteB8ne180100Ev, symObjAddr: 0x57E4, symBinAddr: 0x100006D34, symSize: 0x10 }
  - { offset: 0x34A17, size: 0x8, addend: 0x0, symName: __ZNSt3__116allocator_traitsINS_9allocatorI21Fp32llamaDecoderLayerEEE10deallocateB8ne180100ERS3_PS2_m, symObjAddr: 0x57F4, symBinAddr: 0x100006D44, symSize: 0x34 }
  - { offset: 0x34A59, size: 0x8, addend: 0x0, symName: __ZNSt3__16vectorI21Fp32llamaDecoderLayerNS_9allocatorIS1_EEE7__allocB8ne180100Ev, symObjAddr: 0x5828, symBinAddr: 0x100006D78, symSize: 0x28 }
  - { offset: 0x34A7F, size: 0x8, addend: 0x0, symName: __ZNKSt3__16vectorI21Fp32llamaDecoderLayerNS_9allocatorIS1_EEE8capacityB8ne180100Ev, symObjAddr: 0x5850, symBinAddr: 0x100006DA0, symSize: 0x40 }
  - { offset: 0x34AA5, size: 0x8, addend: 0x0, symName: __ZNSt3__16vectorI21Fp32llamaDecoderLayerNS_9allocatorIS1_EEE22__base_destruct_at_endB8ne180100EPS1_, symObjAddr: 0x5890, symBinAddr: 0x100006DE0, symSize: 0x88 }
  - { offset: 0x34AE9, size: 0x8, addend: 0x0, symName: __ZNSt3__116allocator_traitsINS_9allocatorI21Fp32llamaDecoderLayerEEE7destroyB8ne180100IS2_vEEvRS3_PT_, symObjAddr: 0x5918, symBinAddr: 0x100006E68, symSize: 0x2C }
  - { offset: 0x34B26, size: 0x8, addend: 0x0, symName: __ZNSt3__19allocatorI21Fp32llamaDecoderLayerE7destroyB8ne180100EPS1_, symObjAddr: 0x5958, symBinAddr: 0x100006EA8, symSize: 0x28 }
  - { offset: 0x34B5A, size: 0x8, addend: 0x0, symName: __ZN21Fp32llamaDecoderLayerD1Ev, symObjAddr: 0x5980, symBinAddr: 0x100006ED0, symSize: 0x2C }
  - { offset: 0x34B86, size: 0x8, addend: 0x0, symName: __ZN21Fp32llamaDecoderLayerD2Ev, symObjAddr: 0x59AC, symBinAddr: 0x100006EFC, symSize: 0x78 }
  - { offset: 0x34BB2, size: 0x8, addend: 0x0, symName: __ZN18Fp32llamaAttentionD1Ev, symObjAddr: 0x5A24, symBinAddr: 0x100006F74, symSize: 0x2C }
  - { offset: 0x34BDE, size: 0x8, addend: 0x0, symName: __ZN18Fp32llamaAttentionD2Ev, symObjAddr: 0x5A50, symBinAddr: 0x100006FA0, symSize: 0x84 }
  - { offset: 0x34C0A, size: 0x8, addend: 0x0, symName: __ZN8BMM_F32TD1Ev, symObjAddr: 0x5AD4, symBinAddr: 0x100007024, symSize: 0x2C }
  - { offset: 0x34C36, size: 0x8, addend: 0x0, symName: __ZN12RotaryPosEmbD1Ev, symObjAddr: 0x5B00, symBinAddr: 0x100007050, symSize: 0x2C }
  - { offset: 0x34C62, size: 0x8, addend: 0x0, symName: __ZN8BMM_F32TD2Ev, symObjAddr: 0x5B2C, symBinAddr: 0x10000707C, symSize: 0x30 }
  - { offset: 0x34C8E, size: 0x8, addend: 0x0, symName: __ZN12RotaryPosEmbD2Ev, symObjAddr: 0x5B5C, symBinAddr: 0x1000070AC, symSize: 0x30 }
  - { offset: 0x34CBA, size: 0x8, addend: 0x0, symName: __ZNSt3__19allocatorI21Fp32llamaDecoderLayerE10deallocateB8ne180100EPS1_m, symObjAddr: 0x5B8C, symBinAddr: 0x1000070DC, symSize: 0x44 }
  - { offset: 0x34CFC, size: 0x8, addend: 0x0, symName: __ZNSt3__117__compressed_pairIP21Fp32llamaDecoderLayerNS_9allocatorIS1_EEE6secondB8ne180100Ev, symObjAddr: 0x5BD0, symBinAddr: 0x100007120, symSize: 0x24 }
  - { offset: 0x34D22, size: 0x8, addend: 0x0, symName: __ZNSt3__122__compressed_pair_elemINS_9allocatorI21Fp32llamaDecoderLayerEELi1ELb1EE5__getB8ne180100Ev, symObjAddr: 0x5BF4, symBinAddr: 0x100007144, symSize: 0x14 }
  - { offset: 0x34D48, size: 0x8, addend: 0x0, symName: __ZNKSt3__16vectorI21Fp32llamaDecoderLayerNS_9allocatorIS1_EEE9__end_capB8ne180100Ev, symObjAddr: 0x5C08, symBinAddr: 0x100007158, symSize: 0x28 }
  - { offset: 0x34D6E, size: 0x8, addend: 0x0, symName: __ZNKSt3__117__compressed_pairIP21Fp32llamaDecoderLayerNS_9allocatorIS1_EEE5firstB8ne180100Ev, symObjAddr: 0x5C30, symBinAddr: 0x100007180, symSize: 0x24 }
  - { offset: 0x34D94, size: 0x8, addend: 0x0, symName: __ZNKSt3__122__compressed_pair_elemIP21Fp32llamaDecoderLayerLi0ELb0EE5__getB8ne180100Ev, symObjAddr: 0x5C54, symBinAddr: 0x1000071A4, symSize: 0x14 }
  - { offset: 0x34DBA, size: 0x8, addend: 0x0, symName: __ZN12LlamaRMSNormD2Ev, symObjAddr: 0x5C68, symBinAddr: 0x1000071B8, symSize: 0x30 }
  - { offset: 0x34DE6, size: 0x8, addend: 0x0, symName: __ZN9EmbeddingD2Ev, symObjAddr: 0x5C98, symBinAddr: 0x1000071E8, symSize: 0x30 }
  - { offset: 0x34E12, size: 0x8, addend: 0x0, symName: __ZN20Int4LlamaForCausalLMD2Ev, symObjAddr: 0x5CC8, symBinAddr: 0x100007218, symSize: 0x44 }
  - { offset: 0x34E3E, size: 0x8, addend: 0x0, symName: __ZN14Linear_FP_int4D1Ev, symObjAddr: 0x5D0C, symBinAddr: 0x10000725C, symSize: 0x2C }
  - { offset: 0x34E6A, size: 0x8, addend: 0x0, symName: __ZN16Int4llamaDecoderD1Ev, symObjAddr: 0x5D38, symBinAddr: 0x100007288, symSize: 0x2C }
  - { offset: 0x34E96, size: 0x8, addend: 0x0, symName: __ZN14Linear_FP_int4D2Ev, symObjAddr: 0x5D64, symBinAddr: 0x1000072B4, symSize: 0x30 }
  - { offset: 0x34EC2, size: 0x8, addend: 0x0, symName: __ZN16Int4llamaDecoderD2Ev, symObjAddr: 0x5D94, symBinAddr: 0x1000072E4, symSize: 0x50 }
  - { offset: 0x34EEE, size: 0x8, addend: 0x0, symName: __ZNSt3__16vectorI21Int4llamaDecoderLayerNS_9allocatorIS1_EEED1B8ne180100Ev, symObjAddr: 0x5DE4, symBinAddr: 0x100007334, symSize: 0x2C }
  - { offset: 0x34F18, size: 0x8, addend: 0x0, symName: __ZNSt3__16vectorI21Int4llamaDecoderLayerNS_9allocatorIS1_EEED2B8ne180100Ev, symObjAddr: 0x5E10, symBinAddr: 0x100007360, symSize: 0x44 }
  - { offset: 0x34F42, size: 0x8, addend: 0x0, symName: __ZNSt3__16vectorI21Int4llamaDecoderLayerNS_9allocatorIS1_EEE16__destroy_vectorC1B8ne180100ERS4_, symObjAddr: 0x5E54, symBinAddr: 0x1000073A4, symSize: 0x34 }
  - { offset: 0x34F7B, size: 0x8, addend: 0x0, symName: __ZNSt3__16vectorI21Int4llamaDecoderLayerNS_9allocatorIS1_EEE16__destroy_vectorclB8ne180100Ev, symObjAddr: 0x5E88, symBinAddr: 0x1000073D8, symSize: 0x88 }
  - { offset: 0x34FA1, size: 0x8, addend: 0x0, symName: __ZNSt3__16vectorI21Int4llamaDecoderLayerNS_9allocatorIS1_EEE16__destroy_vectorC2B8ne180100ERS4_, symObjAddr: 0x5F10, symBinAddr: 0x100007460, symSize: 0x20 }
  - { offset: 0x34FDA, size: 0x8, addend: 0x0, symName: __ZNSt3__16vectorI21Int4llamaDecoderLayerNS_9allocatorIS1_EEE7__clearB8ne180100Ev, symObjAddr: 0x5F30, symBinAddr: 0x100007480, symSize: 0x28 }
  - { offset: 0x35000, size: 0x8, addend: 0x0, symName: __ZNKSt3__16vectorI21Int4llamaDecoderLayerNS_9allocatorIS1_EEE17__annotate_deleteB8ne180100Ev, symObjAddr: 0x5F58, symBinAddr: 0x1000074A8, symSize: 0x10 }
  - { offset: 0x35026, size: 0x8, addend: 0x0, symName: __ZNSt3__116allocator_traitsINS_9allocatorI21Int4llamaDecoderLayerEEE10deallocateB8ne180100ERS3_PS2_m, symObjAddr: 0x5F68, symBinAddr: 0x1000074B8, symSize: 0x34 }
  - { offset: 0x35068, size: 0x8, addend: 0x0, symName: __ZNSt3__16vectorI21Int4llamaDecoderLayerNS_9allocatorIS1_EEE7__allocB8ne180100Ev, symObjAddr: 0x5F9C, symBinAddr: 0x1000074EC, symSize: 0x28 }
  - { offset: 0x3508E, size: 0x8, addend: 0x0, symName: __ZNKSt3__16vectorI21Int4llamaDecoderLayerNS_9allocatorIS1_EEE8capacityB8ne180100Ev, symObjAddr: 0x5FC4, symBinAddr: 0x100007514, symSize: 0x40 }
  - { offset: 0x350B4, size: 0x8, addend: 0x0, symName: __ZNSt3__16vectorI21Int4llamaDecoderLayerNS_9allocatorIS1_EEE22__base_destruct_at_endB8ne180100EPS1_, symObjAddr: 0x6004, symBinAddr: 0x100007554, symSize: 0x88 }
  - { offset: 0x350F8, size: 0x8, addend: 0x0, symName: __ZNSt3__116allocator_traitsINS_9allocatorI21Int4llamaDecoderLayerEEE7destroyB8ne180100IS2_vEEvRS3_PT_, symObjAddr: 0x608C, symBinAddr: 0x1000075DC, symSize: 0x2C }
  - { offset: 0x35135, size: 0x8, addend: 0x0, symName: __ZNSt3__19allocatorI21Int4llamaDecoderLayerE7destroyB8ne180100EPS1_, symObjAddr: 0x60CC, symBinAddr: 0x10000761C, symSize: 0x28 }
  - { offset: 0x35169, size: 0x8, addend: 0x0, symName: __ZN21Int4llamaDecoderLayerD1Ev, symObjAddr: 0x60F4, symBinAddr: 0x100007644, symSize: 0x2C }
  - { offset: 0x35195, size: 0x8, addend: 0x0, symName: __ZN21Int4llamaDecoderLayerD2Ev, symObjAddr: 0x6120, symBinAddr: 0x100007670, symSize: 0x78 }
  - { offset: 0x351C1, size: 0x8, addend: 0x0, symName: __ZN18Int4llamaAttentionD1Ev, symObjAddr: 0x6198, symBinAddr: 0x1000076E8, symSize: 0x2C }
  - { offset: 0x351ED, size: 0x8, addend: 0x0, symName: __ZN18Int4llamaAttentionD2Ev, symObjAddr: 0x61C4, symBinAddr: 0x100007714, symSize: 0x84 }
  - { offset: 0x35219, size: 0x8, addend: 0x0, symName: __ZNSt3__19allocatorI21Int4llamaDecoderLayerE10deallocateB8ne180100EPS1_m, symObjAddr: 0x6248, symBinAddr: 0x100007798, symSize: 0x44 }
  - { offset: 0x3525B, size: 0x8, addend: 0x0, symName: __ZNSt3__117__compressed_pairIP21Int4llamaDecoderLayerNS_9allocatorIS1_EEE6secondB8ne180100Ev, symObjAddr: 0x628C, symBinAddr: 0x1000077DC, symSize: 0x24 }
  - { offset: 0x35281, size: 0x8, addend: 0x0, symName: __ZNSt3__122__compressed_pair_elemINS_9allocatorI21Int4llamaDecoderLayerEELi1ELb1EE5__getB8ne180100Ev, symObjAddr: 0x62B0, symBinAddr: 0x100007800, symSize: 0x14 }
  - { offset: 0x352A7, size: 0x8, addend: 0x0, symName: __ZNKSt3__16vectorI21Int4llamaDecoderLayerNS_9allocatorIS1_EEE9__end_capB8ne180100Ev, symObjAddr: 0x62C4, symBinAddr: 0x100007814, symSize: 0x28 }
  - { offset: 0x352CD, size: 0x8, addend: 0x0, symName: __ZNKSt3__117__compressed_pairIP21Int4llamaDecoderLayerNS_9allocatorIS1_EEE5firstB8ne180100Ev, symObjAddr: 0x62EC, symBinAddr: 0x10000783C, symSize: 0x24 }
  - { offset: 0x352F3, size: 0x8, addend: 0x0, symName: __ZNKSt3__122__compressed_pair_elemIP21Int4llamaDecoderLayerLi0ELb0EE5__getB8ne180100Ev, symObjAddr: 0x6310, symBinAddr: 0x100007860, symSize: 0x14 }
  - { offset: 0x35319, size: 0x8, addend: 0x0, symName: __ZN14OPTForCausalLMC2ERKS_, symObjAddr: 0x6324, symBinAddr: 0x100007874, symSize: 0xBC }
  - { offset: 0x35359, size: 0x8, addend: 0x0, symName: __ZN14Int8OPTDecoderC1ERKS_, symObjAddr: 0x63E0, symBinAddr: 0x100007930, symSize: 0x34 }
  - { offset: 0x35399, size: 0x8, addend: 0x0, symName: __ZN9Linear_FPC1ERKS_, symObjAddr: 0x6414, symBinAddr: 0x100007964, symSize: 0x34 }
  - { offset: 0x353CE, size: 0x8, addend: 0x0, symName: __ZN14Int8OPTDecoderD1Ev, symObjAddr: 0x6448, symBinAddr: 0x100007998, symSize: 0x2C }
  - { offset: 0x353FA, size: 0x8, addend: 0x0, symName: __ZN14Int8OPTDecoderC2ERKS_, symObjAddr: 0x6474, symBinAddr: 0x1000079C4, symSize: 0x140 }
  - { offset: 0x3543A, size: 0x8, addend: 0x0, symName: __ZN9EmbeddingC1ERKS_, symObjAddr: 0x65B4, symBinAddr: 0x100007B04, symSize: 0x34 }
  - { offset: 0x3546F, size: 0x8, addend: 0x0, symName: __ZNSt3__16vectorI19Int8OPTDecoderLayerNS_9allocatorIS1_EEEC1ERKS4_, symObjAddr: 0x65E8, symBinAddr: 0x100007B38, symSize: 0x34 }
  - { offset: 0x354B5, size: 0x8, addend: 0x0, symName: __ZN9LayerNormC1ERKS_, symObjAddr: 0x661C, symBinAddr: 0x100007B6C, symSize: 0x34 }
  - { offset: 0x354EA, size: 0x8, addend: 0x0, symName: __ZN9LayerNormD1Ev, symObjAddr: 0x6650, symBinAddr: 0x100007BA0, symSize: 0x2C }
  - { offset: 0x35516, size: 0x8, addend: 0x0, symName: __ZNSt3__16vectorI19Int8OPTDecoderLayerNS_9allocatorIS1_EEED1B8ne180100Ev, symObjAddr: 0x667C, symBinAddr: 0x100007BCC, symSize: 0x2C }
  - { offset: 0x35540, size: 0x8, addend: 0x0, symName: __ZN9EmbeddingC2ERKS_, symObjAddr: 0x66A8, symBinAddr: 0x100007BF8, symSize: 0x4C }
  - { offset: 0x35575, size: 0x8, addend: 0x0, symName: __ZNSt3__16vectorI19Int8OPTDecoderLayerNS_9allocatorIS1_EEEC2ERKS4_, symObjAddr: 0x66F4, symBinAddr: 0x100007C44, symSize: 0x94 }
  - { offset: 0x355BB, size: 0x8, addend: 0x0, symName: __ZNSt3__116allocator_traitsINS_9allocatorI19Int8OPTDecoderLayerEEE37select_on_container_copy_constructionB8ne180100IS3_vvEES3_RKS3_, symObjAddr: 0x6788, symBinAddr: 0x100007CD8, symSize: 0x10 }
  - { offset: 0x355EA, size: 0x8, addend: 0x0, symName: __ZNKSt3__16vectorI19Int8OPTDecoderLayerNS_9allocatorIS1_EEE7__allocB8ne180100Ev, symObjAddr: 0x6798, symBinAddr: 0x100007CE8, symSize: 0x28 }
  - { offset: 0x35616, size: 0x8, addend: 0x0, symName: __ZNSt3__117__compressed_pairIP19Int8OPTDecoderLayerNS_9allocatorIS1_EEEC1B8ne180100IDnS4_EEOT_OT0_, symObjAddr: 0x67C0, symBinAddr: 0x100007D10, symSize: 0x3C }
  - { offset: 0x3566E, size: 0x8, addend: 0x0, symName: __ZNSt3__16vectorI19Int8OPTDecoderLayerNS_9allocatorIS1_EEE16__init_with_sizeB8ne180100IPS1_S6_EEvT_T0_m, symObjAddr: 0x67FC, symBinAddr: 0x100007D4C, symSize: 0xB4 }
  - { offset: 0x356E2, size: 0x8, addend: 0x0, symName: __ZNKSt3__16vectorI19Int8OPTDecoderLayerNS_9allocatorIS1_EEE4sizeB8ne180100Ev, symObjAddr: 0x68B0, symBinAddr: 0x100007E00, symSize: 0x28 }
  - { offset: 0x35708, size: 0x8, addend: 0x0, symName: __ZNKSt3__117__compressed_pairIP19Int8OPTDecoderLayerNS_9allocatorIS1_EEE6secondB8ne180100Ev, symObjAddr: 0x68D8, symBinAddr: 0x100007E28, symSize: 0x24 }
  - { offset: 0x3572E, size: 0x8, addend: 0x0, symName: __ZNKSt3__122__compressed_pair_elemINS_9allocatorI19Int8OPTDecoderLayerEELi1ELb1EE5__getB8ne180100Ev, symObjAddr: 0x68FC, symBinAddr: 0x100007E4C, symSize: 0x14 }
  - { offset: 0x35754, size: 0x8, addend: 0x0, symName: __ZNSt3__117__compressed_pairIP19Int8OPTDecoderLayerNS_9allocatorIS1_EEEC2B8ne180100IDnS4_EEOT_OT0_, symObjAddr: 0x6910, symBinAddr: 0x100007E60, symSize: 0x44 }
  - { offset: 0x357AC, size: 0x8, addend: 0x0, symName: __ZNSt3__122__compressed_pair_elemIP19Int8OPTDecoderLayerLi0ELb0EEC2B8ne180100IDnvEEOT_, symObjAddr: 0x6954, symBinAddr: 0x100007EA4, symSize: 0x1C }
  - { offset: 0x357EE, size: 0x8, addend: 0x0, symName: __ZNSt3__122__compressed_pair_elemINS_9allocatorI19Int8OPTDecoderLayerEELi1ELb1EEC2B8ne180100IS3_vEEOT_, symObjAddr: 0x6970, symBinAddr: 0x100007EC0, symSize: 0x18 }
  - { offset: 0x35830, size: 0x8, addend: 0x0, symName: __ZNSt3__16vectorI19Int8OPTDecoderLayerNS_9allocatorIS1_EEE16__destroy_vectorC1B8ne180100ERS4_, symObjAddr: 0x69C8, symBinAddr: 0x100007F18, symSize: 0x34 }
  - { offset: 0x35869, size: 0x8, addend: 0x0, symName: __ZNSt3__16vectorI19Int8OPTDecoderLayerNS_9allocatorIS1_EEE11__vallocateB8ne180100Em, symObjAddr: 0x69FC, symBinAddr: 0x100007F4C, symSize: 0xB0 }
  - { offset: 0x358AD, size: 0x8, addend: 0x0, symName: __ZNSt3__16vectorI19Int8OPTDecoderLayerNS_9allocatorIS1_EEE18__construct_at_endIPS1_S6_EEvT_T0_m, symObjAddr: 0x6AAC, symBinAddr: 0x100007FFC, symSize: 0x8C }
  - { offset: 0x35921, size: 0x8, addend: 0x0, symName: __ZNSt3__128__exception_guard_exceptionsINS_6vectorI19Int8OPTDecoderLayerNS_9allocatorIS2_EEE16__destroy_vectorEE10__completeB8ne180100Ev, symObjAddr: 0x6B38, symBinAddr: 0x100008088, symSize: 0x1C }
  - { offset: 0x35947, size: 0x8, addend: 0x0, symName: __ZNSt3__128__exception_guard_exceptionsINS_6vectorI19Int8OPTDecoderLayerNS_9allocatorIS2_EEE16__destroy_vectorEED1B8ne180100Ev, symObjAddr: 0x6B54, symBinAddr: 0x1000080A4, symSize: 0x2C }
  - { offset: 0x35971, size: 0x8, addend: 0x0, symName: __ZNSt3__128__exception_guard_exceptionsINS_6vectorI19Int8OPTDecoderLayerNS_9allocatorIS2_EEE16__destroy_vectorEEC1B8ne180100ES6_, symObjAddr: 0x6B80, symBinAddr: 0x1000080D0, symSize: 0x34 }
  - { offset: 0x359A9, size: 0x8, addend: 0x0, symName: __ZNSt3__128__exception_guard_exceptionsINS_6vectorI19Int8OPTDecoderLayerNS_9allocatorIS2_EEE16__destroy_vectorEEC2B8ne180100ES6_, symObjAddr: 0x6BB4, symBinAddr: 0x100008104, symSize: 0x24 }
  - { offset: 0x359E1, size: 0x8, addend: 0x0, symName: __ZNSt3__16vectorI19Int8OPTDecoderLayerNS_9allocatorIS1_EEE16__destroy_vectorC2B8ne180100ERS4_, symObjAddr: 0x6BD8, symBinAddr: 0x100008128, symSize: 0x20 }
  - { offset: 0x35A1A, size: 0x8, addend: 0x0, symName: __ZNKSt3__16vectorI19Int8OPTDecoderLayerNS_9allocatorIS1_EEE8max_sizeEv, symObjAddr: 0x6BF8, symBinAddr: 0x100008148, symSize: 0x60 }
  - { offset: 0x35A42, size: 0x8, addend: 0x0, symName: __ZNKSt3__16vectorI19Int8OPTDecoderLayerNS_9allocatorIS1_EEE20__throw_length_errorB8ne180100Ev, symObjAddr: 0x6C58, symBinAddr: 0x1000081A8, symSize: 0x1C }
  - { offset: 0x35A68, size: 0x8, addend: 0x0, symName: __ZNSt3__16vectorI19Int8OPTDecoderLayerNS_9allocatorIS1_EEE7__allocB8ne180100Ev, symObjAddr: 0x6CB4, symBinAddr: 0x100008204, symSize: 0x28 }
  - { offset: 0x35A8E, size: 0x8, addend: 0x0, symName: __ZNSt3__16vectorI19Int8OPTDecoderLayerNS_9allocatorIS1_EEE9__end_capB8ne180100Ev, symObjAddr: 0x6CDC, symBinAddr: 0x10000822C, symSize: 0x28 }
  - { offset: 0x35AB4, size: 0x8, addend: 0x0, symName: __ZNKSt3__16vectorI19Int8OPTDecoderLayerNS_9allocatorIS1_EEE14__annotate_newB8ne180100Em, symObjAddr: 0x6D04, symBinAddr: 0x100008254, symSize: 0x14 }
  - { offset: 0x35AE9, size: 0x8, addend: 0x0, symName: __ZNSt3__116allocator_traitsINS_9allocatorI19Int8OPTDecoderLayerEEE8max_sizeB8ne180100IS3_vEEmRKS3_, symObjAddr: 0x6D44, symBinAddr: 0x100008294, symSize: 0x24 }
  - { offset: 0x35B17, size: 0x8, addend: 0x0, symName: __ZNSt3__114numeric_limitsIlE3maxB8ne180100Ev, symObjAddr: 0x6D68, symBinAddr: 0x1000082B8, symSize: 0x14 }
  - { offset: 0x35B2B, size: 0x8, addend: 0x0, symName: __ZNKSt3__19allocatorI19Int8OPTDecoderLayerE8max_sizeB8ne180100Ev, symObjAddr: 0x6DD0, symBinAddr: 0x100008320, symSize: 0x20 }
  - { offset: 0x35B51, size: 0x8, addend: 0x0, symName: __ZNSt3__123__libcpp_numeric_limitsIlLb1EE3maxB8ne180100Ev, symObjAddr: 0x6DF0, symBinAddr: 0x100008340, symSize: 0x8 }
  - { offset: 0x35B65, size: 0x8, addend: 0x0, symName: __ZNSt12length_errorC1B8ne180100EPKc, symObjAddr: 0x6E5C, symBinAddr: 0x1000083AC, symSize: 0x34 }
  - { offset: 0x35B9D, size: 0x8, addend: 0x0, symName: __ZNSt12length_errorC2B8ne180100EPKc, symObjAddr: 0x6E90, symBinAddr: 0x1000083E0, symSize: 0x44 }
  - { offset: 0x35BD5, size: 0x8, addend: 0x0, symName: __ZNSt3__19allocatorI19Int8OPTDecoderLayerE8allocateB8ne180100Em, symObjAddr: 0x6ED4, symBinAddr: 0x100008424, symSize: 0x58 }
  - { offset: 0x35C09, size: 0x8, addend: 0x0, symName: __ZNSt3__117__compressed_pairIP19Int8OPTDecoderLayerNS_9allocatorIS1_EEE6secondB8ne180100Ev, symObjAddr: 0x6F2C, symBinAddr: 0x10000847C, symSize: 0x24 }
  - { offset: 0x35C2F, size: 0x8, addend: 0x0, symName: __ZNSt3__122__compressed_pair_elemINS_9allocatorI19Int8OPTDecoderLayerEELi1ELb1EE5__getB8ne180100Ev, symObjAddr: 0x6F50, symBinAddr: 0x1000084A0, symSize: 0x14 }
  - { offset: 0x35C55, size: 0x8, addend: 0x0, symName: __ZNSt3__117__compressed_pairIP19Int8OPTDecoderLayerNS_9allocatorIS1_EEE5firstB8ne180100Ev, symObjAddr: 0x6F64, symBinAddr: 0x1000084B4, symSize: 0x24 }
  - { offset: 0x35C7B, size: 0x8, addend: 0x0, symName: __ZNSt3__122__compressed_pair_elemIP19Int8OPTDecoderLayerLi0ELb0EE5__getB8ne180100Ev, symObjAddr: 0x6F88, symBinAddr: 0x1000084D8, symSize: 0x14 }
  - { offset: 0x35CBC, size: 0x8, addend: 0x0, symName: __ZNSt3__16vectorI19Int8OPTDecoderLayerNS_9allocatorIS1_EEE21_ConstructTransactionC1B8ne180100ERS4_m, symObjAddr: 0x6F9C, symBinAddr: 0x1000084EC, symSize: 0x3C }
  - { offset: 0x35D04, size: 0x8, addend: 0x0, symName: __ZNSt3__16vectorI19Int8OPTDecoderLayerNS_9allocatorIS1_EEE21_ConstructTransactionD1B8ne180100Ev, symObjAddr: 0x7058, symBinAddr: 0x1000085A8, symSize: 0x2C }
  - { offset: 0x35D2E, size: 0x8, addend: 0x0, symName: __ZNSt3__16vectorI19Int8OPTDecoderLayerNS_9allocatorIS1_EEE21_ConstructTransactionC2B8ne180100ERS4_m, symObjAddr: 0x7084, symBinAddr: 0x1000085D4, symSize: 0x4C }
  - { offset: 0x35D98, size: 0x8, addend: 0x0, symName: __ZNSt3__14pairIP19Int8OPTDecoderLayerS2_EC1B8ne180100IS2_S2_TnNS_9enable_ifIXclsr10_CheckArgsE17__enable_implicitIT_T0_EEEiE4typeELi0EEEOS6_OS7_, symObjAddr: 0x72B8, symBinAddr: 0x100008808, symSize: 0x3C }
  - { offset: 0x35DF6, size: 0x8, addend: 0x0, symName: __ZNSt3__14pairIP19Int8OPTDecoderLayerS2_EC2B8ne180100IS2_S2_TnNS_9enable_ifIXclsr10_CheckArgsE17__enable_implicitIT_T0_EEEiE4typeELi0EEEOS6_OS7_, symObjAddr: 0x72F4, symBinAddr: 0x100008844, symSize: 0x34 }
  - { offset: 0x35E54, size: 0x8, addend: 0x0, symName: __ZNSt3__129_AllocatorDestroyRangeReverseINS_9allocatorI19Int8OPTDecoderLayerEEPS2_EC1B8ne180100ERS3_RS4_S7_, symObjAddr: 0x7374, symBinAddr: 0x1000088C4, symSize: 0x44 }
  - { offset: 0x35EAB, size: 0x8, addend: 0x0, symName: __ZNSt3__116allocator_traitsINS_9allocatorI19Int8OPTDecoderLayerEEE9constructB8ne180100IS2_JRS2_EvEEvRS3_PT_DpOT0_, symObjAddr: 0x73B8, symBinAddr: 0x100008908, symSize: 0x34 }
  - { offset: 0x35F02, size: 0x8, addend: 0x0, symName: __ZNSt3__128__exception_guard_exceptionsINS_29_AllocatorDestroyRangeReverseINS_9allocatorI19Int8OPTDecoderLayerEEPS3_EEE10__completeB8ne180100Ev, symObjAddr: 0x7400, symBinAddr: 0x100008950, symSize: 0x1C }
  - { offset: 0x35F28, size: 0x8, addend: 0x0, symName: __ZNSt3__128__exception_guard_exceptionsINS_29_AllocatorDestroyRangeReverseINS_9allocatorI19Int8OPTDecoderLayerEEPS3_EEED1B8ne180100Ev, symObjAddr: 0x741C, symBinAddr: 0x10000896C, symSize: 0x2C }
  - { offset: 0x35F52, size: 0x8, addend: 0x0, symName: __ZNSt3__128__exception_guard_exceptionsINS_29_AllocatorDestroyRangeReverseINS_9allocatorI19Int8OPTDecoderLayerEEPS3_EEEC1B8ne180100ES6_, symObjAddr: 0x7448, symBinAddr: 0x100008998, symSize: 0x34 }
  - { offset: 0x35F8B, size: 0x8, addend: 0x0, symName: __ZNSt3__128__exception_guard_exceptionsINS_29_AllocatorDestroyRangeReverseINS_9allocatorI19Int8OPTDecoderLayerEEPS3_EEEC2B8ne180100ES6_, symObjAddr: 0x747C, symBinAddr: 0x1000089CC, symSize: 0x30 }
  - { offset: 0x35FC4, size: 0x8, addend: 0x0, symName: __ZNSt3__129_AllocatorDestroyRangeReverseINS_9allocatorI19Int8OPTDecoderLayerEEPS2_EC2B8ne180100ERS3_RS4_S7_, symObjAddr: 0x74AC, symBinAddr: 0x1000089FC, symSize: 0x38 }
  - { offset: 0x3601B, size: 0x8, addend: 0x0, symName: __ZNSt3__19allocatorI19Int8OPTDecoderLayerE9constructB8ne180100IS1_JRS1_EEEvPT_DpOT0_, symObjAddr: 0x74E4, symBinAddr: 0x100008A34, symSize: 0x30 }
  - { offset: 0x36071, size: 0x8, addend: 0x0, symName: __ZN19Int8OPTDecoderLayerC1ERKS_, symObjAddr: 0x7514, symBinAddr: 0x100008A64, symSize: 0x34 }
  - { offset: 0x360A6, size: 0x8, addend: 0x0, symName: __ZN19Int8OPTDecoderLayerC2ERKS_, symObjAddr: 0x7548, symBinAddr: 0x100008A98, symSize: 0x168 }
  - { offset: 0x360E6, size: 0x8, addend: 0x0, symName: __ZN10LayerNormQC1ERKS_, symObjAddr: 0x76B0, symBinAddr: 0x100008C00, symSize: 0x34 }
  - { offset: 0x36126, size: 0x8, addend: 0x0, symName: __ZN18W8A8B8O8LinearReLUC1ERKS_, symObjAddr: 0x76E4, symBinAddr: 0x100008C34, symSize: 0x34 }
  - { offset: 0x36166, size: 0x8, addend: 0x0, symName: __ZN20W8A8BFP32OFP32LinearC1ERKS_, symObjAddr: 0x7718, symBinAddr: 0x100008C68, symSize: 0x34 }
  - { offset: 0x361A6, size: 0x8, addend: 0x0, symName: __ZN16Int8OPTAttentionC1ERKS_, symObjAddr: 0x774C, symBinAddr: 0x100008C9C, symSize: 0x34 }
  - { offset: 0x361DB, size: 0x8, addend: 0x0, symName: __ZN16Int8OPTAttentionD1Ev, symObjAddr: 0x7780, symBinAddr: 0x100008CD0, symSize: 0x2C }
  - { offset: 0x36207, size: 0x8, addend: 0x0, symName: __ZN20W8A8BFP32OFP32LinearD1Ev, symObjAddr: 0x77AC, symBinAddr: 0x100008CFC, symSize: 0x2C }
  - { offset: 0x36233, size: 0x8, addend: 0x0, symName: __ZN18W8A8B8O8LinearReLUD1Ev, symObjAddr: 0x77D8, symBinAddr: 0x100008D28, symSize: 0x2C }
  - { offset: 0x3625F, size: 0x8, addend: 0x0, symName: __ZN10LayerNormQD1Ev, symObjAddr: 0x7804, symBinAddr: 0x100008D54, symSize: 0x2C }
  - { offset: 0x3628B, size: 0x8, addend: 0x0, symName: __ZN10LayerNormQC2ERKS_, symObjAddr: 0x7830, symBinAddr: 0x100008D80, symSize: 0x4C }
  - { offset: 0x362C0, size: 0x8, addend: 0x0, symName: __ZN18W8A8B8O8LinearReLUC2ERKS_, symObjAddr: 0x787C, symBinAddr: 0x100008DCC, symSize: 0x4C }
  - { offset: 0x362F5, size: 0x8, addend: 0x0, symName: __ZN20W8A8BFP32OFP32LinearC2ERKS_, symObjAddr: 0x78C8, symBinAddr: 0x100008E18, symSize: 0x4C }
  - { offset: 0x3632A, size: 0x8, addend: 0x0, symName: __ZN16Int8OPTAttentionC2ERKS_, symObjAddr: 0x7914, symBinAddr: 0x100008E64, symSize: 0x1A8 }
  - { offset: 0x3636A, size: 0x8, addend: 0x0, symName: __ZN16BMM_S8T_S8N_F32TC1ERKS_, symObjAddr: 0x7ABC, symBinAddr: 0x10000900C, symSize: 0x34 }
  - { offset: 0x363AA, size: 0x8, addend: 0x0, symName: __ZN15BMM_S8T_S8N_S8TC1ERKS_, symObjAddr: 0x7AF0, symBinAddr: 0x100009040, symSize: 0x34 }
  - { offset: 0x363EA, size: 0x8, addend: 0x0, symName: __ZN14W8A8B8O8LinearC1ERKS_, symObjAddr: 0x7B24, symBinAddr: 0x100009074, symSize: 0x34 }
  - { offset: 0x3641F, size: 0x8, addend: 0x0, symName: __ZN14W8A8B8O8LinearD1Ev, symObjAddr: 0x7B58, symBinAddr: 0x1000090A8, symSize: 0x2C }
  - { offset: 0x3644B, size: 0x8, addend: 0x0, symName: __ZN15BMM_S8T_S8N_S8TD1Ev, symObjAddr: 0x7B84, symBinAddr: 0x1000090D4, symSize: 0x2C }
  - { offset: 0x36477, size: 0x8, addend: 0x0, symName: __ZN16BMM_S8T_S8N_F32TD1Ev, symObjAddr: 0x7BB0, symBinAddr: 0x100009100, symSize: 0x2C }
  - { offset: 0x364A3, size: 0x8, addend: 0x0, symName: __ZN16BMM_S8T_S8N_F32TC2ERKS_, symObjAddr: 0x7BDC, symBinAddr: 0x10000912C, symSize: 0x4C }
  - { offset: 0x364D8, size: 0x8, addend: 0x0, symName: __ZN15BMM_S8T_S8N_S8TC2ERKS_, symObjAddr: 0x7C28, symBinAddr: 0x100009178, symSize: 0x4C }
  - { offset: 0x3650D, size: 0x8, addend: 0x0, symName: __ZN14W8A8B8O8LinearC2ERKS_, symObjAddr: 0x7C74, symBinAddr: 0x1000091C4, symSize: 0x4C }
  - { offset: 0x36542, size: 0x8, addend: 0x0, symName: __ZN14W8A8B8O8LinearD2Ev, symObjAddr: 0x7CC0, symBinAddr: 0x100009210, symSize: 0x30 }
  - { offset: 0x3656E, size: 0x8, addend: 0x0, symName: __ZN15BMM_S8T_S8N_S8TD2Ev, symObjAddr: 0x7CF0, symBinAddr: 0x100009240, symSize: 0x30 }
  - { offset: 0x3659A, size: 0x8, addend: 0x0, symName: __ZN16BMM_S8T_S8N_F32TD2Ev, symObjAddr: 0x7D20, symBinAddr: 0x100009270, symSize: 0x30 }
  - { offset: 0x365C6, size: 0x8, addend: 0x0, symName: __ZN16Int8OPTAttentionD2Ev, symObjAddr: 0x7D50, symBinAddr: 0x1000092A0, symSize: 0x78 }
  - { offset: 0x365F2, size: 0x8, addend: 0x0, symName: __ZN20W8A8BFP32OFP32LinearD2Ev, symObjAddr: 0x7DC8, symBinAddr: 0x100009318, symSize: 0x30 }
  - { offset: 0x3661E, size: 0x8, addend: 0x0, symName: __ZN18W8A8B8O8LinearReLUD2Ev, symObjAddr: 0x7DF8, symBinAddr: 0x100009348, symSize: 0x30 }
  - { offset: 0x3664A, size: 0x8, addend: 0x0, symName: __ZN10LayerNormQD2Ev, symObjAddr: 0x7E28, symBinAddr: 0x100009378, symSize: 0x30 }
  - { offset: 0x36676, size: 0x8, addend: 0x0, symName: __ZNSt3__128__exception_guard_exceptionsINS_29_AllocatorDestroyRangeReverseINS_9allocatorI19Int8OPTDecoderLayerEEPS3_EEED2B8ne180100Ev, symObjAddr: 0x7E58, symBinAddr: 0x1000093A8, symSize: 0x50 }
  - { offset: 0x366A0, size: 0x8, addend: 0x0, symName: __ZNKSt3__129_AllocatorDestroyRangeReverseINS_9allocatorI19Int8OPTDecoderLayerEEPS2_EclB8ne180100Ev, symObjAddr: 0x7EA8, symBinAddr: 0x1000093F8, symSize: 0x68 }
  - { offset: 0x366C6, size: 0x8, addend: 0x0, symName: __ZNSt3__116reverse_iteratorIP19Int8OPTDecoderLayerEC1B8ne180100ES2_, symObjAddr: 0x7F80, symBinAddr: 0x1000094D0, symSize: 0x34 }
  - { offset: 0x366FE, size: 0x8, addend: 0x0, symName: __ZNSt3__116allocator_traitsINS_9allocatorI19Int8OPTDecoderLayerEEE7destroyB8ne180100IS2_vEEvRS3_PT_, symObjAddr: 0x7FF8, symBinAddr: 0x100009548, symSize: 0x2C }
  - { offset: 0x3673B, size: 0x8, addend: 0x0, symName: __ZNSt3__116reverse_iteratorIP19Int8OPTDecoderLayerEppB8ne180100Ev, symObjAddr: 0x8048, symBinAddr: 0x100009598, symSize: 0x20 }
  - { offset: 0x36761, size: 0x8, addend: 0x0, symName: __ZNKSt3__116reverse_iteratorIP19Int8OPTDecoderLayerE4baseB8ne180100Ev, symObjAddr: 0x8068, symBinAddr: 0x1000095B8, symSize: 0x18 }
  - { offset: 0x36787, size: 0x8, addend: 0x0, symName: __ZNSt3__19allocatorI19Int8OPTDecoderLayerE7destroyB8ne180100EPS1_, symObjAddr: 0x8080, symBinAddr: 0x1000095D0, symSize: 0x28 }
  - { offset: 0x367BB, size: 0x8, addend: 0x0, symName: __ZN19Int8OPTDecoderLayerD1Ev, symObjAddr: 0x80A8, symBinAddr: 0x1000095F8, symSize: 0x2C }
  - { offset: 0x367E7, size: 0x8, addend: 0x0, symName: __ZN19Int8OPTDecoderLayerD2Ev, symObjAddr: 0x80D4, symBinAddr: 0x100009624, symSize: 0x6C }
  - { offset: 0x36819, size: 0x8, addend: 0x0, symName: __ZNSt3__119__to_address_helperINS_16reverse_iteratorIP19Int8OPTDecoderLayerEEvE6__callB8ne180100ERKS4_, symObjAddr: 0x8140, symBinAddr: 0x100009690, symSize: 0x38 }
  - { offset: 0x3683C, size: 0x8, addend: 0x0, symName: __ZNKSt3__116reverse_iteratorIP19Int8OPTDecoderLayerEptB8ne180100Ev, symObjAddr: 0x8178, symBinAddr: 0x1000096C8, symSize: 0x24 }
  - { offset: 0x36862, size: 0x8, addend: 0x0, symName: __ZNKSt3__116reverse_iteratorIP19Int8OPTDecoderLayerEdeB8ne180100Ev, symObjAddr: 0x819C, symBinAddr: 0x1000096EC, symSize: 0x28 }
  - { offset: 0x36896, size: 0x8, addend: 0x0, symName: __ZNSt3__116reverse_iteratorIP19Int8OPTDecoderLayerEC2B8ne180100ES2_, symObjAddr: 0x81C4, symBinAddr: 0x100009714, symSize: 0x28 }
  - { offset: 0x368CE, size: 0x8, addend: 0x0, symName: __ZNSt3__118__unwrap_iter_implIP19Int8OPTDecoderLayerLb1EE8__unwrapB8ne180100ES2_, symObjAddr: 0x81EC, symBinAddr: 0x10000973C, symSize: 0x24 }
  - { offset: 0x368F1, size: 0x8, addend: 0x0, symName: __ZNSt3__118__unwrap_iter_implIP19Int8OPTDecoderLayerLb1EE8__rewrapB8ne180100ES2_S2_, symObjAddr: 0x8210, symBinAddr: 0x100009760, symSize: 0x58 }
  - { offset: 0x36922, size: 0x8, addend: 0x0, symName: __ZNSt3__16vectorI19Int8OPTDecoderLayerNS_9allocatorIS1_EEE21_ConstructTransactionD2B8ne180100Ev, symObjAddr: 0x8268, symBinAddr: 0x1000097B8, symSize: 0x20 }
  - { offset: 0x3694C, size: 0x8, addend: 0x0, symName: __ZNSt3__128__exception_guard_exceptionsINS_6vectorI19Int8OPTDecoderLayerNS_9allocatorIS2_EEE16__destroy_vectorEED2B8ne180100Ev, symObjAddr: 0x8288, symBinAddr: 0x1000097D8, symSize: 0x50 }
  - { offset: 0x36976, size: 0x8, addend: 0x0, symName: __ZNSt3__16vectorI19Int8OPTDecoderLayerNS_9allocatorIS1_EEE16__destroy_vectorclB8ne180100Ev, symObjAddr: 0x82D8, symBinAddr: 0x100009828, symSize: 0x88 }
  - { offset: 0x3699C, size: 0x8, addend: 0x0, symName: __ZNSt3__16vectorI19Int8OPTDecoderLayerNS_9allocatorIS1_EEE7__clearB8ne180100Ev, symObjAddr: 0x8360, symBinAddr: 0x1000098B0, symSize: 0x28 }
  - { offset: 0x369C2, size: 0x8, addend: 0x0, symName: __ZNKSt3__16vectorI19Int8OPTDecoderLayerNS_9allocatorIS1_EEE17__annotate_deleteB8ne180100Ev, symObjAddr: 0x8388, symBinAddr: 0x1000098D8, symSize: 0x10 }
  - { offset: 0x369E8, size: 0x8, addend: 0x0, symName: __ZNSt3__116allocator_traitsINS_9allocatorI19Int8OPTDecoderLayerEEE10deallocateB8ne180100ERS3_PS2_m, symObjAddr: 0x8398, symBinAddr: 0x1000098E8, symSize: 0x34 }
  - { offset: 0x36A2A, size: 0x8, addend: 0x0, symName: __ZNKSt3__16vectorI19Int8OPTDecoderLayerNS_9allocatorIS1_EEE8capacityB8ne180100Ev, symObjAddr: 0x83CC, symBinAddr: 0x10000991C, symSize: 0x40 }
  - { offset: 0x36A50, size: 0x8, addend: 0x0, symName: __ZNSt3__16vectorI19Int8OPTDecoderLayerNS_9allocatorIS1_EEE22__base_destruct_at_endB8ne180100EPS1_, symObjAddr: 0x840C, symBinAddr: 0x10000995C, symSize: 0x88 }
  - { offset: 0x36A94, size: 0x8, addend: 0x0, symName: __ZNSt3__19allocatorI19Int8OPTDecoderLayerE10deallocateB8ne180100EPS1_m, symObjAddr: 0x8494, symBinAddr: 0x1000099E4, symSize: 0x44 }
  - { offset: 0x36AD6, size: 0x8, addend: 0x0, symName: __ZNKSt3__16vectorI19Int8OPTDecoderLayerNS_9allocatorIS1_EEE9__end_capB8ne180100Ev, symObjAddr: 0x84D8, symBinAddr: 0x100009A28, symSize: 0x28 }
  - { offset: 0x36AFC, size: 0x8, addend: 0x0, symName: __ZNKSt3__117__compressed_pairIP19Int8OPTDecoderLayerNS_9allocatorIS1_EEE5firstB8ne180100Ev, symObjAddr: 0x8500, symBinAddr: 0x100009A50, symSize: 0x24 }
  - { offset: 0x36B22, size: 0x8, addend: 0x0, symName: __ZNKSt3__122__compressed_pair_elemIP19Int8OPTDecoderLayerLi0ELb0EE5__getB8ne180100Ev, symObjAddr: 0x8524, symBinAddr: 0x100009A74, symSize: 0x14 }
  - { offset: 0x36B48, size: 0x8, addend: 0x0, symName: __ZN9LayerNormC2ERKS_, symObjAddr: 0x8538, symBinAddr: 0x100009A88, symSize: 0x4C }
  - { offset: 0x36B7D, size: 0x8, addend: 0x0, symName: __ZN9LayerNormD2Ev, symObjAddr: 0x8584, symBinAddr: 0x100009AD4, symSize: 0x30 }
  - { offset: 0x36BA9, size: 0x8, addend: 0x0, symName: __ZNSt3__16vectorI19Int8OPTDecoderLayerNS_9allocatorIS1_EEED2B8ne180100Ev, symObjAddr: 0x85B4, symBinAddr: 0x100009B04, symSize: 0x40 }
  - { offset: 0x36BD3, size: 0x8, addend: 0x0, symName: __ZN9Linear_FPC2ERKS_, symObjAddr: 0x85F4, symBinAddr: 0x100009B44, symSize: 0x50 }
  - { offset: 0x36C08, size: 0x8, addend: 0x0, symName: __ZN14Int8OPTDecoderD2Ev, symObjAddr: 0x8644, symBinAddr: 0x100009B94, symSize: 0x5C }
  - { offset: 0x36C34, size: 0x8, addend: 0x0, symName: __ZN14OPTForCausalLMD2Ev, symObjAddr: 0x86A0, symBinAddr: 0x100009BF0, symSize: 0x44 }
  - { offset: 0x36C60, size: 0x8, addend: 0x0, symName: __ZN7EncoderD2Ev, symObjAddr: 0x86E4, symBinAddr: 0x100009C34, symSize: 0x68 }
  - { offset: 0x36C8C, size: 0x8, addend: 0x0, symName: __ZNSt3__113unordered_mapINS_12basic_stringIcNS_11char_traitsIcEENS_9allocatorIcEEEES6_NS_4hashIS6_EENS_8equal_toIS6_EENS4_INS_4pairIKS6_S6_EEEEED1B8ne180100Ev, symObjAddr: 0x874C, symBinAddr: 0x100009C9C, symSize: 0x2C }
  - { offset: 0x36CB6, size: 0x8, addend: 0x0, symName: __ZNSt3__113unordered_mapINS_4pairINS_12basic_stringIcNS_11char_traitsIcEENS_9allocatorIcEEEES7_EEi9pair_hashNS_8equal_toIS8_EENS5_INS1_IKS8_iEEEEED1B8ne180100Ev, symObjAddr: 0x8778, symBinAddr: 0x100009CC8, symSize: 0x2C }
  - { offset: 0x36CE0, size: 0x8, addend: 0x0, symName: __ZNSt3__113unordered_mapINS_12basic_stringIcNS_11char_traitsIcEENS_9allocatorIcEEEEiNS_4hashIS6_EENS_8equal_toIS6_EENS4_INS_4pairIKS6_iEEEEED1B8ne180100Ev, symObjAddr: 0x87A4, symBinAddr: 0x100009CF4, symSize: 0x2C }
  - { offset: 0x36D0A, size: 0x8, addend: 0x0, symName: __ZNSt3__113unordered_mapIiNS_12basic_stringIcNS_11char_traitsIcEENS_9allocatorIcEEEENS_4hashIiEENS_8equal_toIiEENS4_INS_4pairIKiS6_EEEEED1B8ne180100Ev, symObjAddr: 0x87D0, symBinAddr: 0x100009D20, symSize: 0x2C }
  - { offset: 0x36D34, size: 0x8, addend: 0x0, symName: __ZNSt3__13mapIiNS_12basic_stringIcNS_11char_traitsIcEENS_9allocatorIcEEEENS_4lessIiEENS4_INS_4pairIKiS6_EEEEED1B8ne180100Ev, symObjAddr: 0x87FC, symBinAddr: 0x100009D4C, symSize: 0x2C }
  - { offset: 0x36D5E, size: 0x8, addend: 0x0, symName: __ZNSt3__113unordered_mapINS_12basic_stringIcNS_11char_traitsIcEENS_9allocatorIcEEEES6_NS_4hashIS6_EENS_8equal_toIS6_EENS4_INS_4pairIKS6_S6_EEEEED2B8ne180100Ev, symObjAddr: 0x8828, symBinAddr: 0x100009D78, symSize: 0x2C }
  - { offset: 0x36D88, size: 0x8, addend: 0x0, symName: __ZNSt3__112__hash_tableINS_17__hash_value_typeINS_12basic_stringIcNS_11char_traitsIcEENS_9allocatorIcEEEES7_EENS_22__unordered_map_hasherIS7_S8_NS_4hashIS7_EENS_8equal_toIS7_EELb1EEENS_21__unordered_map_equalIS7_S8_SD_SB_Lb1EEENS5_IS8_EEED1Ev, symObjAddr: 0x8854, symBinAddr: 0x100009DA4, symSize: 0x2C }
  - { offset: 0x36DB4, size: 0x8, addend: 0x0, symName: __ZNSt3__112__hash_tableINS_17__hash_value_typeINS_12basic_stringIcNS_11char_traitsIcEENS_9allocatorIcEEEES7_EENS_22__unordered_map_hasherIS7_S8_NS_4hashIS7_EENS_8equal_toIS7_EELb1EEENS_21__unordered_map_equalIS7_S8_SD_SB_Lb1EEENS5_IS8_EEED2Ev, symObjAddr: 0x8880, symBinAddr: 0x100009DD0, symSize: 0x48 }
  - { offset: 0x36DE0, size: 0x8, addend: 0x0, symName: __ZNSt3__112__hash_tableINS_17__hash_value_typeINS_12basic_stringIcNS_11char_traitsIcEENS_9allocatorIcEEEES7_EENS_22__unordered_map_hasherIS7_S8_NS_4hashIS7_EENS_8equal_toIS7_EELb1EEENS_21__unordered_map_equalIS7_S8_SD_SB_Lb1EEENS5_IS8_EEE17__deallocate_nodeEPNS_16__hash_node_baseIPNS_11__hash_nodeIS8_PvEEEE, symObjAddr: 0x88C8, symBinAddr: 0x100009E18, symSize: 0xB8 }
  - { offset: 0x36E4A, size: 0x8, addend: 0x0, symName: __ZNSt3__117__compressed_pairINS_16__hash_node_baseIPNS_11__hash_nodeINS_17__hash_value_typeINS_12basic_stringIcNS_11char_traitsIcEENS_9allocatorIcEEEES9_EEPvEEEENS7_ISC_EEE5firstB8ne180100Ev, symObjAddr: 0x8980, symBinAddr: 0x100009ED0, symSize: 0x24 }
  - { offset: 0x36E70, size: 0x8, addend: 0x0, symName: __ZNSt3__110unique_ptrIA_PNS_16__hash_node_baseIPNS_11__hash_nodeINS_17__hash_value_typeINS_12basic_stringIcNS_11char_traitsIcEENS_9allocatorIcEEEES9_EEPvEEEENS_25__bucket_list_deallocatorINS7_ISF_EEEEED1B8ne180100Ev, symObjAddr: 0x89A4, symBinAddr: 0x100009EF4, symSize: 0x2C }
  - { offset: 0x36E9A, size: 0x8, addend: 0x0, symName: __ZNSt3__112__hash_tableINS_17__hash_value_typeINS_12basic_stringIcNS_11char_traitsIcEENS_9allocatorIcEEEES7_EENS_22__unordered_map_hasherIS7_S8_NS_4hashIS7_EENS_8equal_toIS7_EELb1EEENS_21__unordered_map_equalIS7_S8_SD_SB_Lb1EEENS5_IS8_EEE12__node_allocB8ne180100Ev, symObjAddr: 0x89D0, symBinAddr: 0x100009F20, symSize: 0x28 }
  - { offset: 0x36EC0, size: 0x8, addend: 0x0, symName: __ZNSt3__116__hash_node_baseIPNS_11__hash_nodeINS_17__hash_value_typeINS_12basic_stringIcNS_11char_traitsIcEENS_9allocatorIcEEEES8_EEPvEEE8__upcastB8ne180100Ev, symObjAddr: 0x89F8, symBinAddr: 0x100009F48, symSize: 0x24 }
  - { offset: 0x36EEC, size: 0x8, addend: 0x0, symName: __ZNSt3__116allocator_traitsINS_9allocatorINS_11__hash_nodeINS_17__hash_value_typeINS_12basic_stringIcNS_11char_traitsIcEENS1_IcEEEES8_EEPvEEEEE7destroyB8ne180100INS_4pairIKS8_S8_EEvvEEvRSC_PT_, symObjAddr: 0x8A1C, symBinAddr: 0x100009F6C, symSize: 0x28 }
  - { offset: 0x36F26, size: 0x8, addend: 0x0, symName: __ZNSt3__122__hash_key_value_typesINS_17__hash_value_typeINS_12basic_stringIcNS_11char_traitsIcEENS_9allocatorIcEEEES7_EEE9__get_ptrB8ne180100ERS8_, symObjAddr: 0x8A44, symBinAddr: 0x100009F94, symSize: 0x24 }
  - { offset: 0x36F49, size: 0x8, addend: 0x0, symName: __ZNSt3__111__hash_nodeINS_17__hash_value_typeINS_12basic_stringIcNS_11char_traitsIcEENS_9allocatorIcEEEES7_EEPvE11__get_valueB8ne180100Ev, symObjAddr: 0x8A68, symBinAddr: 0x100009FB8, symSize: 0x18 }
  - { offset: 0x36F6F, size: 0x8, addend: 0x0, symName: __ZNSt3__116allocator_traitsINS_9allocatorINS_11__hash_nodeINS_17__hash_value_typeINS_12basic_stringIcNS_11char_traitsIcEENS1_IcEEEES8_EEPvEEEEE10deallocateB8ne180100ERSC_PSB_m, symObjAddr: 0x8AA4, symBinAddr: 0x100009FF4, symSize: 0x34 }
  - { offset: 0x36FB1, size: 0x8, addend: 0x0, symName: __ZNSt3__117__compressed_pairINS_16__hash_node_baseIPNS_11__hash_nodeINS_17__hash_value_typeINS_12basic_stringIcNS_11char_traitsIcEENS_9allocatorIcEEEES9_EEPvEEEENS7_ISC_EEE6secondB8ne180100Ev, symObjAddr: 0x8AD8, symBinAddr: 0x10000A028, symSize: 0x24 }
  - { offset: 0x36FD7, size: 0x8, addend: 0x0, symName: __ZNSt3__122__compressed_pair_elemINS_9allocatorINS_11__hash_nodeINS_17__hash_value_typeINS_12basic_stringIcNS_11char_traitsIcEENS1_IcEEEES8_EEPvEEEELi1ELb1EE5__getB8ne180100Ev, symObjAddr: 0x8AFC, symBinAddr: 0x10000A04C, symSize: 0x14 }
  - { offset: 0x36FFD, size: 0x8, addend: 0x0, symName: __ZNSt3__114pointer_traitsIPNS_16__hash_node_baseIPNS_11__hash_nodeINS_17__hash_value_typeINS_12basic_stringIcNS_11char_traitsIcEENS_9allocatorIcEEEES9_EEPvEEEEE10pointer_toB8ne180100ERSE_, symObjAddr: 0x8B10, symBinAddr: 0x10000A060, symSize: 0x14 }
  - { offset: 0x37020, size: 0x8, addend: 0x0, symName: __ZNSt3__117__hash_value_typeINS_12basic_stringIcNS_11char_traitsIcEENS_9allocatorIcEEEES6_E11__get_valueB8ne180100Ev, symObjAddr: 0x8B48, symBinAddr: 0x10000A098, symSize: 0x14 }
  - { offset: 0x37046, size: 0x8, addend: 0x0, symName: __ZNSt3__111__hash_nodeINS_17__hash_value_typeINS_12basic_stringIcNS_11char_traitsIcEENS_9allocatorIcEEEES7_EEPvED1B8ne180100Ev, symObjAddr: 0x8B5C, symBinAddr: 0x10000A0AC, symSize: 0x2C }
  - { offset: 0x37070, size: 0x8, addend: 0x0, symName: __ZNSt3__111__hash_nodeINS_17__hash_value_typeINS_12basic_stringIcNS_11char_traitsIcEENS_9allocatorIcEEEES7_EEPvED2B8ne180100Ev, symObjAddr: 0x8B88, symBinAddr: 0x10000A0D8, symSize: 0x14 }
  - { offset: 0x3709A, size: 0x8, addend: 0x0, symName: __ZNSt3__19allocatorINS_11__hash_nodeINS_17__hash_value_typeINS_12basic_stringIcNS_11char_traitsIcEENS0_IcEEEES7_EEPvEEE10deallocateB8ne180100EPSA_m, symObjAddr: 0x8B9C, symBinAddr: 0x10000A0EC, symSize: 0x40 }
  - { offset: 0x370DC, size: 0x8, addend: 0x0, symName: __ZNSt3__122__compressed_pair_elemINS_16__hash_node_baseIPNS_11__hash_nodeINS_17__hash_value_typeINS_12basic_stringIcNS_11char_traitsIcEENS_9allocatorIcEEEES9_EEPvEEEELi0ELb0EE5__getB8ne180100Ev, symObjAddr: 0x8BDC, symBinAddr: 0x10000A12C, symSize: 0x14 }
  - { offset: 0x37102, size: 0x8, addend: 0x0, symName: __ZNSt3__110unique_ptrIA_PNS_16__hash_node_baseIPNS_11__hash_nodeINS_17__hash_value_typeINS_12basic_stringIcNS_11char_traitsIcEENS_9allocatorIcEEEES9_EEPvEEEENS_25__bucket_list_deallocatorINS7_ISF_EEEEED2B8ne180100Ev, symObjAddr: 0x8BF0, symBinAddr: 0x10000A140, symSize: 0x30 }
  - { offset: 0x3712C, size: 0x8, addend: 0x0, symName: __ZNSt3__110unique_ptrIA_PNS_16__hash_node_baseIPNS_11__hash_nodeINS_17__hash_value_typeINS_12basic_stringIcNS_11char_traitsIcEENS_9allocatorIcEEEES9_EEPvEEEENS_25__bucket_list_deallocatorINS7_ISF_EEEEE5resetB8ne180100EDn, symObjAddr: 0x8C20, symBinAddr: 0x10000A170, symSize: 0x64 }
  - { offset: 0x3716C, size: 0x8, addend: 0x0, symName: __ZNSt3__117__compressed_pairIPPNS_16__hash_node_baseIPNS_11__hash_nodeINS_17__hash_value_typeINS_12basic_stringIcNS_11char_traitsIcEENS_9allocatorIcEEEES9_EEPvEEEENS_25__bucket_list_deallocatorINS7_ISF_EEEEE5firstB8ne180100Ev, symObjAddr: 0x8C84, symBinAddr: 0x10000A1D4, symSize: 0x24 }
  - { offset: 0x37192, size: 0x8, addend: 0x0, symName: __ZNSt3__117__compressed_pairIPPNS_16__hash_node_baseIPNS_11__hash_nodeINS_17__hash_value_typeINS_12basic_stringIcNS_11char_traitsIcEENS_9allocatorIcEEEES9_EEPvEEEENS_25__bucket_list_deallocatorINS7_ISF_EEEEE6secondB8ne180100Ev, symObjAddr: 0x8CA8, symBinAddr: 0x10000A1F8, symSize: 0x28 }
  - { offset: 0x371B8, size: 0x8, addend: 0x0, symName: __ZNSt3__125__bucket_list_deallocatorINS_9allocatorIPNS_16__hash_node_baseIPNS_11__hash_nodeINS_17__hash_value_typeINS_12basic_stringIcNS_11char_traitsIcEENS1_IcEEEES9_EEPvEEEEEEEclB8ne180100EPSF_, symObjAddr: 0x8CD0, symBinAddr: 0x10000A220, symSize: 0x58 }
  - { offset: 0x371ED, size: 0x8, addend: 0x0, symName: __ZNSt3__122__compressed_pair_elemIPPNS_16__hash_node_baseIPNS_11__hash_nodeINS_17__hash_value_typeINS_12basic_stringIcNS_11char_traitsIcEENS_9allocatorIcEEEES9_EEPvEEEELi0ELb0EE5__getB8ne180100Ev, symObjAddr: 0x8D28, symBinAddr: 0x10000A278, symSize: 0x14 }
  - { offset: 0x37213, size: 0x8, addend: 0x0, symName: __ZNSt3__122__compressed_pair_elemINS_25__bucket_list_deallocatorINS_9allocatorIPNS_16__hash_node_baseIPNS_11__hash_nodeINS_17__hash_value_typeINS_12basic_stringIcNS_11char_traitsIcEENS2_IcEEEESA_EEPvEEEEEEEELi1ELb0EE5__getB8ne180100Ev, symObjAddr: 0x8D3C, symBinAddr: 0x10000A28C, symSize: 0x14 }
  - { offset: 0x37239, size: 0x8, addend: 0x0, symName: __ZNSt3__116allocator_traitsINS_9allocatorIPNS_16__hash_node_baseIPNS_11__hash_nodeINS_17__hash_value_typeINS_12basic_stringIcNS_11char_traitsIcEENS1_IcEEEES9_EEPvEEEEEEE10deallocateB8ne180100ERSG_PSF_m, symObjAddr: 0x8D50, symBinAddr: 0x10000A2A0, symSize: 0x34 }
  - { offset: 0x3727B, size: 0x8, addend: 0x0, symName: __ZNSt3__125__bucket_list_deallocatorINS_9allocatorIPNS_16__hash_node_baseIPNS_11__hash_nodeINS_17__hash_value_typeINS_12basic_stringIcNS_11char_traitsIcEENS1_IcEEEES9_EEPvEEEEEEE7__allocB8ne180100Ev, symObjAddr: 0x8D84, symBinAddr: 0x10000A2D4, symSize: 0x24 }
  - { offset: 0x372A1, size: 0x8, addend: 0x0, symName: __ZNSt3__125__bucket_list_deallocatorINS_9allocatorIPNS_16__hash_node_baseIPNS_11__hash_nodeINS_17__hash_value_typeINS_12basic_stringIcNS_11char_traitsIcEENS1_IcEEEES9_EEPvEEEEEEE4sizeB8ne180100Ev, symObjAddr: 0x8DA8, symBinAddr: 0x10000A2F8, symSize: 0x24 }
  - { offset: 0x372C7, size: 0x8, addend: 0x0, symName: __ZNSt3__19allocatorIPNS_16__hash_node_baseIPNS_11__hash_nodeINS_17__hash_value_typeINS_12basic_stringIcNS_11char_traitsIcEENS0_IcEEEES8_EEPvEEEEE10deallocateB8ne180100EPSE_m, symObjAddr: 0x8DCC, symBinAddr: 0x10000A31C, symSize: 0x40 }
  - { offset: 0x37309, size: 0x8, addend: 0x0, symName: __ZNSt3__117__compressed_pairImNS_9allocatorIPNS_16__hash_node_baseIPNS_11__hash_nodeINS_17__hash_value_typeINS_12basic_stringIcNS_11char_traitsIcEENS1_IcEEEES9_EEPvEEEEEEE6secondB8ne180100Ev, symObjAddr: 0x8E0C, symBinAddr: 0x10000A35C, symSize: 0x24 }
  - { offset: 0x3732F, size: 0x8, addend: 0x0, symName: __ZNSt3__122__compressed_pair_elemINS_9allocatorIPNS_16__hash_node_baseIPNS_11__hash_nodeINS_17__hash_value_typeINS_12basic_stringIcNS_11char_traitsIcEENS1_IcEEEES9_EEPvEEEEEELi1ELb1EE5__getB8ne180100Ev, symObjAddr: 0x8E30, symBinAddr: 0x10000A380, symSize: 0x14 }
  - { offset: 0x37355, size: 0x8, addend: 0x0, symName: __ZNSt3__117__compressed_pairImNS_9allocatorIPNS_16__hash_node_baseIPNS_11__hash_nodeINS_17__hash_value_typeINS_12basic_stringIcNS_11char_traitsIcEENS1_IcEEEES9_EEPvEEEEEEE5firstB8ne180100Ev, symObjAddr: 0x8E44, symBinAddr: 0x10000A394, symSize: 0x24 }
  - { offset: 0x3737B, size: 0x8, addend: 0x0, symName: __ZNSt3__113unordered_mapINS_4pairINS_12basic_stringIcNS_11char_traitsIcEENS_9allocatorIcEEEES7_EEi9pair_hashNS_8equal_toIS8_EENS5_INS1_IKS8_iEEEEED2B8ne180100Ev, symObjAddr: 0x8E68, symBinAddr: 0x10000A3B8, symSize: 0x2C }
  - { offset: 0x373A5, size: 0x8, addend: 0x0, symName: __ZNSt3__112__hash_tableINS_17__hash_value_typeINS_4pairINS_12basic_stringIcNS_11char_traitsIcEENS_9allocatorIcEEEES8_EEiEENS_22__unordered_map_hasherIS9_SA_9pair_hashNS_8equal_toIS9_EELb1EEENS_21__unordered_map_equalIS9_SA_SE_SC_Lb1EEENS6_ISA_EEED1Ev, symObjAddr: 0x8E94, symBinAddr: 0x10000A3E4, symSize: 0x2C }
  - { offset: 0x373D1, size: 0x8, addend: 0x0, symName: __ZNSt3__112__hash_tableINS_17__hash_value_typeINS_4pairINS_12basic_stringIcNS_11char_traitsIcEENS_9allocatorIcEEEES8_EEiEENS_22__unordered_map_hasherIS9_SA_9pair_hashNS_8equal_toIS9_EELb1EEENS_21__unordered_map_equalIS9_SA_SE_SC_Lb1EEENS6_ISA_EEED2Ev, symObjAddr: 0x8EC0, symBinAddr: 0x10000A410, symSize: 0x48 }
  - { offset: 0x373FD, size: 0x8, addend: 0x0, symName: __ZNSt3__112__hash_tableINS_17__hash_value_typeINS_4pairINS_12basic_stringIcNS_11char_traitsIcEENS_9allocatorIcEEEES8_EEiEENS_22__unordered_map_hasherIS9_SA_9pair_hashNS_8equal_toIS9_EELb1EEENS_21__unordered_map_equalIS9_SA_SE_SC_Lb1EEENS6_ISA_EEE17__deallocate_nodeEPNS_16__hash_node_baseIPNS_11__hash_nodeISA_PvEEEE, symObjAddr: 0x8F08, symBinAddr: 0x10000A458, symSize: 0xB8 }
  - { offset: 0x37467, size: 0x8, addend: 0x0, symName: __ZNSt3__117__compressed_pairINS_16__hash_node_baseIPNS_11__hash_nodeINS_17__hash_value_typeINS_4pairINS_12basic_stringIcNS_11char_traitsIcEENS_9allocatorIcEEEESA_EEiEEPvEEEENS8_ISE_EEE5firstB8ne180100Ev, symObjAddr: 0x8FC0, symBinAddr: 0x10000A510, symSize: 0x24 }
  - { offset: 0x3748D, size: 0x8, addend: 0x0, symName: __ZNSt3__110unique_ptrIA_PNS_16__hash_node_baseIPNS_11__hash_nodeINS_17__hash_value_typeINS_4pairINS_12basic_stringIcNS_11char_traitsIcEENS_9allocatorIcEEEESA_EEiEEPvEEEENS_25__bucket_list_deallocatorINS8_ISH_EEEEED1B8ne180100Ev, symObjAddr: 0x8FE4, symBinAddr: 0x10000A534, symSize: 0x2C }
  - { offset: 0x374B7, size: 0x8, addend: 0x0, symName: __ZNSt3__112__hash_tableINS_17__hash_value_typeINS_4pairINS_12basic_stringIcNS_11char_traitsIcEENS_9allocatorIcEEEES8_EEiEENS_22__unordered_map_hasherIS9_SA_9pair_hashNS_8equal_toIS9_EELb1EEENS_21__unordered_map_equalIS9_SA_SE_SC_Lb1EEENS6_ISA_EEE12__node_allocB8ne180100Ev, symObjAddr: 0x9010, symBinAddr: 0x10000A560, symSize: 0x28 }
  - { offset: 0x374DD, size: 0x8, addend: 0x0, symName: __ZNSt3__116__hash_node_baseIPNS_11__hash_nodeINS_17__hash_value_typeINS_4pairINS_12basic_stringIcNS_11char_traitsIcEENS_9allocatorIcEEEES9_EEiEEPvEEE8__upcastB8ne180100Ev, symObjAddr: 0x9038, symBinAddr: 0x10000A588, symSize: 0x24 }
  - { offset: 0x37509, size: 0x8, addend: 0x0, symName: __ZNSt3__116allocator_traitsINS_9allocatorINS_11__hash_nodeINS_17__hash_value_typeINS_4pairINS_12basic_stringIcNS_11char_traitsIcEENS1_IcEEEES9_EEiEEPvEEEEE7destroyB8ne180100INS4_IKSA_iEEvvEEvRSE_PT_, symObjAddr: 0x905C, symBinAddr: 0x10000A5AC, symSize: 0x28 }
  - { offset: 0x37543, size: 0x8, addend: 0x0, symName: __ZNSt3__122__hash_key_value_typesINS_17__hash_value_typeINS_4pairINS_12basic_stringIcNS_11char_traitsIcEENS_9allocatorIcEEEES8_EEiEEE9__get_ptrB8ne180100ERSA_, symObjAddr: 0x9084, symBinAddr: 0x10000A5D4, symSize: 0x24 }
  - { offset: 0x37566, size: 0x8, addend: 0x0, symName: __ZNSt3__111__hash_nodeINS_17__hash_value_typeINS_4pairINS_12basic_stringIcNS_11char_traitsIcEENS_9allocatorIcEEEES8_EEiEEPvE11__get_valueB8ne180100Ev, symObjAddr: 0x90A8, symBinAddr: 0x10000A5F8, symSize: 0x18 }
  - { offset: 0x3758C, size: 0x8, addend: 0x0, symName: __ZNSt3__116allocator_traitsINS_9allocatorINS_11__hash_nodeINS_17__hash_value_typeINS_4pairINS_12basic_stringIcNS_11char_traitsIcEENS1_IcEEEES9_EEiEEPvEEEEE10deallocateB8ne180100ERSE_PSD_m, symObjAddr: 0x90E4, symBinAddr: 0x10000A634, symSize: 0x34 }
  - { offset: 0x375CE, size: 0x8, addend: 0x0, symName: __ZNSt3__117__compressed_pairINS_16__hash_node_baseIPNS_11__hash_nodeINS_17__hash_value_typeINS_4pairINS_12basic_stringIcNS_11char_traitsIcEENS_9allocatorIcEEEESA_EEiEEPvEEEENS8_ISE_EEE6secondB8ne180100Ev, symObjAddr: 0x9118, symBinAddr: 0x10000A668, symSize: 0x24 }
  - { offset: 0x375F4, size: 0x8, addend: 0x0, symName: __ZNSt3__122__compressed_pair_elemINS_9allocatorINS_11__hash_nodeINS_17__hash_value_typeINS_4pairINS_12basic_stringIcNS_11char_traitsIcEENS1_IcEEEES9_EEiEEPvEEEELi1ELb1EE5__getB8ne180100Ev, symObjAddr: 0x913C, symBinAddr: 0x10000A68C, symSize: 0x14 }
  - { offset: 0x3761A, size: 0x8, addend: 0x0, symName: __ZNSt3__114pointer_traitsIPNS_16__hash_node_baseIPNS_11__hash_nodeINS_17__hash_value_typeINS_4pairINS_12basic_stringIcNS_11char_traitsIcEENS_9allocatorIcEEEESA_EEiEEPvEEEEE10pointer_toB8ne180100ERSG_, symObjAddr: 0x9150, symBinAddr: 0x10000A6A0, symSize: 0x14 }
  - { offset: 0x3763D, size: 0x8, addend: 0x0, symName: __ZNSt3__14pairIKNS0_INS_12basic_stringIcNS_11char_traitsIcEENS_9allocatorIcEEEES6_EEiED1Ev, symObjAddr: 0x9188, symBinAddr: 0x10000A6D8, symSize: 0x2C }
  - { offset: 0x37669, size: 0x8, addend: 0x0, symName: __ZNSt3__14pairIKNS0_INS_12basic_stringIcNS_11char_traitsIcEENS_9allocatorIcEEEES6_EEiED2Ev, symObjAddr: 0x91B4, symBinAddr: 0x10000A704, symSize: 0x2C }
  - { offset: 0x37695, size: 0x8, addend: 0x0, symName: __ZNSt3__14pairINS_12basic_stringIcNS_11char_traitsIcEENS_9allocatorIcEEEES6_ED1Ev, symObjAddr: 0x91E0, symBinAddr: 0x10000A730, symSize: 0x2C }
  - { offset: 0x376C1, size: 0x8, addend: 0x0, symName: __ZNSt3__14pairINS_12basic_stringIcNS_11char_traitsIcEENS_9allocatorIcEEEES6_ED2Ev, symObjAddr: 0x920C, symBinAddr: 0x10000A75C, symSize: 0x38 }
  - { offset: 0x376ED, size: 0x8, addend: 0x0, symName: __ZNSt3__117__hash_value_typeINS_4pairINS_12basic_stringIcNS_11char_traitsIcEENS_9allocatorIcEEEES7_EEiE11__get_valueB8ne180100Ev, symObjAddr: 0x9244, symBinAddr: 0x10000A794, symSize: 0x14 }
  - { offset: 0x37713, size: 0x8, addend: 0x0, symName: __ZNSt3__111__hash_nodeINS_17__hash_value_typeINS_4pairINS_12basic_stringIcNS_11char_traitsIcEENS_9allocatorIcEEEES8_EEiEEPvED1B8ne180100Ev, symObjAddr: 0x9258, symBinAddr: 0x10000A7A8, symSize: 0x2C }
  - { offset: 0x3773D, size: 0x8, addend: 0x0, symName: __ZNSt3__111__hash_nodeINS_17__hash_value_typeINS_4pairINS_12basic_stringIcNS_11char_traitsIcEENS_9allocatorIcEEEES8_EEiEEPvED2B8ne180100Ev, symObjAddr: 0x9284, symBinAddr: 0x10000A7D4, symSize: 0x14 }
  - { offset: 0x37767, size: 0x8, addend: 0x0, symName: __ZNSt3__19allocatorINS_11__hash_nodeINS_17__hash_value_typeINS_4pairINS_12basic_stringIcNS_11char_traitsIcEENS0_IcEEEES8_EEiEEPvEEE10deallocateB8ne180100EPSC_m, symObjAddr: 0x9298, symBinAddr: 0x10000A7E8, symSize: 0x44 }
  - { offset: 0x377A9, size: 0x8, addend: 0x0, symName: __ZNSt3__122__compressed_pair_elemINS_16__hash_node_baseIPNS_11__hash_nodeINS_17__hash_value_typeINS_4pairINS_12basic_stringIcNS_11char_traitsIcEENS_9allocatorIcEEEESA_EEiEEPvEEEELi0ELb0EE5__getB8ne180100Ev, symObjAddr: 0x92DC, symBinAddr: 0x10000A82C, symSize: 0x14 }
  - { offset: 0x377CF, size: 0x8, addend: 0x0, symName: __ZNSt3__110unique_ptrIA_PNS_16__hash_node_baseIPNS_11__hash_nodeINS_17__hash_value_typeINS_4pairINS_12basic_stringIcNS_11char_traitsIcEENS_9allocatorIcEEEESA_EEiEEPvEEEENS_25__bucket_list_deallocatorINS8_ISH_EEEEED2B8ne180100Ev, symObjAddr: 0x92F0, symBinAddr: 0x10000A840, symSize: 0x30 }
  - { offset: 0x377F9, size: 0x8, addend: 0x0, symName: __ZNSt3__110unique_ptrIA_PNS_16__hash_node_baseIPNS_11__hash_nodeINS_17__hash_value_typeINS_4pairINS_12basic_stringIcNS_11char_traitsIcEENS_9allocatorIcEEEESA_EEiEEPvEEEENS_25__bucket_list_deallocatorINS8_ISH_EEEEE5resetB8ne180100EDn, symObjAddr: 0x9320, symBinAddr: 0x10000A870, symSize: 0x64 }
  - { offset: 0x37839, size: 0x8, addend: 0x0, symName: __ZNSt3__117__compressed_pairIPPNS_16__hash_node_baseIPNS_11__hash_nodeINS_17__hash_value_typeINS_4pairINS_12basic_stringIcNS_11char_traitsIcEENS_9allocatorIcEEEESA_EEiEEPvEEEENS_25__bucket_list_deallocatorINS8_ISH_EEEEE5firstB8ne180100Ev, symObjAddr: 0x9384, symBinAddr: 0x10000A8D4, symSize: 0x24 }
  - { offset: 0x3785F, size: 0x8, addend: 0x0, symName: __ZNSt3__117__compressed_pairIPPNS_16__hash_node_baseIPNS_11__hash_nodeINS_17__hash_value_typeINS_4pairINS_12basic_stringIcNS_11char_traitsIcEENS_9allocatorIcEEEESA_EEiEEPvEEEENS_25__bucket_list_deallocatorINS8_ISH_EEEEE6secondB8ne180100Ev, symObjAddr: 0x93A8, symBinAddr: 0x10000A8F8, symSize: 0x28 }
  - { offset: 0x37885, size: 0x8, addend: 0x0, symName: __ZNSt3__125__bucket_list_deallocatorINS_9allocatorIPNS_16__hash_node_baseIPNS_11__hash_nodeINS_17__hash_value_typeINS_4pairINS_12basic_stringIcNS_11char_traitsIcEENS1_IcEEEESA_EEiEEPvEEEEEEEclB8ne180100EPSH_, symObjAddr: 0x93D0, symBinAddr: 0x10000A920, symSize: 0x58 }
  - { offset: 0x378BA, size: 0x8, addend: 0x0, symName: __ZNSt3__122__compressed_pair_elemIPPNS_16__hash_node_baseIPNS_11__hash_nodeINS_17__hash_value_typeINS_4pairINS_12basic_stringIcNS_11char_traitsIcEENS_9allocatorIcEEEESA_EEiEEPvEEEELi0ELb0EE5__getB8ne180100Ev, symObjAddr: 0x9428, symBinAddr: 0x10000A978, symSize: 0x14 }
  - { offset: 0x378E0, size: 0x8, addend: 0x0, symName: __ZNSt3__122__compressed_pair_elemINS_25__bucket_list_deallocatorINS_9allocatorIPNS_16__hash_node_baseIPNS_11__hash_nodeINS_17__hash_value_typeINS_4pairINS_12basic_stringIcNS_11char_traitsIcEENS2_IcEEEESB_EEiEEPvEEEEEEEELi1ELb0EE5__getB8ne180100Ev, symObjAddr: 0x943C, symBinAddr: 0x10000A98C, symSize: 0x14 }
  - { offset: 0x37906, size: 0x8, addend: 0x0, symName: __ZNSt3__116allocator_traitsINS_9allocatorIPNS_16__hash_node_baseIPNS_11__hash_nodeINS_17__hash_value_typeINS_4pairINS_12basic_stringIcNS_11char_traitsIcEENS1_IcEEEESA_EEiEEPvEEEEEEE10deallocateB8ne180100ERSI_PSH_m, symObjAddr: 0x9450, symBinAddr: 0x10000A9A0, symSize: 0x34 }
  - { offset: 0x37948, size: 0x8, addend: 0x0, symName: __ZNSt3__125__bucket_list_deallocatorINS_9allocatorIPNS_16__hash_node_baseIPNS_11__hash_nodeINS_17__hash_value_typeINS_4pairINS_12basic_stringIcNS_11char_traitsIcEENS1_IcEEEESA_EEiEEPvEEEEEEE7__allocB8ne180100Ev, symObjAddr: 0x9484, symBinAddr: 0x10000A9D4, symSize: 0x24 }
  - { offset: 0x3796E, size: 0x8, addend: 0x0, symName: __ZNSt3__125__bucket_list_deallocatorINS_9allocatorIPNS_16__hash_node_baseIPNS_11__hash_nodeINS_17__hash_value_typeINS_4pairINS_12basic_stringIcNS_11char_traitsIcEENS1_IcEEEESA_EEiEEPvEEEEEEE4sizeB8ne180100Ev, symObjAddr: 0x94A8, symBinAddr: 0x10000A9F8, symSize: 0x24 }
  - { offset: 0x37994, size: 0x8, addend: 0x0, symName: __ZNSt3__19allocatorIPNS_16__hash_node_baseIPNS_11__hash_nodeINS_17__hash_value_typeINS_4pairINS_12basic_stringIcNS_11char_traitsIcEENS0_IcEEEES9_EEiEEPvEEEEE10deallocateB8ne180100EPSG_m, symObjAddr: 0x94CC, symBinAddr: 0x10000AA1C, symSize: 0x40 }
  - { offset: 0x379D6, size: 0x8, addend: 0x0, symName: __ZNSt3__117__compressed_pairImNS_9allocatorIPNS_16__hash_node_baseIPNS_11__hash_nodeINS_17__hash_value_typeINS_4pairINS_12basic_stringIcNS_11char_traitsIcEENS1_IcEEEESA_EEiEEPvEEEEEEE6secondB8ne180100Ev, symObjAddr: 0x950C, symBinAddr: 0x10000AA5C, symSize: 0x24 }
  - { offset: 0x379FC, size: 0x8, addend: 0x0, symName: __ZNSt3__122__compressed_pair_elemINS_9allocatorIPNS_16__hash_node_baseIPNS_11__hash_nodeINS_17__hash_value_typeINS_4pairINS_12basic_stringIcNS_11char_traitsIcEENS1_IcEEEESA_EEiEEPvEEEEEELi1ELb1EE5__getB8ne180100Ev, symObjAddr: 0x9530, symBinAddr: 0x10000AA80, symSize: 0x14 }
  - { offset: 0x37A22, size: 0x8, addend: 0x0, symName: __ZNSt3__117__compressed_pairImNS_9allocatorIPNS_16__hash_node_baseIPNS_11__hash_nodeINS_17__hash_value_typeINS_4pairINS_12basic_stringIcNS_11char_traitsIcEENS1_IcEEEESA_EEiEEPvEEEEEEE5firstB8ne180100Ev, symObjAddr: 0x9544, symBinAddr: 0x10000AA94, symSize: 0x24 }
  - { offset: 0x37A48, size: 0x8, addend: 0x0, symName: __ZNSt3__113unordered_mapINS_12basic_stringIcNS_11char_traitsIcEENS_9allocatorIcEEEEiNS_4hashIS6_EENS_8equal_toIS6_EENS4_INS_4pairIKS6_iEEEEED2B8ne180100Ev, symObjAddr: 0x9568, symBinAddr: 0x10000AAB8, symSize: 0x2C }
  - { offset: 0x37A72, size: 0x8, addend: 0x0, symName: __ZNSt3__112__hash_tableINS_17__hash_value_typeINS_12basic_stringIcNS_11char_traitsIcEENS_9allocatorIcEEEEiEENS_22__unordered_map_hasherIS7_S8_NS_4hashIS7_EENS_8equal_toIS7_EELb1EEENS_21__unordered_map_equalIS7_S8_SD_SB_Lb1EEENS5_IS8_EEED1Ev, symObjAddr: 0x9594, symBinAddr: 0x10000AAE4, symSize: 0x2C }
  - { offset: 0x37A9E, size: 0x8, addend: 0x0, symName: __ZNSt3__112__hash_tableINS_17__hash_value_typeINS_12basic_stringIcNS_11char_traitsIcEENS_9allocatorIcEEEEiEENS_22__unordered_map_hasherIS7_S8_NS_4hashIS7_EENS_8equal_toIS7_EELb1EEENS_21__unordered_map_equalIS7_S8_SD_SB_Lb1EEENS5_IS8_EEED2Ev, symObjAddr: 0x95C0, symBinAddr: 0x10000AB10, symSize: 0x48 }
  - { offset: 0x37ACA, size: 0x8, addend: 0x0, symName: __ZNSt3__112__hash_tableINS_17__hash_value_typeINS_12basic_stringIcNS_11char_traitsIcEENS_9allocatorIcEEEEiEENS_22__unordered_map_hasherIS7_S8_NS_4hashIS7_EENS_8equal_toIS7_EELb1EEENS_21__unordered_map_equalIS7_S8_SD_SB_Lb1EEENS5_IS8_EEE17__deallocate_nodeEPNS_16__hash_node_baseIPNS_11__hash_nodeIS8_PvEEEE, symObjAddr: 0x9608, symBinAddr: 0x10000AB58, symSize: 0xB8 }
  - { offset: 0x37B34, size: 0x8, addend: 0x0, symName: __ZNSt3__117__compressed_pairINS_16__hash_node_baseIPNS_11__hash_nodeINS_17__hash_value_typeINS_12basic_stringIcNS_11char_traitsIcEENS_9allocatorIcEEEEiEEPvEEEENS7_ISC_EEE5firstB8ne180100Ev, symObjAddr: 0x96C0, symBinAddr: 0x10000AC10, symSize: 0x24 }
  - { offset: 0x37B5A, size: 0x8, addend: 0x0, symName: __ZNSt3__110unique_ptrIA_PNS_16__hash_node_baseIPNS_11__hash_nodeINS_17__hash_value_typeINS_12basic_stringIcNS_11char_traitsIcEENS_9allocatorIcEEEEiEEPvEEEENS_25__bucket_list_deallocatorINS7_ISF_EEEEED1B8ne180100Ev, symObjAddr: 0x96E4, symBinAddr: 0x10000AC34, symSize: 0x2C }
  - { offset: 0x37B84, size: 0x8, addend: 0x0, symName: __ZNSt3__112__hash_tableINS_17__hash_value_typeINS_12basic_stringIcNS_11char_traitsIcEENS_9allocatorIcEEEEiEENS_22__unordered_map_hasherIS7_S8_NS_4hashIS7_EENS_8equal_toIS7_EELb1EEENS_21__unordered_map_equalIS7_S8_SD_SB_Lb1EEENS5_IS8_EEE12__node_allocB8ne180100Ev, symObjAddr: 0x9710, symBinAddr: 0x10000AC60, symSize: 0x28 }
  - { offset: 0x37BAA, size: 0x8, addend: 0x0, symName: __ZNSt3__116__hash_node_baseIPNS_11__hash_nodeINS_17__hash_value_typeINS_12basic_stringIcNS_11char_traitsIcEENS_9allocatorIcEEEEiEEPvEEE8__upcastB8ne180100Ev, symObjAddr: 0x9738, symBinAddr: 0x10000AC88, symSize: 0x24 }
  - { offset: 0x37BD6, size: 0x8, addend: 0x0, symName: __ZNSt3__116allocator_traitsINS_9allocatorINS_11__hash_nodeINS_17__hash_value_typeINS_12basic_stringIcNS_11char_traitsIcEENS1_IcEEEEiEEPvEEEEE7destroyB8ne180100INS_4pairIKS8_iEEvvEEvRSC_PT_, symObjAddr: 0x975C, symBinAddr: 0x10000ACAC, symSize: 0x28 }
  - { offset: 0x37C10, size: 0x8, addend: 0x0, symName: __ZNSt3__122__hash_key_value_typesINS_17__hash_value_typeINS_12basic_stringIcNS_11char_traitsIcEENS_9allocatorIcEEEEiEEE9__get_ptrB8ne180100ERS8_, symObjAddr: 0x9784, symBinAddr: 0x10000ACD4, symSize: 0x24 }
  - { offset: 0x37C33, size: 0x8, addend: 0x0, symName: __ZNSt3__111__hash_nodeINS_17__hash_value_typeINS_12basic_stringIcNS_11char_traitsIcEENS_9allocatorIcEEEEiEEPvE11__get_valueB8ne180100Ev, symObjAddr: 0x97A8, symBinAddr: 0x10000ACF8, symSize: 0x18 }
  - { offset: 0x37C59, size: 0x8, addend: 0x0, symName: __ZNSt3__116allocator_traitsINS_9allocatorINS_11__hash_nodeINS_17__hash_value_typeINS_12basic_stringIcNS_11char_traitsIcEENS1_IcEEEEiEEPvEEEEE10deallocateB8ne180100ERSC_PSB_m, symObjAddr: 0x97E4, symBinAddr: 0x10000AD34, symSize: 0x34 }
  - { offset: 0x37C9B, size: 0x8, addend: 0x0, symName: __ZNSt3__117__compressed_pairINS_16__hash_node_baseIPNS_11__hash_nodeINS_17__hash_value_typeINS_12basic_stringIcNS_11char_traitsIcEENS_9allocatorIcEEEEiEEPvEEEENS7_ISC_EEE6secondB8ne180100Ev, symObjAddr: 0x9818, symBinAddr: 0x10000AD68, symSize: 0x24 }
  - { offset: 0x37CC1, size: 0x8, addend: 0x0, symName: __ZNSt3__122__compressed_pair_elemINS_9allocatorINS_11__hash_nodeINS_17__hash_value_typeINS_12basic_stringIcNS_11char_traitsIcEENS1_IcEEEEiEEPvEEEELi1ELb1EE5__getB8ne180100Ev, symObjAddr: 0x983C, symBinAddr: 0x10000AD8C, symSize: 0x14 }
  - { offset: 0x37CE7, size: 0x8, addend: 0x0, symName: __ZNSt3__114pointer_traitsIPNS_16__hash_node_baseIPNS_11__hash_nodeINS_17__hash_value_typeINS_12basic_stringIcNS_11char_traitsIcEENS_9allocatorIcEEEEiEEPvEEEEE10pointer_toB8ne180100ERSE_, symObjAddr: 0x9850, symBinAddr: 0x10000ADA0, symSize: 0x14 }
  - { offset: 0x37D0A, size: 0x8, addend: 0x0, symName: __ZNSt3__117__hash_value_typeINS_12basic_stringIcNS_11char_traitsIcEENS_9allocatorIcEEEEiE11__get_valueB8ne180100Ev, symObjAddr: 0x9888, symBinAddr: 0x10000ADD8, symSize: 0x14 }
  - { offset: 0x37D30, size: 0x8, addend: 0x0, symName: __ZNSt3__111__hash_nodeINS_17__hash_value_typeINS_12basic_stringIcNS_11char_traitsIcEENS_9allocatorIcEEEEiEEPvED1B8ne180100Ev, symObjAddr: 0x989C, symBinAddr: 0x10000ADEC, symSize: 0x2C }
  - { offset: 0x37D5A, size: 0x8, addend: 0x0, symName: __ZNSt3__111__hash_nodeINS_17__hash_value_typeINS_12basic_stringIcNS_11char_traitsIcEENS_9allocatorIcEEEEiEEPvED2B8ne180100Ev, symObjAddr: 0x98C8, symBinAddr: 0x10000AE18, symSize: 0x14 }
  - { offset: 0x37D84, size: 0x8, addend: 0x0, symName: __ZNSt3__19allocatorINS_11__hash_nodeINS_17__hash_value_typeINS_12basic_stringIcNS_11char_traitsIcEENS0_IcEEEEiEEPvEEE10deallocateB8ne180100EPSA_m, symObjAddr: 0x98DC, symBinAddr: 0x10000AE2C, symSize: 0x44 }
  - { offset: 0x37DC6, size: 0x8, addend: 0x0, symName: __ZNSt3__122__compressed_pair_elemINS_16__hash_node_baseIPNS_11__hash_nodeINS_17__hash_value_typeINS_12basic_stringIcNS_11char_traitsIcEENS_9allocatorIcEEEEiEEPvEEEELi0ELb0EE5__getB8ne180100Ev, symObjAddr: 0x9920, symBinAddr: 0x10000AE70, symSize: 0x14 }
  - { offset: 0x37DEC, size: 0x8, addend: 0x0, symName: __ZNSt3__110unique_ptrIA_PNS_16__hash_node_baseIPNS_11__hash_nodeINS_17__hash_value_typeINS_12basic_stringIcNS_11char_traitsIcEENS_9allocatorIcEEEEiEEPvEEEENS_25__bucket_list_deallocatorINS7_ISF_EEEEED2B8ne180100Ev, symObjAddr: 0x9934, symBinAddr: 0x10000AE84, symSize: 0x30 }
  - { offset: 0x37E16, size: 0x8, addend: 0x0, symName: __ZNSt3__110unique_ptrIA_PNS_16__hash_node_baseIPNS_11__hash_nodeINS_17__hash_value_typeINS_12basic_stringIcNS_11char_traitsIcEENS_9allocatorIcEEEEiEEPvEEEENS_25__bucket_list_deallocatorINS7_ISF_EEEEE5resetB8ne180100EDn, symObjAddr: 0x9964, symBinAddr: 0x10000AEB4, symSize: 0x64 }
  - { offset: 0x37E56, size: 0x8, addend: 0x0, symName: __ZNSt3__117__compressed_pairIPPNS_16__hash_node_baseIPNS_11__hash_nodeINS_17__hash_value_typeINS_12basic_stringIcNS_11char_traitsIcEENS_9allocatorIcEEEEiEEPvEEEENS_25__bucket_list_deallocatorINS7_ISF_EEEEE5firstB8ne180100Ev, symObjAddr: 0x99C8, symBinAddr: 0x10000AF18, symSize: 0x24 }
  - { offset: 0x37E7C, size: 0x8, addend: 0x0, symName: __ZNSt3__117__compressed_pairIPPNS_16__hash_node_baseIPNS_11__hash_nodeINS_17__hash_value_typeINS_12basic_stringIcNS_11char_traitsIcEENS_9allocatorIcEEEEiEEPvEEEENS_25__bucket_list_deallocatorINS7_ISF_EEEEE6secondB8ne180100Ev, symObjAddr: 0x99EC, symBinAddr: 0x10000AF3C, symSize: 0x28 }
  - { offset: 0x37EA2, size: 0x8, addend: 0x0, symName: __ZNSt3__125__bucket_list_deallocatorINS_9allocatorIPNS_16__hash_node_baseIPNS_11__hash_nodeINS_17__hash_value_typeINS_12basic_stringIcNS_11char_traitsIcEENS1_IcEEEEiEEPvEEEEEEEclB8ne180100EPSF_, symObjAddr: 0x9A14, symBinAddr: 0x10000AF64, symSize: 0x58 }
  - { offset: 0x37ED7, size: 0x8, addend: 0x0, symName: __ZNSt3__122__compressed_pair_elemIPPNS_16__hash_node_baseIPNS_11__hash_nodeINS_17__hash_value_typeINS_12basic_stringIcNS_11char_traitsIcEENS_9allocatorIcEEEEiEEPvEEEELi0ELb0EE5__getB8ne180100Ev, symObjAddr: 0x9A6C, symBinAddr: 0x10000AFBC, symSize: 0x14 }
  - { offset: 0x37EFD, size: 0x8, addend: 0x0, symName: __ZNSt3__122__compressed_pair_elemINS_25__bucket_list_deallocatorINS_9allocatorIPNS_16__hash_node_baseIPNS_11__hash_nodeINS_17__hash_value_typeINS_12basic_stringIcNS_11char_traitsIcEENS2_IcEEEEiEEPvEEEEEEEELi1ELb0EE5__getB8ne180100Ev, symObjAddr: 0x9A80, symBinAddr: 0x10000AFD0, symSize: 0x14 }
  - { offset: 0x37F23, size: 0x8, addend: 0x0, symName: __ZNSt3__116allocator_traitsINS_9allocatorIPNS_16__hash_node_baseIPNS_11__hash_nodeINS_17__hash_value_typeINS_12basic_stringIcNS_11char_traitsIcEENS1_IcEEEEiEEPvEEEEEEE10deallocateB8ne180100ERSG_PSF_m, symObjAddr: 0x9A94, symBinAddr: 0x10000AFE4, symSize: 0x34 }
  - { offset: 0x37F65, size: 0x8, addend: 0x0, symName: __ZNSt3__125__bucket_list_deallocatorINS_9allocatorIPNS_16__hash_node_baseIPNS_11__hash_nodeINS_17__hash_value_typeINS_12basic_stringIcNS_11char_traitsIcEENS1_IcEEEEiEEPvEEEEEEE7__allocB8ne180100Ev, symObjAddr: 0x9AC8, symBinAddr: 0x10000B018, symSize: 0x24 }
  - { offset: 0x37F8B, size: 0x8, addend: 0x0, symName: __ZNSt3__125__bucket_list_deallocatorINS_9allocatorIPNS_16__hash_node_baseIPNS_11__hash_nodeINS_17__hash_value_typeINS_12basic_stringIcNS_11char_traitsIcEENS1_IcEEEEiEEPvEEEEEEE4sizeB8ne180100Ev, symObjAddr: 0x9AEC, symBinAddr: 0x10000B03C, symSize: 0x24 }
  - { offset: 0x37FB1, size: 0x8, addend: 0x0, symName: __ZNSt3__19allocatorIPNS_16__hash_node_baseIPNS_11__hash_nodeINS_17__hash_value_typeINS_12basic_stringIcNS_11char_traitsIcEENS0_IcEEEEiEEPvEEEEE10deallocateB8ne180100EPSE_m, symObjAddr: 0x9B10, symBinAddr: 0x10000B060, symSize: 0x40 }
  - { offset: 0x37FF3, size: 0x8, addend: 0x0, symName: __ZNSt3__117__compressed_pairImNS_9allocatorIPNS_16__hash_node_baseIPNS_11__hash_nodeINS_17__hash_value_typeINS_12basic_stringIcNS_11char_traitsIcEENS1_IcEEEEiEEPvEEEEEEE6secondB8ne180100Ev, symObjAddr: 0x9B50, symBinAddr: 0x10000B0A0, symSize: 0x24 }
  - { offset: 0x38019, size: 0x8, addend: 0x0, symName: __ZNSt3__122__compressed_pair_elemINS_9allocatorIPNS_16__hash_node_baseIPNS_11__hash_nodeINS_17__hash_value_typeINS_12basic_stringIcNS_11char_traitsIcEENS1_IcEEEEiEEPvEEEEEELi1ELb1EE5__getB8ne180100Ev, symObjAddr: 0x9B74, symBinAddr: 0x10000B0C4, symSize: 0x14 }
  - { offset: 0x3803F, size: 0x8, addend: 0x0, symName: __ZNSt3__117__compressed_pairImNS_9allocatorIPNS_16__hash_node_baseIPNS_11__hash_nodeINS_17__hash_value_typeINS_12basic_stringIcNS_11char_traitsIcEENS1_IcEEEEiEEPvEEEEEEE5firstB8ne180100Ev, symObjAddr: 0x9B88, symBinAddr: 0x10000B0D8, symSize: 0x24 }
  - { offset: 0x38065, size: 0x8, addend: 0x0, symName: __ZNSt3__113unordered_mapIiNS_12basic_stringIcNS_11char_traitsIcEENS_9allocatorIcEEEENS_4hashIiEENS_8equal_toIiEENS4_INS_4pairIKiS6_EEEEED2B8ne180100Ev, symObjAddr: 0x9BAC, symBinAddr: 0x10000B0FC, symSize: 0x2C }
  - { offset: 0x3808F, size: 0x8, addend: 0x0, symName: __ZNSt3__112__hash_tableINS_17__hash_value_typeIiNS_12basic_stringIcNS_11char_traitsIcEENS_9allocatorIcEEEEEENS_22__unordered_map_hasherIiS8_NS_4hashIiEENS_8equal_toIiEELb1EEENS_21__unordered_map_equalIiS8_SD_SB_Lb1EEENS5_IS8_EEED1Ev, symObjAddr: 0x9BD8, symBinAddr: 0x10000B128, symSize: 0x2C }
  - { offset: 0x380BB, size: 0x8, addend: 0x0, symName: __ZNSt3__112__hash_tableINS_17__hash_value_typeIiNS_12basic_stringIcNS_11char_traitsIcEENS_9allocatorIcEEEEEENS_22__unordered_map_hasherIiS8_NS_4hashIiEENS_8equal_toIiEELb1EEENS_21__unordered_map_equalIiS8_SD_SB_Lb1EEENS5_IS8_EEED2Ev, symObjAddr: 0x9C04, symBinAddr: 0x10000B154, symSize: 0x48 }
  - { offset: 0x380E7, size: 0x8, addend: 0x0, symName: __ZNSt3__112__hash_tableINS_17__hash_value_typeIiNS_12basic_stringIcNS_11char_traitsIcEENS_9allocatorIcEEEEEENS_22__unordered_map_hasherIiS8_NS_4hashIiEENS_8equal_toIiEELb1EEENS_21__unordered_map_equalIiS8_SD_SB_Lb1EEENS5_IS8_EEE17__deallocate_nodeEPNS_16__hash_node_baseIPNS_11__hash_nodeIS8_PvEEEE, symObjAddr: 0x9C4C, symBinAddr: 0x10000B19C, symSize: 0xB8 }
  - { offset: 0x38151, size: 0x8, addend: 0x0, symName: __ZNSt3__117__compressed_pairINS_16__hash_node_baseIPNS_11__hash_nodeINS_17__hash_value_typeIiNS_12basic_stringIcNS_11char_traitsIcEENS_9allocatorIcEEEEEEPvEEEENS7_ISC_EEE5firstB8ne180100Ev, symObjAddr: 0x9D04, symBinAddr: 0x10000B254, symSize: 0x24 }
  - { offset: 0x38177, size: 0x8, addend: 0x0, symName: __ZNSt3__110unique_ptrIA_PNS_16__hash_node_baseIPNS_11__hash_nodeINS_17__hash_value_typeIiNS_12basic_stringIcNS_11char_traitsIcEENS_9allocatorIcEEEEEEPvEEEENS_25__bucket_list_deallocatorINS7_ISF_EEEEED1B8ne180100Ev, symObjAddr: 0x9D28, symBinAddr: 0x10000B278, symSize: 0x2C }
  - { offset: 0x381A1, size: 0x8, addend: 0x0, symName: __ZNSt3__112__hash_tableINS_17__hash_value_typeIiNS_12basic_stringIcNS_11char_traitsIcEENS_9allocatorIcEEEEEENS_22__unordered_map_hasherIiS8_NS_4hashIiEENS_8equal_toIiEELb1EEENS_21__unordered_map_equalIiS8_SD_SB_Lb1EEENS5_IS8_EEE12__node_allocB8ne180100Ev, symObjAddr: 0x9D54, symBinAddr: 0x10000B2A4, symSize: 0x28 }
  - { offset: 0x381C7, size: 0x8, addend: 0x0, symName: __ZNSt3__116__hash_node_baseIPNS_11__hash_nodeINS_17__hash_value_typeIiNS_12basic_stringIcNS_11char_traitsIcEENS_9allocatorIcEEEEEEPvEEE8__upcastB8ne180100Ev, symObjAddr: 0x9D7C, symBinAddr: 0x10000B2CC, symSize: 0x24 }
  - { offset: 0x381F3, size: 0x8, addend: 0x0, symName: __ZNSt3__116allocator_traitsINS_9allocatorINS_11__hash_nodeINS_17__hash_value_typeIiNS_12basic_stringIcNS_11char_traitsIcEENS1_IcEEEEEEPvEEEEE7destroyB8ne180100INS_4pairIKiS8_EEvvEEvRSC_PT_, symObjAddr: 0x9DA0, symBinAddr: 0x10000B2F0, symSize: 0x28 }
  - { offset: 0x3822D, size: 0x8, addend: 0x0, symName: __ZNSt3__122__hash_key_value_typesINS_17__hash_value_typeIiNS_12basic_stringIcNS_11char_traitsIcEENS_9allocatorIcEEEEEEE9__get_ptrB8ne180100ERS8_, symObjAddr: 0x9DC8, symBinAddr: 0x10000B318, symSize: 0x24 }
  - { offset: 0x38250, size: 0x8, addend: 0x0, symName: __ZNSt3__111__hash_nodeINS_17__hash_value_typeIiNS_12basic_stringIcNS_11char_traitsIcEENS_9allocatorIcEEEEEEPvE11__get_valueB8ne180100Ev, symObjAddr: 0x9DEC, symBinAddr: 0x10000B33C, symSize: 0x18 }
  - { offset: 0x38276, size: 0x8, addend: 0x0, symName: __ZNSt3__116allocator_traitsINS_9allocatorINS_11__hash_nodeINS_17__hash_value_typeIiNS_12basic_stringIcNS_11char_traitsIcEENS1_IcEEEEEEPvEEEEE10deallocateB8ne180100ERSC_PSB_m, symObjAddr: 0x9E28, symBinAddr: 0x10000B378, symSize: 0x34 }
  - { offset: 0x382B8, size: 0x8, addend: 0x0, symName: __ZNSt3__117__compressed_pairINS_16__hash_node_baseIPNS_11__hash_nodeINS_17__hash_value_typeIiNS_12basic_stringIcNS_11char_traitsIcEENS_9allocatorIcEEEEEEPvEEEENS7_ISC_EEE6secondB8ne180100Ev, symObjAddr: 0x9E5C, symBinAddr: 0x10000B3AC, symSize: 0x24 }
  - { offset: 0x382DE, size: 0x8, addend: 0x0, symName: __ZNSt3__122__compressed_pair_elemINS_9allocatorINS_11__hash_nodeINS_17__hash_value_typeIiNS_12basic_stringIcNS_11char_traitsIcEENS1_IcEEEEEEPvEEEELi1ELb1EE5__getB8ne180100Ev, symObjAddr: 0x9E80, symBinAddr: 0x10000B3D0, symSize: 0x14 }
  - { offset: 0x38304, size: 0x8, addend: 0x0, symName: __ZNSt3__114pointer_traitsIPNS_16__hash_node_baseIPNS_11__hash_nodeINS_17__hash_value_typeIiNS_12basic_stringIcNS_11char_traitsIcEENS_9allocatorIcEEEEEEPvEEEEE10pointer_toB8ne180100ERSE_, symObjAddr: 0x9E94, symBinAddr: 0x10000B3E4, symSize: 0x14 }
  - { offset: 0x38327, size: 0x8, addend: 0x0, symName: __ZNSt3__14pairIKiNS_12basic_stringIcNS_11char_traitsIcEENS_9allocatorIcEEEEED1Ev, symObjAddr: 0x9ECC, symBinAddr: 0x10000B41C, symSize: 0x2C }
  - { offset: 0x38353, size: 0x8, addend: 0x0, symName: __ZNSt3__14pairIKiNS_12basic_stringIcNS_11char_traitsIcEENS_9allocatorIcEEEEED2Ev, symObjAddr: 0x9EF8, symBinAddr: 0x10000B448, symSize: 0x30 }
  - { offset: 0x3837F, size: 0x8, addend: 0x0, symName: __ZNSt3__117__hash_value_typeIiNS_12basic_stringIcNS_11char_traitsIcEENS_9allocatorIcEEEEE11__get_valueB8ne180100Ev, symObjAddr: 0x9F28, symBinAddr: 0x10000B478, symSize: 0x14 }
  - { offset: 0x383A5, size: 0x8, addend: 0x0, symName: __ZNSt3__111__hash_nodeINS_17__hash_value_typeIiNS_12basic_stringIcNS_11char_traitsIcEENS_9allocatorIcEEEEEEPvED1B8ne180100Ev, symObjAddr: 0x9F3C, symBinAddr: 0x10000B48C, symSize: 0x2C }
  - { offset: 0x383CF, size: 0x8, addend: 0x0, symName: __ZNSt3__111__hash_nodeINS_17__hash_value_typeIiNS_12basic_stringIcNS_11char_traitsIcEENS_9allocatorIcEEEEEEPvED2B8ne180100Ev, symObjAddr: 0x9F68, symBinAddr: 0x10000B4B8, symSize: 0x14 }
  - { offset: 0x383F9, size: 0x8, addend: 0x0, symName: __ZNSt3__19allocatorINS_11__hash_nodeINS_17__hash_value_typeIiNS_12basic_stringIcNS_11char_traitsIcEENS0_IcEEEEEEPvEEE10deallocateB8ne180100EPSA_m, symObjAddr: 0x9F7C, symBinAddr: 0x10000B4CC, symSize: 0x44 }
  - { offset: 0x3843B, size: 0x8, addend: 0x0, symName: __ZNSt3__122__compressed_pair_elemINS_16__hash_node_baseIPNS_11__hash_nodeINS_17__hash_value_typeIiNS_12basic_stringIcNS_11char_traitsIcEENS_9allocatorIcEEEEEEPvEEEELi0ELb0EE5__getB8ne180100Ev, symObjAddr: 0x9FC0, symBinAddr: 0x10000B510, symSize: 0x14 }
  - { offset: 0x38461, size: 0x8, addend: 0x0, symName: __ZNSt3__110unique_ptrIA_PNS_16__hash_node_baseIPNS_11__hash_nodeINS_17__hash_value_typeIiNS_12basic_stringIcNS_11char_traitsIcEENS_9allocatorIcEEEEEEPvEEEENS_25__bucket_list_deallocatorINS7_ISF_EEEEED2B8ne180100Ev, symObjAddr: 0x9FD4, symBinAddr: 0x10000B524, symSize: 0x30 }
  - { offset: 0x3848B, size: 0x8, addend: 0x0, symName: __ZNSt3__110unique_ptrIA_PNS_16__hash_node_baseIPNS_11__hash_nodeINS_17__hash_value_typeIiNS_12basic_stringIcNS_11char_traitsIcEENS_9allocatorIcEEEEEEPvEEEENS_25__bucket_list_deallocatorINS7_ISF_EEEEE5resetB8ne180100EDn, symObjAddr: 0xA004, symBinAddr: 0x10000B554, symSize: 0x64 }
  - { offset: 0x384CB, size: 0x8, addend: 0x0, symName: __ZNSt3__117__compressed_pairIPPNS_16__hash_node_baseIPNS_11__hash_nodeINS_17__hash_value_typeIiNS_12basic_stringIcNS_11char_traitsIcEENS_9allocatorIcEEEEEEPvEEEENS_25__bucket_list_deallocatorINS7_ISF_EEEEE5firstB8ne180100Ev, symObjAddr: 0xA068, symBinAddr: 0x10000B5B8, symSize: 0x24 }
  - { offset: 0x384F1, size: 0x8, addend: 0x0, symName: __ZNSt3__117__compressed_pairIPPNS_16__hash_node_baseIPNS_11__hash_nodeINS_17__hash_value_typeIiNS_12basic_stringIcNS_11char_traitsIcEENS_9allocatorIcEEEEEEPvEEEENS_25__bucket_list_deallocatorINS7_ISF_EEEEE6secondB8ne180100Ev, symObjAddr: 0xA08C, symBinAddr: 0x10000B5DC, symSize: 0x28 }
  - { offset: 0x38517, size: 0x8, addend: 0x0, symName: __ZNSt3__125__bucket_list_deallocatorINS_9allocatorIPNS_16__hash_node_baseIPNS_11__hash_nodeINS_17__hash_value_typeIiNS_12basic_stringIcNS_11char_traitsIcEENS1_IcEEEEEEPvEEEEEEEclB8ne180100EPSF_, symObjAddr: 0xA0B4, symBinAddr: 0x10000B604, symSize: 0x58 }
  - { offset: 0x3854C, size: 0x8, addend: 0x0, symName: __ZNSt3__122__compressed_pair_elemIPPNS_16__hash_node_baseIPNS_11__hash_nodeINS_17__hash_value_typeIiNS_12basic_stringIcNS_11char_traitsIcEENS_9allocatorIcEEEEEEPvEEEELi0ELb0EE5__getB8ne180100Ev, symObjAddr: 0xA10C, symBinAddr: 0x10000B65C, symSize: 0x14 }
  - { offset: 0x38572, size: 0x8, addend: 0x0, symName: __ZNSt3__122__compressed_pair_elemINS_25__bucket_list_deallocatorINS_9allocatorIPNS_16__hash_node_baseIPNS_11__hash_nodeINS_17__hash_value_typeIiNS_12basic_stringIcNS_11char_traitsIcEENS2_IcEEEEEEPvEEEEEEEELi1ELb0EE5__getB8ne180100Ev, symObjAddr: 0xA120, symBinAddr: 0x10000B670, symSize: 0x14 }
  - { offset: 0x38598, size: 0x8, addend: 0x0, symName: __ZNSt3__116allocator_traitsINS_9allocatorIPNS_16__hash_node_baseIPNS_11__hash_nodeINS_17__hash_value_typeIiNS_12basic_stringIcNS_11char_traitsIcEENS1_IcEEEEEEPvEEEEEEE10deallocateB8ne180100ERSG_PSF_m, symObjAddr: 0xA134, symBinAddr: 0x10000B684, symSize: 0x34 }
  - { offset: 0x385DA, size: 0x8, addend: 0x0, symName: __ZNSt3__125__bucket_list_deallocatorINS_9allocatorIPNS_16__hash_node_baseIPNS_11__hash_nodeINS_17__hash_value_typeIiNS_12basic_stringIcNS_11char_traitsIcEENS1_IcEEEEEEPvEEEEEEE7__allocB8ne180100Ev, symObjAddr: 0xA168, symBinAddr: 0x10000B6B8, symSize: 0x24 }
  - { offset: 0x38600, size: 0x8, addend: 0x0, symName: __ZNSt3__125__bucket_list_deallocatorINS_9allocatorIPNS_16__hash_node_baseIPNS_11__hash_nodeINS_17__hash_value_typeIiNS_12basic_stringIcNS_11char_traitsIcEENS1_IcEEEEEEPvEEEEEEE4sizeB8ne180100Ev, symObjAddr: 0xA18C, symBinAddr: 0x10000B6DC, symSize: 0x24 }
  - { offset: 0x38626, size: 0x8, addend: 0x0, symName: __ZNSt3__19allocatorIPNS_16__hash_node_baseIPNS_11__hash_nodeINS_17__hash_value_typeIiNS_12basic_stringIcNS_11char_traitsIcEENS0_IcEEEEEEPvEEEEE10deallocateB8ne180100EPSE_m, symObjAddr: 0xA1B0, symBinAddr: 0x10000B700, symSize: 0x40 }
  - { offset: 0x38668, size: 0x8, addend: 0x0, symName: __ZNSt3__117__compressed_pairImNS_9allocatorIPNS_16__hash_node_baseIPNS_11__hash_nodeINS_17__hash_value_typeIiNS_12basic_stringIcNS_11char_traitsIcEENS1_IcEEEEEEPvEEEEEEE6secondB8ne180100Ev, symObjAddr: 0xA1F0, symBinAddr: 0x10000B740, symSize: 0x24 }
  - { offset: 0x3868E, size: 0x8, addend: 0x0, symName: __ZNSt3__122__compressed_pair_elemINS_9allocatorIPNS_16__hash_node_baseIPNS_11__hash_nodeINS_17__hash_value_typeIiNS_12basic_stringIcNS_11char_traitsIcEENS1_IcEEEEEEPvEEEEEELi1ELb1EE5__getB8ne180100Ev, symObjAddr: 0xA214, symBinAddr: 0x10000B764, symSize: 0x14 }
  - { offset: 0x386B4, size: 0x8, addend: 0x0, symName: __ZNSt3__117__compressed_pairImNS_9allocatorIPNS_16__hash_node_baseIPNS_11__hash_nodeINS_17__hash_value_typeIiNS_12basic_stringIcNS_11char_traitsIcEENS1_IcEEEEEEPvEEEEEEE5firstB8ne180100Ev, symObjAddr: 0xA228, symBinAddr: 0x10000B778, symSize: 0x24 }
  - { offset: 0x386DA, size: 0x8, addend: 0x0, symName: __ZNSt3__13mapIiNS_12basic_stringIcNS_11char_traitsIcEENS_9allocatorIcEEEENS_4lessIiEENS4_INS_4pairIKiS6_EEEEED2B8ne180100Ev, symObjAddr: 0xA24C, symBinAddr: 0x10000B79C, symSize: 0x2C }
  - { offset: 0x38704, size: 0x8, addend: 0x0, symName: __ZNSt3__16__treeINS_12__value_typeIiNS_12basic_stringIcNS_11char_traitsIcEENS_9allocatorIcEEEEEENS_19__map_value_compareIiS8_NS_4lessIiEELb1EEENS5_IS8_EEED1Ev, symObjAddr: 0xA278, symBinAddr: 0x10000B7C8, symSize: 0x2C }
  - { offset: 0x38730, size: 0x8, addend: 0x0, symName: __ZNSt3__16__treeINS_12__value_typeIiNS_12basic_stringIcNS_11char_traitsIcEENS_9allocatorIcEEEEEENS_19__map_value_compareIiS8_NS_4lessIiEELb1EEENS5_IS8_EEED2Ev, symObjAddr: 0xA2A4, symBinAddr: 0x10000B7F4, symSize: 0x38 }
  - { offset: 0x3875C, size: 0x8, addend: 0x0, symName: __ZNSt3__16__treeINS_12__value_typeIiNS_12basic_stringIcNS_11char_traitsIcEENS_9allocatorIcEEEEEENS_19__map_value_compareIiS8_NS_4lessIiEELb1EEENS5_IS8_EEE7destroyEPNS_11__tree_nodeIS8_PvEE, symObjAddr: 0xA2DC, symBinAddr: 0x10000B82C, symSize: 0xA4 }
  - { offset: 0x387A8, size: 0x8, addend: 0x0, symName: __ZNKSt3__16__treeINS_12__value_typeIiNS_12basic_stringIcNS_11char_traitsIcEENS_9allocatorIcEEEEEENS_19__map_value_compareIiS8_NS_4lessIiEELb1EEENS5_IS8_EEE6__rootB8ne180100Ev, symObjAddr: 0xA380, symBinAddr: 0x10000B8D0, symSize: 0x28 }
  - { offset: 0x387CE, size: 0x8, addend: 0x0, symName: __ZNSt3__16__treeINS_12__value_typeIiNS_12basic_stringIcNS_11char_traitsIcEENS_9allocatorIcEEEEEENS_19__map_value_compareIiS8_NS_4lessIiEELb1EEENS5_IS8_EEE12__node_allocB8ne180100Ev, symObjAddr: 0xA3A8, symBinAddr: 0x10000B8F8, symSize: 0x28 }
  - { offset: 0x387FA, size: 0x8, addend: 0x0, symName: __ZNSt3__116allocator_traitsINS_9allocatorINS_11__tree_nodeINS_12__value_typeIiNS_12basic_stringIcNS_11char_traitsIcEENS1_IcEEEEEEPvEEEEE7destroyB8ne180100INS_4pairIKiS8_EEvvEEvRSC_PT_, symObjAddr: 0xA3D0, symBinAddr: 0x10000B920, symSize: 0x28 }
  - { offset: 0x38834, size: 0x8, addend: 0x0, symName: __ZNSt3__122__tree_key_value_typesINS_12__value_typeIiNS_12basic_stringIcNS_11char_traitsIcEENS_9allocatorIcEEEEEEE9__get_ptrB8ne180100ERS8_, symObjAddr: 0xA3F8, symBinAddr: 0x10000B948, symSize: 0x24 }
  - { offset: 0x38858, size: 0x8, addend: 0x0, symName: __ZNSt3__116allocator_traitsINS_9allocatorINS_11__tree_nodeINS_12__value_typeIiNS_12basic_stringIcNS_11char_traitsIcEENS1_IcEEEEEEPvEEEEE10deallocateB8ne180100ERSC_PSB_m, symObjAddr: 0xA41C, symBinAddr: 0x10000B96C, symSize: 0x34 }
  - { offset: 0x3889A, size: 0x8, addend: 0x0, symName: __ZNSt3__117__compressed_pairINS_15__tree_end_nodeIPNS_16__tree_node_baseIPvEEEENS_9allocatorINS_11__tree_nodeINS_12__value_typeIiNS_12basic_stringIcNS_11char_traitsIcEENS7_IcEEEEEES3_EEEEE6secondB8ne180100Ev, symObjAddr: 0xA450, symBinAddr: 0x10000B9A0, symSize: 0x24 }
  - { offset: 0x388C0, size: 0x8, addend: 0x0, symName: __ZNSt3__122__compressed_pair_elemINS_9allocatorINS_11__tree_nodeINS_12__value_typeIiNS_12basic_stringIcNS_11char_traitsIcEENS1_IcEEEEEEPvEEEELi1ELb1EE5__getB8ne180100Ev, symObjAddr: 0xA474, symBinAddr: 0x10000B9C4, symSize: 0x14 }
  - { offset: 0x388E6, size: 0x8, addend: 0x0, symName: __ZNSt3__112__value_typeIiNS_12basic_stringIcNS_11char_traitsIcEENS_9allocatorIcEEEEE11__get_valueB8ne180100Ev, symObjAddr: 0xA488, symBinAddr: 0x10000B9D8, symSize: 0x14 }
  - { offset: 0x3890C, size: 0x8, addend: 0x0, symName: __ZNSt3__19allocatorINS_11__tree_nodeINS_12__value_typeIiNS_12basic_stringIcNS_11char_traitsIcEENS0_IcEEEEEEPvEEE10deallocateB8ne180100EPSA_m, symObjAddr: 0xA49C, symBinAddr: 0x10000B9EC, symSize: 0x40 }
  - { offset: 0x3894E, size: 0x8, addend: 0x0, symName: __ZNKSt3__16__treeINS_12__value_typeIiNS_12basic_stringIcNS_11char_traitsIcEENS_9allocatorIcEEEEEENS_19__map_value_compareIiS8_NS_4lessIiEELb1EEENS5_IS8_EEE10__end_nodeB8ne180100Ev, symObjAddr: 0xA4DC, symBinAddr: 0x10000BA2C, symSize: 0x2C }
  - { offset: 0x38974, size: 0x8, addend: 0x0, symName: __ZNSt3__114pointer_traitsIPNS_15__tree_end_nodeIPNS_16__tree_node_baseIPvEEEEE10pointer_toB8ne180100ERS6_, symObjAddr: 0xA508, symBinAddr: 0x10000BA58, symSize: 0x14 }
  - { offset: 0x38997, size: 0x8, addend: 0x0, symName: __ZNKSt3__117__compressed_pairINS_15__tree_end_nodeIPNS_16__tree_node_baseIPvEEEENS_9allocatorINS_11__tree_nodeINS_12__value_typeIiNS_12basic_stringIcNS_11char_traitsIcEENS7_IcEEEEEES3_EEEEE5firstB8ne180100Ev, symObjAddr: 0xA51C, symBinAddr: 0x10000BA6C, symSize: 0x24 }
  - { offset: 0x389BD, size: 0x8, addend: 0x0, symName: __ZNKSt3__122__compressed_pair_elemINS_15__tree_end_nodeIPNS_16__tree_node_baseIPvEEEELi0ELb0EE5__getB8ne180100Ev, symObjAddr: 0xA540, symBinAddr: 0x10000BA90, symSize: 0x14 }
  - { offset: 0x389E3, size: 0x8, addend: 0x0, symName: __ZNSt3__112basic_stringIcNS_11char_traitsIcEENS_9allocatorIcEEEC2B8ne180100ILi0EEEPKc, symObjAddr: 0xA554, symBinAddr: 0x10000BAA4, symSize: 0x58 }
  - { offset: 0x38A22, size: 0x8, addend: 0x0, symName: __ZNSt3__117__compressed_pairINS_12basic_stringIcNS_11char_traitsIcEENS_9allocatorIcEEE5__repES5_EC1B8ne180100INS_18__default_init_tagESA_EEOT_OT0_, symObjAddr: 0xA5AC, symBinAddr: 0x10000BAFC, symSize: 0x3C }
  - { offset: 0x38A7A, size: 0x8, addend: 0x0, symName: __ZNSt3__111char_traitsIcE6lengthB8ne180100EPKc, symObjAddr: 0xA5E8, symBinAddr: 0x10000BB38, symSize: 0x34 }
  - { offset: 0x38A9D, size: 0x8, addend: 0x0, symName: __ZNSt3__117__compressed_pairINS_12basic_stringIcNS_11char_traitsIcEENS_9allocatorIcEEE5__repES5_EC2B8ne180100INS_18__default_init_tagESA_EEOT_OT0_, symObjAddr: 0xA61C, symBinAddr: 0x10000BB6C, symSize: 0x3C }
  - { offset: 0x38AF5, size: 0x8, addend: 0x0, symName: __ZNSt3__122__compressed_pair_elemINS_12basic_stringIcNS_11char_traitsIcEENS_9allocatorIcEEE5__repELi0ELb0EEC2B8ne180100ENS_18__default_init_tagE, symObjAddr: 0xA658, symBinAddr: 0x10000BBA8, symSize: 0x14 }
  - { offset: 0x38B29, size: 0x8, addend: 0x0, symName: __ZNSt3__122__compressed_pair_elemINS_9allocatorIcEELi1ELb1EEC2B8ne180100ENS_18__default_init_tagE, symObjAddr: 0xA66C, symBinAddr: 0x10000BBBC, symSize: 0x2C }
  - { offset: 0x38B5D, size: 0x8, addend: 0x0, symName: __ZNSt3__19allocatorIcEC2B8ne180100Ev, symObjAddr: 0xA698, symBinAddr: 0x10000BBE8, symSize: 0x2C }
  - { offset: 0x38B87, size: 0x8, addend: 0x0, symName: __ZNSt3__116__non_trivial_ifILb1ENS_9allocatorIcEEEC2B8ne180100Ev, symObjAddr: 0xA6C4, symBinAddr: 0x10000BC14, symSize: 0x14 }
  - { offset: 0x38BB1, size: 0x8, addend: 0x0, symName: __ZNKSt3__112basic_stringIcNS_11char_traitsIcEENS_9allocatorIcEEE4dataB8ne180100Ev, symObjAddr: 0xA8E4, symBinAddr: 0x10000BE34, symSize: 0x28 }
  - { offset: 0x38BF8, size: 0x8, addend: 0x0, symName: __ZNKSt3__113basic_ostreamIcNS_11char_traitsIcEEE6sentrycvbB8ne180100Ev, symObjAddr: 0xA90C, symBinAddr: 0x10000BE5C, symSize: 0x1C }
  - { offset: 0x38C1E, size: 0x8, addend: 0x0, symName: __ZNSt3__119ostreambuf_iteratorIcNS_11char_traitsIcEEEC1B8ne180100ERNS_13basic_ostreamIcS2_EE, symObjAddr: 0xAB3C, symBinAddr: 0x10000C08C, symSize: 0x34 }
  - { offset: 0x38C56, size: 0x8, addend: 0x0, symName: __ZNKSt3__18ios_base5flagsB8ne180100Ev, symObjAddr: 0xAB70, symBinAddr: 0x10000C0C0, symSize: 0x18 }
  - { offset: 0x38C7E, size: 0x8, addend: 0x0, symName: __ZNKSt3__19basic_iosIcNS_11char_traitsIcEEE4fillB8ne180100Ev, symObjAddr: 0xAB88, symBinAddr: 0x10000C0D8, symSize: 0x64 }
  - { offset: 0x38CA6, size: 0x8, addend: 0x0, symName: __ZNKSt3__119ostreambuf_iteratorIcNS_11char_traitsIcEEE6failedB8ne180100Ev, symObjAddr: 0xABEC, symBinAddr: 0x10000C13C, symSize: 0x20 }
  - { offset: 0x38CCC, size: 0x8, addend: 0x0, symName: __ZNSt3__19basic_iosIcNS_11char_traitsIcEEE8setstateB8ne180100Ej, symObjAddr: 0xAC0C, symBinAddr: 0x10000C15C, symSize: 0x2C }
  - { offset: 0x38D01, size: 0x8, addend: 0x0, symName: __ZNKSt3__18ios_base5widthB8ne180100Ev, symObjAddr: 0xAC38, symBinAddr: 0x10000C188, symSize: 0x18 }
  - { offset: 0x38D29, size: 0x8, addend: 0x0, symName: __ZNSt3__115basic_streambufIcNS_11char_traitsIcEEE5sputnB8ne180100EPKcl, symObjAddr: 0xAC50, symBinAddr: 0x10000C1A0, symSize: 0x3C }
  - { offset: 0x38D6B, size: 0x8, addend: 0x0, symName: __ZNSt3__112basic_stringIcNS_11char_traitsIcEENS_9allocatorIcEEEC1B8ne180100Emc, symObjAddr: 0xAC8C, symBinAddr: 0x10000C1DC, symSize: 0x3C }
  - { offset: 0x38DB3, size: 0x8, addend: 0x0, symName: __ZNSt3__18ios_base5widthB8ne180100El, symObjAddr: 0xACC8, symBinAddr: 0x10000C218, symSize: 0x2C }
  - { offset: 0x38DF9, size: 0x8, addend: 0x0, symName: __ZNSt3__112basic_stringIcNS_11char_traitsIcEENS_9allocatorIcEEEC2B8ne180100Emc, symObjAddr: 0xACF4, symBinAddr: 0x10000C244, symSize: 0x4C }
  - { offset: 0x38E41, size: 0x8, addend: 0x0, symName: __ZNSt3__119ostreambuf_iteratorIcNS_11char_traitsIcEEEC2B8ne180100ERNS_13basic_ostreamIcS2_EE, symObjAddr: 0xAD40, symBinAddr: 0x10000C290, symSize: 0x54 }
  - { offset: 0x38E79, size: 0x8, addend: 0x0, symName: __ZNKSt3__19basic_iosIcNS_11char_traitsIcEEE5rdbufB8ne180100Ev, symObjAddr: 0xAD94, symBinAddr: 0x10000C2E4, symSize: 0x24 }
  - { offset: 0x38EA1, size: 0x8, addend: 0x0, symName: __ZNKSt3__18ios_base5rdbufB8ne180100Ev, symObjAddr: 0xADB8, symBinAddr: 0x10000C308, symSize: 0x18 }
  - { offset: 0x38EC7, size: 0x8, addend: 0x0, symName: __ZNSt3__111char_traitsIcE11eq_int_typeB8ne180100Eii, symObjAddr: 0xADD0, symBinAddr: 0x10000C320, symSize: 0x24 }
  - { offset: 0x38EFA, size: 0x8, addend: 0x0, symName: __ZNSt3__111char_traitsIcE3eofB8ne180100Ev, symObjAddr: 0xADF4, symBinAddr: 0x10000C344, symSize: 0x8 }
  - { offset: 0x38F0E, size: 0x8, addend: 0x0, symName: __ZNKSt3__19basic_iosIcNS_11char_traitsIcEEE5widenB8ne180100Ec, symObjAddr: 0xADFC, symBinAddr: 0x10000C34C, symSize: 0x84 }
  - { offset: 0x38F82, size: 0x8, addend: 0x0, symName: __ZNKSt3__15ctypeIcE5widenB8ne180100Ec, symObjAddr: 0xAEAC, symBinAddr: 0x10000C3FC, symSize: 0x38 }
  - { offset: 0x38FB7, size: 0x8, addend: 0x0, symName: __ZNSt3__18ios_base8setstateB8ne180100Ej, symObjAddr: 0xAEE4, symBinAddr: 0x10000C434, symSize: 0x34 }
  - { offset: 0x38FEE, size: 0x8, addend: 0x0, symName: __ZNKSt3__112basic_stringIcNS_11char_traitsIcEENS_9allocatorIcEEE13__get_pointerB8ne180100Ev, symObjAddr: 0xAF2C, symBinAddr: 0x10000C47C, symSize: 0x54 }
  - { offset: 0x39014, size: 0x8, addend: 0x0, symName: __ZNKSt3__112basic_stringIcNS_11char_traitsIcEENS_9allocatorIcEEE9__is_longB8ne180100Ev, symObjAddr: 0xAF80, symBinAddr: 0x10000C4D0, symSize: 0x34 }
  - { offset: 0x3903A, size: 0x8, addend: 0x0, symName: __ZNKSt3__112basic_stringIcNS_11char_traitsIcEENS_9allocatorIcEEE18__get_long_pointerB8ne180100Ev, symObjAddr: 0xAFB4, symBinAddr: 0x10000C504, symSize: 0x28 }
  - { offset: 0x39060, size: 0x8, addend: 0x0, symName: __ZNKSt3__112basic_stringIcNS_11char_traitsIcEENS_9allocatorIcEEE19__get_short_pointerB8ne180100Ev, symObjAddr: 0xAFDC, symBinAddr: 0x10000C52C, symSize: 0x28 }
  - { offset: 0x39086, size: 0x8, addend: 0x0, symName: __ZNKSt3__117__compressed_pairINS_12basic_stringIcNS_11char_traitsIcEENS_9allocatorIcEEE5__repES5_E5firstB8ne180100Ev, symObjAddr: 0xB004, symBinAddr: 0x10000C554, symSize: 0x24 }
  - { offset: 0x390AC, size: 0x8, addend: 0x0, symName: __ZNKSt3__122__compressed_pair_elemINS_12basic_stringIcNS_11char_traitsIcEENS_9allocatorIcEEE5__repELi0ELb0EE5__getB8ne180100Ev, symObjAddr: 0xB028, symBinAddr: 0x10000C578, symSize: 0x14 }
  - { offset: 0x390D2, size: 0x8, addend: 0x0, symName: __ZNSt3__114pointer_traitsIPKcE10pointer_toB8ne180100ERS1_, symObjAddr: 0xB03C, symBinAddr: 0x10000C58C, symSize: 0x14 }
  - { offset: 0x390F5, size: 0x8, addend: 0x0, symName: __ZNSt3__13mapINS_12basic_stringIcNS_11char_traitsIcEENS_9allocatorIcEEEEiNS_4lessIS6_EENS4_INS_4pairIKS6_iEEEEED2B8ne180100Ev, symObjAddr: 0xB050, symBinAddr: 0x10000C5A0, symSize: 0x2C }
  - { offset: 0x3911F, size: 0x8, addend: 0x0, symName: __ZNSt3__16__treeINS_12__value_typeINS_12basic_stringIcNS_11char_traitsIcEENS_9allocatorIcEEEEiEENS_19__map_value_compareIS7_S8_NS_4lessIS7_EELb1EEENS5_IS8_EEED1Ev, symObjAddr: 0xB07C, symBinAddr: 0x10000C5CC, symSize: 0x2C }
  - { offset: 0x3914B, size: 0x8, addend: 0x0, symName: __ZNSt3__16__treeINS_12__value_typeINS_12basic_stringIcNS_11char_traitsIcEENS_9allocatorIcEEEEiEENS_19__map_value_compareIS7_S8_NS_4lessIS7_EELb1EEENS5_IS8_EEED2Ev, symObjAddr: 0xB0A8, symBinAddr: 0x10000C5F8, symSize: 0x38 }
  - { offset: 0x39177, size: 0x8, addend: 0x0, symName: __ZNSt3__16__treeINS_12__value_typeINS_12basic_stringIcNS_11char_traitsIcEENS_9allocatorIcEEEEiEENS_19__map_value_compareIS7_S8_NS_4lessIS7_EELb1EEENS5_IS8_EEE7destroyEPNS_11__tree_nodeIS8_PvEE, symObjAddr: 0xB0E0, symBinAddr: 0x10000C630, symSize: 0xA4 }
  - { offset: 0x391C3, size: 0x8, addend: 0x0, symName: __ZNKSt3__16__treeINS_12__value_typeINS_12basic_stringIcNS_11char_traitsIcEENS_9allocatorIcEEEEiEENS_19__map_value_compareIS7_S8_NS_4lessIS7_EELb1EEENS5_IS8_EEE6__rootB8ne180100Ev, symObjAddr: 0xB184, symBinAddr: 0x10000C6D4, symSize: 0x28 }
  - { offset: 0x391E9, size: 0x8, addend: 0x0, symName: __ZNSt3__16__treeINS_12__value_typeINS_12basic_stringIcNS_11char_traitsIcEENS_9allocatorIcEEEEiEENS_19__map_value_compareIS7_S8_NS_4lessIS7_EELb1EEENS5_IS8_EEE12__node_allocB8ne180100Ev, symObjAddr: 0xB1AC, symBinAddr: 0x10000C6FC, symSize: 0x28 }
  - { offset: 0x3920F, size: 0x8, addend: 0x0, symName: __ZNSt3__116allocator_traitsINS_9allocatorINS_11__tree_nodeINS_12__value_typeINS_12basic_stringIcNS_11char_traitsIcEENS1_IcEEEEiEEPvEEEEE7destroyB8ne180100INS_4pairIKS8_iEEvvEEvRSC_PT_, symObjAddr: 0xB1D4, symBinAddr: 0x10000C724, symSize: 0x28 }
  - { offset: 0x39249, size: 0x8, addend: 0x0, symName: __ZNSt3__122__tree_key_value_typesINS_12__value_typeINS_12basic_stringIcNS_11char_traitsIcEENS_9allocatorIcEEEEiEEE9__get_ptrB8ne180100ERS8_, symObjAddr: 0xB1FC, symBinAddr: 0x10000C74C, symSize: 0x24 }
  - { offset: 0x3926D, size: 0x8, addend: 0x0, symName: __ZNSt3__116allocator_traitsINS_9allocatorINS_11__tree_nodeINS_12__value_typeINS_12basic_stringIcNS_11char_traitsIcEENS1_IcEEEEiEEPvEEEEE10deallocateB8ne180100ERSC_PSB_m, symObjAddr: 0xB220, symBinAddr: 0x10000C770, symSize: 0x34 }
  - { offset: 0x392AF, size: 0x8, addend: 0x0, symName: __ZNSt3__117__compressed_pairINS_15__tree_end_nodeIPNS_16__tree_node_baseIPvEEEENS_9allocatorINS_11__tree_nodeINS_12__value_typeINS_12basic_stringIcNS_11char_traitsIcEENS7_IcEEEEiEES3_EEEEE6secondB8ne180100Ev, symObjAddr: 0xB254, symBinAddr: 0x10000C7A4, symSize: 0x24 }
  - { offset: 0x392D5, size: 0x8, addend: 0x0, symName: __ZNSt3__122__compressed_pair_elemINS_9allocatorINS_11__tree_nodeINS_12__value_typeINS_12basic_stringIcNS_11char_traitsIcEENS1_IcEEEEiEEPvEEEELi1ELb1EE5__getB8ne180100Ev, symObjAddr: 0xB278, symBinAddr: 0x10000C7C8, symSize: 0x14 }
  - { offset: 0x392FB, size: 0x8, addend: 0x0, symName: __ZNSt3__112__value_typeINS_12basic_stringIcNS_11char_traitsIcEENS_9allocatorIcEEEEiE11__get_valueB8ne180100Ev, symObjAddr: 0xB28C, symBinAddr: 0x10000C7DC, symSize: 0x14 }
  - { offset: 0x39321, size: 0x8, addend: 0x0, symName: __ZNSt3__19allocatorINS_11__tree_nodeINS_12__value_typeINS_12basic_stringIcNS_11char_traitsIcEENS0_IcEEEEiEEPvEEE10deallocateB8ne180100EPSA_m, symObjAddr: 0xB2A0, symBinAddr: 0x10000C7F0, symSize: 0x40 }
  - { offset: 0x39363, size: 0x8, addend: 0x0, symName: __ZNKSt3__16__treeINS_12__value_typeINS_12basic_stringIcNS_11char_traitsIcEENS_9allocatorIcEEEEiEENS_19__map_value_compareIS7_S8_NS_4lessIS7_EELb1EEENS5_IS8_EEE10__end_nodeB8ne180100Ev, symObjAddr: 0xB2E0, symBinAddr: 0x10000C830, symSize: 0x2C }
  - { offset: 0x39389, size: 0x8, addend: 0x0, symName: __ZNKSt3__117__compressed_pairINS_15__tree_end_nodeIPNS_16__tree_node_baseIPvEEEENS_9allocatorINS_11__tree_nodeINS_12__value_typeINS_12basic_stringIcNS_11char_traitsIcEENS7_IcEEEEiEES3_EEEEE5firstB8ne180100Ev, symObjAddr: 0xB30C, symBinAddr: 0x10000C85C, symSize: 0x24 }
  - { offset: 0x393C6, size: 0x8, addend: 0x0, symName: __ZNSt3__16__treeINS_12__value_typeINS_12basic_stringIcNS_11char_traitsIcEENS_9allocatorIcEEEEiEENS_19__map_value_compareIS7_S8_NS_4lessIS7_EELb1EEENS5_IS8_EEE25__emplace_unique_key_argsIS7_JRKNS_21piecewise_construct_tENS_5tupleIJRKS7_EEENSJ_IJEEEEEENS_4pairINS_15__tree_iteratorIS8_PNS_11__tree_nodeIS8_PvEElEEbEERKT_DpOT0_, symObjAddr: 0xB330, symBinAddr: 0x10000C880, symSize: 0xF8 }
  - { offset: 0x3949A, size: 0x8, addend: 0x0, symName: __ZNKSt3__115__tree_iteratorINS_12__value_typeINS_12basic_stringIcNS_11char_traitsIcEENS_9allocatorIcEEEEiEEPNS_11__tree_nodeIS8_PvEElEptB8ne180100Ev, symObjAddr: 0xB458, symBinAddr: 0x10000C9A8, symSize: 0x2C }
  - { offset: 0x394C0, size: 0x8, addend: 0x0, symName: __ZNSt3__16__treeINS_12__value_typeINS_12basic_stringIcNS_11char_traitsIcEENS_9allocatorIcEEEEiEENS_19__map_value_compareIS7_S8_NS_4lessIS7_EELb1EEENS5_IS8_EEE12__find_equalIS7_EERPNS_16__tree_node_baseIPvEERPNS_15__tree_end_nodeISJ_EERKT_, symObjAddr: 0xB484, symBinAddr: 0x10000C9D4, symSize: 0x16C }
  - { offset: 0x3952B, size: 0x8, addend: 0x0, symName: __ZNSt3__16__treeINS_12__value_typeINS_12basic_stringIcNS_11char_traitsIcEENS_9allocatorIcEEEEiEENS_19__map_value_compareIS7_S8_NS_4lessIS7_EELb1EEENS5_IS8_EEE16__construct_nodeIJRKNS_21piecewise_construct_tENS_5tupleIJRKS7_EEENSJ_IJEEEEEENS_10unique_ptrINS_11__tree_nodeIS8_PvEENS_22__tree_node_destructorINS5_ISR_EEEEEEDpOT_, symObjAddr: 0xB5F0, symBinAddr: 0x10000CB40, symSize: 0x120 }
  - { offset: 0x395B2, size: 0x8, addend: 0x0, symName: __ZNSt3__16__treeINS_12__value_typeINS_12basic_stringIcNS_11char_traitsIcEENS_9allocatorIcEEEEiEENS_19__map_value_compareIS7_S8_NS_4lessIS7_EELb1EEENS5_IS8_EEE16__insert_node_atEPNS_15__tree_end_nodeIPNS_16__tree_node_baseIPvEEEERSJ_SJ_, symObjAddr: 0xB710, symBinAddr: 0x10000CC60, symSize: 0xC4 }
  - { offset: 0x39607, size: 0x8, addend: 0x0, symName: __ZNKSt3__110unique_ptrINS_11__tree_nodeINS_12__value_typeINS_12basic_stringIcNS_11char_traitsIcEENS_9allocatorIcEEEEiEEPvEENS_22__tree_node_destructorINS6_ISB_EEEEE3getB8ne180100Ev, symObjAddr: 0xB7D4, symBinAddr: 0x10000CD24, symSize: 0x28 }
  - { offset: 0x3962D, size: 0x8, addend: 0x0, symName: __ZNSt3__110unique_ptrINS_11__tree_nodeINS_12__value_typeINS_12basic_stringIcNS_11char_traitsIcEENS_9allocatorIcEEEEiEEPvEENS_22__tree_node_destructorINS6_ISB_EEEEE7releaseB8ne180100Ev, symObjAddr: 0xB7FC, symBinAddr: 0x10000CD4C, symSize: 0x44 }
  - { offset: 0x39662, size: 0x8, addend: 0x0, symName: __ZNSt3__110unique_ptrINS_11__tree_nodeINS_12__value_typeINS_12basic_stringIcNS_11char_traitsIcEENS_9allocatorIcEEEEiEEPvEENS_22__tree_node_destructorINS6_ISB_EEEEED1B8ne180100Ev, symObjAddr: 0xB840, symBinAddr: 0x10000CD90, symSize: 0x2C }
  - { offset: 0x3968C, size: 0x8, addend: 0x0, symName: __ZNSt3__115__tree_iteratorINS_12__value_typeINS_12basic_stringIcNS_11char_traitsIcEENS_9allocatorIcEEEEiEEPNS_11__tree_nodeIS8_PvEElEC1B8ne180100ESC_, symObjAddr: 0xB86C, symBinAddr: 0x10000CDBC, symSize: 0x34 }
  - { offset: 0x396CB, size: 0x8, addend: 0x0, symName: __ZNSt3__14pairINS_15__tree_iteratorINS_12__value_typeINS_12basic_stringIcNS_11char_traitsIcEENS_9allocatorIcEEEEiEEPNS_11__tree_nodeIS9_PvEElEEbEC1B8ne180100ISE_RbTnNS_9enable_ifIXclsr10_CheckArgsE17__enable_implicitIT_T0_EEEiE4typeELi0EEEOSJ_OSK_, symObjAddr: 0xB8A0, symBinAddr: 0x10000CDF0, symSize: 0x3C }
  - { offset: 0x39729, size: 0x8, addend: 0x0, symName: __ZNKSt3__16__treeINS_12__value_typeINS_12basic_stringIcNS_11char_traitsIcEENS_9allocatorIcEEEEiEENS_19__map_value_compareIS7_S8_NS_4lessIS7_EELb1EEENS5_IS8_EEE10__root_ptrB8ne180100Ev, symObjAddr: 0xB8DC, symBinAddr: 0x10000CE2C, symSize: 0x24 }
  - { offset: 0x3974F, size: 0x8, addend: 0x0, symName: __ZNSt3__16__treeINS_12__value_typeINS_12basic_stringIcNS_11char_traitsIcEENS_9allocatorIcEEEEiEENS_19__map_value_compareIS7_S8_NS_4lessIS7_EELb1EEENS5_IS8_EEE10value_compB8ne180100Ev, symObjAddr: 0xB900, symBinAddr: 0x10000CE50, symSize: 0x28 }
  - { offset: 0x39775, size: 0x8, addend: 0x0, symName: __ZNKSt3__119__map_value_compareINS_12basic_stringIcNS_11char_traitsIcEENS_9allocatorIcEEEENS_12__value_typeIS6_iEENS_4lessIS6_EELb1EEclB8ne180100ERKS6_RKS8_, symObjAddr: 0xB928, symBinAddr: 0x10000CE78, symSize: 0x4C }
  - { offset: 0x397B9, size: 0x8, addend: 0x0, symName: __ZNKSt3__119__map_value_compareINS_12basic_stringIcNS_11char_traitsIcEENS_9allocatorIcEEEENS_12__value_typeIS6_iEENS_4lessIS6_EELb1EEclB8ne180100ERKS8_RKS6_, symObjAddr: 0xB974, symBinAddr: 0x10000CEC4, symSize: 0x44 }
  - { offset: 0x397FD, size: 0x8, addend: 0x0, symName: __ZNSt3__16__treeINS_12__value_typeINS_12basic_stringIcNS_11char_traitsIcEENS_9allocatorIcEEEEiEENS_19__map_value_compareIS7_S8_NS_4lessIS7_EELb1EEENS5_IS8_EEE10__end_nodeB8ne180100Ev, symObjAddr: 0xB9B8, symBinAddr: 0x10000CF08, symSize: 0x2C }
  - { offset: 0x39823, size: 0x8, addend: 0x0, symName: __ZNSt3__117__compressed_pairImNS_19__map_value_compareINS_12basic_stringIcNS_11char_traitsIcEENS_9allocatorIcEEEENS_12__value_typeIS7_iEENS_4lessIS7_EELb1EEEE6secondB8ne180100Ev, symObjAddr: 0xB9E4, symBinAddr: 0x10000CF34, symSize: 0x24 }
  - { offset: 0x39849, size: 0x8, addend: 0x0, symName: __ZNSt3__122__compressed_pair_elemINS_19__map_value_compareINS_12basic_stringIcNS_11char_traitsIcEENS_9allocatorIcEEEENS_12__value_typeIS7_iEENS_4lessIS7_EELb1EEELi1ELb1EE5__getB8ne180100Ev, symObjAddr: 0xBA08, symBinAddr: 0x10000CF58, symSize: 0x14 }
  - { offset: 0x3986F, size: 0x8, addend: 0x0, symName: __ZNKSt3__14lessINS_12basic_stringIcNS_11char_traitsIcEENS_9allocatorIcEEEEEclB8ne180100ERKS6_S9_, symObjAddr: 0xBA1C, symBinAddr: 0x10000CF6C, symSize: 0x30 }
  - { offset: 0x398B3, size: 0x8, addend: 0x0, symName: __ZNKSt3__112__value_typeINS_12basic_stringIcNS_11char_traitsIcEENS_9allocatorIcEEEEiE11__get_valueB8ne180100Ev, symObjAddr: 0xBA4C, symBinAddr: 0x10000CF9C, symSize: 0x14 }
  - { offset: 0x398D9, size: 0x8, addend: 0x0, symName: __ZNKSt3__112basic_stringIcNS_11char_traitsIcEENS_9allocatorIcEEE7compareB8ne180100ERKS5_, symObjAddr: 0xBA94, symBinAddr: 0x10000CFE4, symSize: 0x4C }
  - { offset: 0x39910, size: 0x8, addend: 0x0, symName: __ZNKSt3__112basic_stringIcNS_11char_traitsIcEENS_9allocatorIcEEE7compareINS_17basic_string_viewIcS2_EETnNS_9enable_ifIXsr33__can_be_converted_to_string_viewIcS2_T_EE5valueEiE4typeELi0EEEiRKSA_, symObjAddr: 0xBAE0, symBinAddr: 0x10000D030, symSize: 0x11C }
  - { offset: 0x39991, size: 0x8, addend: 0x0, symName: __ZNKSt3__112basic_stringIcNS_11char_traitsIcEENS_9allocatorIcEEEcvNS_17basic_string_viewIcS2_EEB8ne180100Ev, symObjAddr: 0xBBFC, symBinAddr: 0x10000D14C, symSize: 0x50 }
  - { offset: 0x399B7, size: 0x8, addend: 0x0, symName: __ZNKSt3__117basic_string_viewIcNS_11char_traitsIcEEE4sizeB8ne180100Ev, symObjAddr: 0xBC4C, symBinAddr: 0x10000D19C, symSize: 0x18 }
  - { offset: 0x399DD, size: 0x8, addend: 0x0, symName: __ZNSt3__111char_traitsIcE7compareB8ne180100EPKcS3_m, symObjAddr: 0xBC64, symBinAddr: 0x10000D1B4, symSize: 0x34 }
  - { offset: 0x39A1C, size: 0x8, addend: 0x0, symName: __ZNKSt3__117basic_string_viewIcNS_11char_traitsIcEEE4dataB8ne180100Ev, symObjAddr: 0xBC98, symBinAddr: 0x10000D1E8, symSize: 0x18 }
  - { offset: 0x39A42, size: 0x8, addend: 0x0, symName: __ZNSt3__117basic_string_viewIcNS_11char_traitsIcEEEC1B8ne180100EPKcm, symObjAddr: 0xBCB0, symBinAddr: 0x10000D200, symSize: 0x3C }
  - { offset: 0x39A8A, size: 0x8, addend: 0x0, symName: __ZNSt3__117basic_string_viewIcNS_11char_traitsIcEEEC2B8ne180100EPKcm, symObjAddr: 0xBCEC, symBinAddr: 0x10000D23C, symSize: 0x2C }
  - { offset: 0x39AD2, size: 0x8, addend: 0x0, symName: __ZNSt3__117__compressed_pairINS_15__tree_end_nodeIPNS_16__tree_node_baseIPvEEEENS_9allocatorINS_11__tree_nodeINS_12__value_typeINS_12basic_stringIcNS_11char_traitsIcEENS7_IcEEEEiEES3_EEEEE5firstB8ne180100Ev, symObjAddr: 0xBD18, symBinAddr: 0x10000D268, symSize: 0x24 }
  - { offset: 0x39AF8, size: 0x8, addend: 0x0, symName: __ZNSt3__122__compressed_pair_elemINS_15__tree_end_nodeIPNS_16__tree_node_baseIPvEEEELi0ELb0EE5__getB8ne180100Ev, symObjAddr: 0xBD3C, symBinAddr: 0x10000D28C, symSize: 0x14 }
  - { offset: 0x39B1E, size: 0x8, addend: 0x0, symName: __ZNSt3__116allocator_traitsINS_9allocatorINS_11__tree_nodeINS_12__value_typeINS_12basic_stringIcNS_11char_traitsIcEENS1_IcEEEEiEEPvEEEEE8allocateB8ne180100ERSC_m, symObjAddr: 0xBD50, symBinAddr: 0x10000D2A0, symSize: 0x2C }
  - { offset: 0x39B51, size: 0x8, addend: 0x0, symName: __ZNSt3__122__tree_node_destructorINS_9allocatorINS_11__tree_nodeINS_12__value_typeINS_12basic_stringIcNS_11char_traitsIcEENS1_IcEEEEiEEPvEEEEEC1B8ne180100ERSC_b, symObjAddr: 0xBD7C, symBinAddr: 0x10000D2CC, symSize: 0x40 }
  - { offset: 0x39B9F, size: 0x8, addend: 0x0, symName: __ZNSt3__110unique_ptrINS_11__tree_nodeINS_12__value_typeINS_12basic_stringIcNS_11char_traitsIcEENS_9allocatorIcEEEEiEEPvEENS_22__tree_node_destructorINS6_ISB_EEEEEC1B8ne180100ILb1EvEEPSB_NS_16__dependent_typeINS_27__unique_ptr_deleter_sfinaeISE_EEXT_EE20__good_rval_ref_typeE, symObjAddr: 0xBDBC, symBinAddr: 0x10000D30C, symSize: 0x3C }
  - { offset: 0x39BF0, size: 0x8, addend: 0x0, symName: __ZNSt3__116allocator_traitsINS_9allocatorINS_11__tree_nodeINS_12__value_typeINS_12basic_stringIcNS_11char_traitsIcEENS1_IcEEEEiEEPvEEEEE9constructB8ne180100INS_4pairIKS8_iEEJRKNS_21piecewise_construct_tENS_5tupleIJRSG_EEENSL_IJEEEEvEEvRSC_PT_DpOT0_, symObjAddr: 0xBDF8, symBinAddr: 0x10000D348, symSize: 0x44 }
  - { offset: 0x39C6F, size: 0x8, addend: 0x0, symName: __ZNKSt3__110unique_ptrINS_11__tree_nodeINS_12__value_typeINS_12basic_stringIcNS_11char_traitsIcEENS_9allocatorIcEEEEiEEPvEENS_22__tree_node_destructorINS6_ISB_EEEEEptB8ne180100Ev, symObjAddr: 0xBE3C, symBinAddr: 0x10000D38C, symSize: 0x28 }
  - { offset: 0x39C95, size: 0x8, addend: 0x0, symName: __ZNSt3__110unique_ptrINS_11__tree_nodeINS_12__value_typeINS_12basic_stringIcNS_11char_traitsIcEENS_9allocatorIcEEEEiEEPvEENS_22__tree_node_destructorINS6_ISB_EEEEE11get_deleterB8ne180100Ev, symObjAddr: 0xBE64, symBinAddr: 0x10000D3B4, symSize: 0x24 }
  - { offset: 0x39CBB, size: 0x8, addend: 0x0, symName: __ZNSt3__19allocatorINS_11__tree_nodeINS_12__value_typeINS_12basic_stringIcNS_11char_traitsIcEENS0_IcEEEEiEEPvEEE8allocateB8ne180100Em, symObjAddr: 0xBE88, symBinAddr: 0x10000D3D8, symSize: 0x54 }
  - { offset: 0x39CFA, size: 0x8, addend: 0x0, symName: __ZNSt3__116allocator_traitsINS_9allocatorINS_11__tree_nodeINS_12__value_typeINS_12basic_stringIcNS_11char_traitsIcEENS1_IcEEEEiEEPvEEEEE8max_sizeB8ne180100ISC_vEEmRKSC_, symObjAddr: 0xBEDC, symBinAddr: 0x10000D42C, symSize: 0x24 }
  - { offset: 0x39D28, size: 0x8, addend: 0x0, symName: __ZNKSt3__19allocatorINS_11__tree_nodeINS_12__value_typeINS_12basic_stringIcNS_11char_traitsIcEENS0_IcEEEEiEEPvEEE8max_sizeB8ne180100Ev, symObjAddr: 0xBF00, symBinAddr: 0x10000D450, symSize: 0x14 }
  - { offset: 0x39D4E, size: 0x8, addend: 0x0, symName: __ZNSt3__122__tree_node_destructorINS_9allocatorINS_11__tree_nodeINS_12__value_typeINS_12basic_stringIcNS_11char_traitsIcEENS1_IcEEEEiEEPvEEEEEC2B8ne180100ERSC_b, symObjAddr: 0xBF14, symBinAddr: 0x10000D464, symSize: 0x30 }
  - { offset: 0x39D96, size: 0x8, addend: 0x0, symName: __ZNSt3__110unique_ptrINS_11__tree_nodeINS_12__value_typeINS_12basic_stringIcNS_11char_traitsIcEENS_9allocatorIcEEEEiEEPvEENS_22__tree_node_destructorINS6_ISB_EEEEEC2B8ne180100ILb1EvEEPSB_NS_16__dependent_typeINS_27__unique_ptr_deleter_sfinaeISE_EEXT_EE20__good_rval_ref_typeE, symObjAddr: 0xBF44, symBinAddr: 0x10000D494, symSize: 0x48 }
  - { offset: 0x39DE7, size: 0x8, addend: 0x0, symName: __ZNSt3__117__compressed_pairIPNS_11__tree_nodeINS_12__value_typeINS_12basic_stringIcNS_11char_traitsIcEENS_9allocatorIcEEEEiEEPvEENS_22__tree_node_destructorINS6_ISB_EEEEEC1B8ne180100IRSC_SF_EEOT_OT0_, symObjAddr: 0xBF8C, symBinAddr: 0x10000D4DC, symSize: 0x3C }
  - { offset: 0x39E3F, size: 0x8, addend: 0x0, symName: __ZNSt3__117__compressed_pairIPNS_11__tree_nodeINS_12__value_typeINS_12basic_stringIcNS_11char_traitsIcEENS_9allocatorIcEEEEiEEPvEENS_22__tree_node_destructorINS6_ISB_EEEEEC2B8ne180100IRSC_SF_EEOT_OT0_, symObjAddr: 0xBFC8, symBinAddr: 0x10000D518, symSize: 0x48 }
  - { offset: 0x39E97, size: 0x8, addend: 0x0, symName: __ZNSt3__122__compressed_pair_elemIPNS_11__tree_nodeINS_12__value_typeINS_12basic_stringIcNS_11char_traitsIcEENS_9allocatorIcEEEEiEEPvEELi0ELb0EEC2B8ne180100IRSC_vEEOT_, symObjAddr: 0xC010, symBinAddr: 0x10000D560, symSize: 0x24 }
  - { offset: 0x39ED9, size: 0x8, addend: 0x0, symName: __ZNSt3__122__compressed_pair_elemINS_22__tree_node_destructorINS_9allocatorINS_11__tree_nodeINS_12__value_typeINS_12basic_stringIcNS_11char_traitsIcEENS2_IcEEEEiEEPvEEEEEELi1ELb0EEC2B8ne180100ISE_vEEOT_, symObjAddr: 0xC034, symBinAddr: 0x10000D584, symSize: 0x24 }
  - { offset: 0x39F1B, size: 0x8, addend: 0x0, symName: __ZNSt3__19allocatorINS_11__tree_nodeINS_12__value_typeINS_12basic_stringIcNS_11char_traitsIcEENS0_IcEEEEiEEPvEEE9constructB8ne180100INS_4pairIKS7_iEEJRKNS_21piecewise_construct_tENS_5tupleIJRSE_EEENSJ_IJEEEEEEvPT_DpOT0_, symObjAddr: 0xC058, symBinAddr: 0x10000D5A8, symSize: 0x44 }
  - { offset: 0x39F97, size: 0x8, addend: 0x0, symName: __ZNSt3__14pairIKNS_12basic_stringIcNS_11char_traitsIcEENS_9allocatorIcEEEEiEC1B8ne180100IJRS7_EJEEENS_21piecewise_construct_tENS_5tupleIJDpT_EEENSC_IJDpT0_EEE, symObjAddr: 0xC09C, symBinAddr: 0x10000D5EC, symSize: 0x3C }
  - { offset: 0x39FFE, size: 0x8, addend: 0x0, symName: __ZNSt3__14pairIKNS_12basic_stringIcNS_11char_traitsIcEENS_9allocatorIcEEEEiEC1B8ne180100IJRS7_EJEJLm0EETpTnmJEEENS_21piecewise_construct_tERNS_5tupleIJDpT_EEERNSC_IJDpT0_EEENS_15__tuple_indicesIJXspT1_EEEENSL_IJXspT2_EEEE, symObjAddr: 0xC0D8, symBinAddr: 0x10000D628, symSize: 0x3C }
  - { offset: 0x3A088, size: 0x8, addend: 0x0, symName: __ZNSt3__14pairIKNS_12basic_stringIcNS_11char_traitsIcEENS_9allocatorIcEEEEiEC2B8ne180100IJRS7_EJEJLm0EETpTnmJEEENS_21piecewise_construct_tERNS_5tupleIJDpT_EEERNSC_IJDpT0_EEENS_15__tuple_indicesIJXspT1_EEEENSL_IJXspT2_EEEE, symObjAddr: 0xC114, symBinAddr: 0x10000D664, symSize: 0x48 }
  - { offset: 0x3A112, size: 0x8, addend: 0x0, symName: __ZNSt3__112__tuple_leafILm0ERKNS_12basic_stringIcNS_11char_traitsIcEENS_9allocatorIcEEEELb0EE3getB8ne180100Ev, symObjAddr: 0xC180, symBinAddr: 0x10000D6D0, symSize: 0x18 }
  - { offset: 0x3A138, size: 0x8, addend: 0x0, symName: __ZNKSt3__117__compressed_pairIPNS_11__tree_nodeINS_12__value_typeINS_12basic_stringIcNS_11char_traitsIcEENS_9allocatorIcEEEEiEEPvEENS_22__tree_node_destructorINS6_ISB_EEEEE5firstB8ne180100Ev, symObjAddr: 0xC198, symBinAddr: 0x10000D6E8, symSize: 0x24 }
  - { offset: 0x3A15E, size: 0x8, addend: 0x0, symName: __ZNKSt3__122__compressed_pair_elemIPNS_11__tree_nodeINS_12__value_typeINS_12basic_stringIcNS_11char_traitsIcEENS_9allocatorIcEEEEiEEPvEELi0ELb0EE5__getB8ne180100Ev, symObjAddr: 0xC1BC, symBinAddr: 0x10000D70C, symSize: 0x14 }
  - { offset: 0x3A184, size: 0x8, addend: 0x0, symName: __ZNSt3__117__compressed_pairIPNS_11__tree_nodeINS_12__value_typeINS_12basic_stringIcNS_11char_traitsIcEENS_9allocatorIcEEEEiEEPvEENS_22__tree_node_destructorINS6_ISB_EEEEE6secondB8ne180100Ev, symObjAddr: 0xC1D0, symBinAddr: 0x10000D720, symSize: 0x28 }
  - { offset: 0x3A1AA, size: 0x8, addend: 0x0, symName: __ZNSt3__122__compressed_pair_elemINS_22__tree_node_destructorINS_9allocatorINS_11__tree_nodeINS_12__value_typeINS_12basic_stringIcNS_11char_traitsIcEENS2_IcEEEEiEEPvEEEEEELi1ELb0EE5__getB8ne180100Ev, symObjAddr: 0xC1F8, symBinAddr: 0x10000D748, symSize: 0x14 }
  - { offset: 0x3A1D0, size: 0x8, addend: 0x0, symName: __ZNSt3__16__treeINS_12__value_typeINS_12basic_stringIcNS_11char_traitsIcEENS_9allocatorIcEEEEiEENS_19__map_value_compareIS7_S8_NS_4lessIS7_EELb1EEENS5_IS8_EEE12__begin_nodeB8ne180100Ev, symObjAddr: 0xC20C, symBinAddr: 0x10000D75C, symSize: 0x14 }
  - { offset: 0x3A1F6, size: 0x8, addend: 0x0, symName: __ZNSt3__16__treeINS_12__value_typeINS_12basic_stringIcNS_11char_traitsIcEENS_9allocatorIcEEEEiEENS_19__map_value_compareIS7_S8_NS_4lessIS7_EELb1EEENS5_IS8_EEE4sizeB8ne180100Ev, symObjAddr: 0xC52C, symBinAddr: 0x10000DA7C, symSize: 0x28 }
  - { offset: 0x3A21C, size: 0x8, addend: 0x0, symName: __ZNKSt3__116__tree_node_baseIPvE15__parent_unsafeB8ne180100Ev, symObjAddr: 0xC554, symBinAddr: 0x10000DAA4, symSize: 0x18 }
  - { offset: 0x3A242, size: 0x8, addend: 0x0, symName: __ZNSt3__116__tree_node_baseIPvE12__set_parentB8ne180100EPS2_, symObjAddr: 0xC728, symBinAddr: 0x10000DC78, symSize: 0x20 }
  - { offset: 0x3A277, size: 0x8, addend: 0x0, symName: __ZNSt3__117__compressed_pairImNS_19__map_value_compareINS_12basic_stringIcNS_11char_traitsIcEENS_9allocatorIcEEEENS_12__value_typeIS7_iEENS_4lessIS7_EELb1EEEE5firstB8ne180100Ev, symObjAddr: 0xC748, symBinAddr: 0x10000DC98, symSize: 0x24 }
  - { offset: 0x3A29D, size: 0x8, addend: 0x0, symName: __ZNSt3__117__compressed_pairIPNS_11__tree_nodeINS_12__value_typeINS_12basic_stringIcNS_11char_traitsIcEENS_9allocatorIcEEEEiEEPvEENS_22__tree_node_destructorINS6_ISB_EEEEE5firstB8ne180100Ev, symObjAddr: 0xC76C, symBinAddr: 0x10000DCBC, symSize: 0x24 }
  - { offset: 0x3A2C3, size: 0x8, addend: 0x0, symName: __ZNSt3__122__compressed_pair_elemIPNS_11__tree_nodeINS_12__value_typeINS_12basic_stringIcNS_11char_traitsIcEENS_9allocatorIcEEEEiEEPvEELi0ELb0EE5__getB8ne180100Ev, symObjAddr: 0xC790, symBinAddr: 0x10000DCE0, symSize: 0x14 }
  - { offset: 0x3A2E9, size: 0x8, addend: 0x0, symName: __ZNSt3__110unique_ptrINS_11__tree_nodeINS_12__value_typeINS_12basic_stringIcNS_11char_traitsIcEENS_9allocatorIcEEEEiEEPvEENS_22__tree_node_destructorINS6_ISB_EEEEED2B8ne180100Ev, symObjAddr: 0xC7A4, symBinAddr: 0x10000DCF4, symSize: 0x30 }
  - { offset: 0x3A313, size: 0x8, addend: 0x0, symName: __ZNSt3__110unique_ptrINS_11__tree_nodeINS_12__value_typeINS_12basic_stringIcNS_11char_traitsIcEENS_9allocatorIcEEEEiEEPvEENS_22__tree_node_destructorINS6_ISB_EEEEE5resetB8ne180100EPSB_, symObjAddr: 0xC7D4, symBinAddr: 0x10000DD24, symSize: 0x70 }
  - { offset: 0x3A357, size: 0x8, addend: 0x0, symName: __ZNSt3__122__tree_node_destructorINS_9allocatorINS_11__tree_nodeINS_12__value_typeINS_12basic_stringIcNS_11char_traitsIcEENS1_IcEEEEiEEPvEEEEEclB8ne180100EPSB_, symObjAddr: 0xC844, symBinAddr: 0x10000DD94, symSize: 0x8C }
  - { offset: 0x3A38C, size: 0x8, addend: 0x0, symName: __ZNSt3__115__tree_iteratorINS_12__value_typeINS_12basic_stringIcNS_11char_traitsIcEENS_9allocatorIcEEEEiEEPNS_11__tree_nodeIS8_PvEElEC2B8ne180100ESC_, symObjAddr: 0xC8D0, symBinAddr: 0x10000DE20, symSize: 0x20 }
  - { offset: 0x3A3C5, size: 0x8, addend: 0x0, symName: __ZNSt3__14pairINS_15__tree_iteratorINS_12__value_typeINS_12basic_stringIcNS_11char_traitsIcEENS_9allocatorIcEEEEiEEPNS_11__tree_nodeIS9_PvEElEEbEC2B8ne180100ISE_RbTnNS_9enable_ifIXclsr10_CheckArgsE17__enable_implicitIT_T0_EEEiE4typeELi0EEEOSJ_OSK_, symObjAddr: 0xC8F0, symBinAddr: 0x10000DE40, symSize: 0x38 }
  - { offset: 0x3A423, size: 0x8, addend: 0x0, symName: __ZNSt3__15tupleIJRKNS_12basic_stringIcNS_11char_traitsIcEENS_9allocatorIcEEEEEEC1B8ne180100INS_4_AndETnNS_9enable_ifIXsrT_IJNS_17integral_constantIbLb1EEENS_21is_copy_constructibleIS8_EEEE5valueEiE4typeELi0EEES8_, symObjAddr: 0xC928, symBinAddr: 0x10000DE78, symSize: 0x34 }
  - { offset: 0x3A46B, size: 0x8, addend: 0x0, symName: __ZNSt3__15tupleIJRKNS_12basic_stringIcNS_11char_traitsIcEENS_9allocatorIcEEEEEEC2B8ne180100INS_4_AndETnNS_9enable_ifIXsrT_IJNS_17integral_constantIbLb1EEENS_21is_copy_constructibleIS8_EEEE5valueEiE4typeELi0EEES8_, symObjAddr: 0xC95C, symBinAddr: 0x10000DEAC, symSize: 0x34 }
  - { offset: 0x3A4B3, size: 0x8, addend: 0x0, symName: __ZNSt3__112__tuple_implINS_15__tuple_indicesIJLm0EEEEJRKNS_12basic_stringIcNS_11char_traitsIcEENS_9allocatorIcEEEEEEC1B8ne180100IJLm0EEJSA_ETpTnmJEJEJSA_EEENS1_IJXspT_EEEENS_13__tuple_typesIJDpT0_EEENS1_IJXspT1_EEEENSE_IJDpT2_EEEDpOT3_, symObjAddr: 0xC990, symBinAddr: 0x10000DEE0, symSize: 0x34 }
  - { offset: 0x3A544, size: 0x8, addend: 0x0, symName: __ZNSt3__112__tuple_implINS_15__tuple_indicesIJLm0EEEEJRKNS_12basic_stringIcNS_11char_traitsIcEENS_9allocatorIcEEEEEEC2B8ne180100IJLm0EEJSA_ETpTnmJEJEJSA_EEENS1_IJXspT_EEEENS_13__tuple_typesIJDpT0_EEENS1_IJXspT1_EEEENSE_IJDpT2_EEEDpOT3_, symObjAddr: 0xC9C4, symBinAddr: 0x10000DF14, symSize: 0x34 }
  - { offset: 0x3A5D5, size: 0x8, addend: 0x0, symName: __ZNSt3__112__tuple_leafILm0ERKNS_12basic_stringIcNS_11char_traitsIcEENS_9allocatorIcEEEELb0EEC2B8ne180100IS8_vEEOT_, symObjAddr: 0xC9F8, symBinAddr: 0x10000DF48, symSize: 0x20 }
  - { offset: 0x3A618, size: 0x8, addend: 0x0, symName: __ZNSt3__114pointer_traitsIPNS_12__value_typeINS_12basic_stringIcNS_11char_traitsIcEENS_9allocatorIcEEEEiEEE10pointer_toB8ne180100ERS8_, symObjAddr: 0xCA18, symBinAddr: 0x10000DF68, symSize: 0x14 }
  - { offset: 0x3A63B, size: 0x8, addend: 0x0, symName: __ZNKSt3__115__tree_iteratorINS_12__value_typeINS_12basic_stringIcNS_11char_traitsIcEENS_9allocatorIcEEEEiEEPNS_11__tree_nodeIS8_PvEElE8__get_npB8ne180100Ev, symObjAddr: 0xCA2C, symBinAddr: 0x10000DF7C, symSize: 0x18 }
  - { offset: 0x3A661, size: 0x8, addend: 0x0, symName: __ZNSt3__112basic_stringIcNS_11char_traitsIcEENS_9allocatorIcEEEC2B8ne180100Ev, symObjAddr: 0xCA44, symBinAddr: 0x10000DF94, symSize: 0x48 }
  - { offset: 0x3A68B, size: 0x8, addend: 0x0, symName: __ZNSt3__117__compressed_pairINS_12basic_stringIcNS_11char_traitsIcEENS_9allocatorIcEEE5__repES5_EC1B8ne180100INS_16__value_init_tagENS_18__default_init_tagEEEOT_OT0_, symObjAddr: 0xCA8C, symBinAddr: 0x10000DFDC, symSize: 0x3C }
  - { offset: 0x3A6E3, size: 0x8, addend: 0x0, symName: __ZNKSt3__112basic_stringIcNS_11char_traitsIcEENS_9allocatorIcEEE14__annotate_newB8ne180100Em, symObjAddr: 0xCAC8, symBinAddr: 0x10000E018, symSize: 0x14 }
  - { offset: 0x3A718, size: 0x8, addend: 0x0, symName: __ZNSt3__117__compressed_pairINS_12basic_stringIcNS_11char_traitsIcEENS_9allocatorIcEEE5__repES5_EC2B8ne180100INS_16__value_init_tagENS_18__default_init_tagEEEOT_OT0_, symObjAddr: 0xCADC, symBinAddr: 0x10000E02C, symSize: 0x3C }
  - { offset: 0x3A770, size: 0x8, addend: 0x0, symName: __ZNSt3__122__compressed_pair_elemINS_12basic_stringIcNS_11char_traitsIcEENS_9allocatorIcEEE5__repELi0ELb0EEC2B8ne180100ENS_16__value_init_tagE, symObjAddr: 0xCB18, symBinAddr: 0x10000E068, symSize: 0x20 }
  - { offset: 0x3A7A4, size: 0x8, addend: 0x0, symName: __ZNSt3__112basic_stringIcNS_11char_traitsIcEENS_9allocatorIcEEEC1B8ne180100EOS5_, symObjAddr: 0xCB38, symBinAddr: 0x10000E088, symSize: 0x34 }
  - { offset: 0x3A7DD, size: 0x8, addend: 0x0, symName: __ZNSt3__112basic_stringIcNS_11char_traitsIcEENS_9allocatorIcEEEC2B8ne180100EOS5_, symObjAddr: 0xCB6C, symBinAddr: 0x10000E0BC, symSize: 0xB8 }
  - { offset: 0x3A847, size: 0x8, addend: 0x0, symName: __ZZNSt3__112basic_stringIcNS_11char_traitsIcEENS_9allocatorIcEEEC1B8ne180100EOS5_ENKUlRS5_E_clES7_, symObjAddr: 0xCC24, symBinAddr: 0x10000E174, symSize: 0x40 }
  - { offset: 0x3A880, size: 0x8, addend: 0x0, symName: __ZNSt3__117__compressed_pairINS_12basic_stringIcNS_11char_traitsIcEENS_9allocatorIcEEE5__repES5_E5firstB8ne180100Ev, symObjAddr: 0xCC64, symBinAddr: 0x10000E1B4, symSize: 0x24 }
  - { offset: 0x3A8A6, size: 0x8, addend: 0x0, symName: __ZNKSt3__112basic_stringIcNS_11char_traitsIcEENS_9allocatorIcEEE17__annotate_deleteB8ne180100Ev, symObjAddr: 0xCC88, symBinAddr: 0x10000E1D8, symSize: 0x10 }
  - { offset: 0x3A8CC, size: 0x8, addend: 0x0, symName: __ZNSt3__122__compressed_pair_elemINS_12basic_stringIcNS_11char_traitsIcEENS_9allocatorIcEEE5__repELi0ELb0EE5__getB8ne180100Ev, symObjAddr: 0xCC98, symBinAddr: 0x10000E1E8, symSize: 0x14 }
  - { offset: 0x3A8F2, size: 0x8, addend: 0x0, symName: __ZNSt3__123mersenne_twister_engineIjLm32ELm624ELm397ELm31ELj2567483615ELm11ELj4294967295ELm7ELj2636928640ELm15ELj4022730752ELm18ELj1812433253EEC1B8ne180100Ej, symObjAddr: 0xCCAC, symBinAddr: 0x10000E1FC, symSize: 0x34 }
  - { offset: 0x3A92A, size: 0x8, addend: 0x0, symName: __ZNSt3__123mersenne_twister_engineIjLm32ELm624ELm397ELm31ELj2567483615ELm11ELj4294967295ELm7ELj2636928640ELm15ELj4022730752ELm18ELj1812433253EEC2B8ne180100Ej, symObjAddr: 0xCCE0, symBinAddr: 0x10000E230, symSize: 0x34 }
  - { offset: 0x3A962, size: 0x8, addend: 0x0, symName: __ZNSt3__123mersenne_twister_engineIjLm32ELm624ELm397ELm31ELj2567483615ELm11ELj4294967295ELm7ELj2636928640ELm15ELj4022730752ELm18ELj1812433253EE4seedEj, symObjAddr: 0xCD14, symBinAddr: 0x10000E264, symSize: 0xC4 }
  - { offset: 0x3A9B5, size: 0x8, addend: 0x0, symName: __ZNSt3__123mersenne_twister_engineIjLm32ELm624ELm397ELm31ELj2567483615ELm11ELj4294967295ELm7ELj2636928640ELm15ELj4022730752ELm18ELj1812433253EE8__rshiftB8ne180100ILm30ETnNS_9enable_ifIXltT_L_ZNS1_3_DtEEEiE4typeELi0EEEjj, symObjAddr: 0xCDD8, symBinAddr: 0x10000E328, symSize: 0x18 }
  - { offset: 0x3A9E9, size: 0x8, addend: 0x0, symName: '__ZNSt3__14pairIKNS_12basic_stringIcNS_11char_traitsIcEENS_9allocatorIcEEEEiEC2B8ne180100IRA9_Kc3$_0TnNS_9enable_ifIXclsr10_CheckArgsE17__enable_implicitIT_T0_EEEiE4typeELi0EEEOSF_OSG_', symObjAddr: 0xCDF0, symBinAddr: 0x10000E340, symSize: 0x44 }
  - { offset: 0x3AA47, size: 0x8, addend: 0x0, symName: '__ZNSt3__14pairIKNS_12basic_stringIcNS_11char_traitsIcEENS_9allocatorIcEEEEiEC2B8ne180100IRA13_Kc3$_0TnNS_9enable_ifIXclsr10_CheckArgsE17__enable_implicitIT_T0_EEEiE4typeELi0EEEOSF_OSG_', symObjAddr: 0xCE34, symBinAddr: 0x10000E384, symSize: 0x44 }
  - { offset: 0x3AAA5, size: 0x8, addend: 0x0, symName: '__ZNSt3__14pairIKNS_12basic_stringIcNS_11char_traitsIcEENS_9allocatorIcEEEEiEC2B8ne180100IRA16_Kc3$_0TnNS_9enable_ifIXclsr10_CheckArgsE17__enable_implicitIT_T0_EEEiE4typeELi0EEEOSF_OSG_', symObjAddr: 0xCE78, symBinAddr: 0x10000E3C8, symSize: 0x44 }
  - { offset: 0x3AB03, size: 0x8, addend: 0x0, symName: __ZNSt3__13mapINS_12basic_stringIcNS_11char_traitsIcEENS_9allocatorIcEEEEiNS_4lessIS6_EENS4_INS_4pairIKS6_iEEEEEC2B8ne180100ESt16initializer_listISB_ERKS8_, symObjAddr: 0xCEBC, symBinAddr: 0x10000E40C, symSize: 0xA4 }
  - { offset: 0x3AB4B, size: 0x8, addend: 0x0, symName: __ZNSt3__119__map_value_compareINS_12basic_stringIcNS_11char_traitsIcEENS_9allocatorIcEEEENS_12__value_typeIS6_iEENS_4lessIS6_EELb1EEC1B8ne180100ESA_, symObjAddr: 0xCF60, symBinAddr: 0x10000E4B0, symSize: 0x2C }
  - { offset: 0x3AB84, size: 0x8, addend: 0x0, symName: __ZNSt3__16__treeINS_12__value_typeINS_12basic_stringIcNS_11char_traitsIcEENS_9allocatorIcEEEEiEENS_19__map_value_compareIS7_S8_NS_4lessIS7_EELb1EEENS5_IS8_EEEC1ERKSC_, symObjAddr: 0xCF8C, symBinAddr: 0x10000E4DC, symSize: 0x34 }
  - { offset: 0x3ABBF, size: 0x8, addend: 0x0, symName: __ZNSt3__13mapINS_12basic_stringIcNS_11char_traitsIcEENS_9allocatorIcEEEEiNS_4lessIS6_EENS4_INS_4pairIKS6_iEEEEE6insertB8ne180100IPKSB_EEvT_SH_, symObjAddr: 0xCFC0, symBinAddr: 0x10000E510, symSize: 0x88 }
  - { offset: 0x3AC29, size: 0x8, addend: 0x0, symName: __ZNKSt16initializer_listINSt3__14pairIKNS0_12basic_stringIcNS0_11char_traitsIcEENS0_9allocatorIcEEEEiEEE5beginB8ne180100Ev, symObjAddr: 0xD048, symBinAddr: 0x10000E598, symSize: 0x18 }
  - { offset: 0x3AC4F, size: 0x8, addend: 0x0, symName: __ZNKSt16initializer_listINSt3__14pairIKNS0_12basic_stringIcNS0_11char_traitsIcEENS0_9allocatorIcEEEEiEEE3endB8ne180100Ev, symObjAddr: 0xD060, symBinAddr: 0x10000E5B0, symSize: 0x20 }
  - { offset: 0x3AC75, size: 0x8, addend: 0x0, symName: __ZNSt3__119__map_value_compareINS_12basic_stringIcNS_11char_traitsIcEENS_9allocatorIcEEEENS_12__value_typeIS6_iEENS_4lessIS6_EELb1EEC2B8ne180100ESA_, symObjAddr: 0xD080, symBinAddr: 0x10000E5D0, symSize: 0x14 }
  - { offset: 0x3ACAE, size: 0x8, addend: 0x0, symName: __ZNSt3__16__treeINS_12__value_typeINS_12basic_stringIcNS_11char_traitsIcEENS_9allocatorIcEEEEiEENS_19__map_value_compareIS7_S8_NS_4lessIS7_EELb1EEENS5_IS8_EEEC2ERKSC_, symObjAddr: 0xD094, symBinAddr: 0x10000E5E4, symSize: 0x7C }
  - { offset: 0x3ACE9, size: 0x8, addend: 0x0, symName: __ZNSt3__117__compressed_pairINS_15__tree_end_nodeIPNS_16__tree_node_baseIPvEEEENS_9allocatorINS_11__tree_nodeINS_12__value_typeINS_12basic_stringIcNS_11char_traitsIcEENS7_IcEEEEiEES3_EEEEEC1B8ne180100ILb1EvEEv, symObjAddr: 0xD110, symBinAddr: 0x10000E660, symSize: 0x2C }
  - { offset: 0x3AD1E, size: 0x8, addend: 0x0, symName: __ZNSt3__117__compressed_pairImNS_19__map_value_compareINS_12basic_stringIcNS_11char_traitsIcEENS_9allocatorIcEEEENS_12__value_typeIS7_iEENS_4lessIS7_EELb1EEEEC1B8ne180100IiRKSC_EEOT_OT0_, symObjAddr: 0xD13C, symBinAddr: 0x10000E68C, symSize: 0x3C }
  - { offset: 0x3AD76, size: 0x8, addend: 0x0, symName: __ZNSt3__117__compressed_pairINS_15__tree_end_nodeIPNS_16__tree_node_baseIPvEEEENS_9allocatorINS_11__tree_nodeINS_12__value_typeINS_12basic_stringIcNS_11char_traitsIcEENS7_IcEEEEiEES3_EEEEEC2B8ne180100ILb1EvEEv, symObjAddr: 0xD178, symBinAddr: 0x10000E6C8, symSize: 0x34 }
  - { offset: 0x3ADAB, size: 0x8, addend: 0x0, symName: __ZNSt3__122__compressed_pair_elemINS_15__tree_end_nodeIPNS_16__tree_node_baseIPvEEEELi0ELb0EEC2B8ne180100ENS_16__value_init_tagE, symObjAddr: 0xD1AC, symBinAddr: 0x10000E6FC, symSize: 0x2C }
  - { offset: 0x3ADDF, size: 0x8, addend: 0x0, symName: __ZNSt3__122__compressed_pair_elemINS_9allocatorINS_11__tree_nodeINS_12__value_typeINS_12basic_stringIcNS_11char_traitsIcEENS1_IcEEEEiEEPvEEEELi1ELb1EEC2B8ne180100ENS_16__value_init_tagE, symObjAddr: 0xD1D8, symBinAddr: 0x10000E728, symSize: 0x2C }
  - { offset: 0x3AE13, size: 0x8, addend: 0x0, symName: __ZNSt3__115__tree_end_nodeIPNS_16__tree_node_baseIPvEEEC1B8ne180100Ev, symObjAddr: 0xD204, symBinAddr: 0x10000E754, symSize: 0x2C }
  - { offset: 0x3AE3D, size: 0x8, addend: 0x0, symName: __ZNSt3__115__tree_end_nodeIPNS_16__tree_node_baseIPvEEEC2B8ne180100Ev, symObjAddr: 0xD230, symBinAddr: 0x10000E780, symSize: 0x18 }
  - { offset: 0x3AE67, size: 0x8, addend: 0x0, symName: __ZNSt3__19allocatorINS_11__tree_nodeINS_12__value_typeINS_12basic_stringIcNS_11char_traitsIcEENS0_IcEEEEiEEPvEEEC2B8ne180100Ev, symObjAddr: 0xD248, symBinAddr: 0x10000E798, symSize: 0x2C }
  - { offset: 0x3AE91, size: 0x8, addend: 0x0, symName: __ZNSt3__116__non_trivial_ifILb1ENS_9allocatorINS_11__tree_nodeINS_12__value_typeINS_12basic_stringIcNS_11char_traitsIcEENS1_IcEEEEiEEPvEEEEEC2B8ne180100Ev, symObjAddr: 0xD274, symBinAddr: 0x10000E7C4, symSize: 0x14 }
  - { offset: 0x3AEBB, size: 0x8, addend: 0x0, symName: __ZNSt3__117__compressed_pairImNS_19__map_value_compareINS_12basic_stringIcNS_11char_traitsIcEENS_9allocatorIcEEEENS_12__value_typeIS7_iEENS_4lessIS7_EELb1EEEEC2B8ne180100IiRKSC_EEOT_OT0_, symObjAddr: 0xD288, symBinAddr: 0x10000E7D8, symSize: 0x44 }
  - { offset: 0x3AF13, size: 0x8, addend: 0x0, symName: __ZNSt3__122__compressed_pair_elemINS_19__map_value_compareINS_12basic_stringIcNS_11char_traitsIcEENS_9allocatorIcEEEENS_12__value_typeIS7_iEENS_4lessIS7_EELb1EEELi1ELb1EEC2B8ne180100IRKSC_vEEOT_, symObjAddr: 0xD2CC, symBinAddr: 0x10000E81C, symSize: 0x18 }
  - { offset: 0x3AF55, size: 0x8, addend: 0x0, symName: __ZNKSt3__13mapINS_12basic_stringIcNS_11char_traitsIcEENS_9allocatorIcEEEEiNS_4lessIS6_EENS4_INS_4pairIKS6_iEEEEE4cendB8ne180100Ev, symObjAddr: 0xD2E4, symBinAddr: 0x10000E834, symSize: 0x2C }
  - { offset: 0x3AF7B, size: 0x8, addend: 0x0, symName: __ZNSt3__13mapINS_12basic_stringIcNS_11char_traitsIcEENS_9allocatorIcEEEEiNS_4lessIS6_EENS4_INS_4pairIKS6_iEEEEE6insertB8ne180100ENS_20__map_const_iteratorINS_21__tree_const_iteratorINS_12__value_typeIS6_iEEPNS_11__tree_nodeISH_PvEElEEEERKSB_, symObjAddr: 0xD310, symBinAddr: 0x10000E860, symSize: 0x50 }
  - { offset: 0x3AFBF, size: 0x8, addend: 0x0, symName: __ZNSt3__120__map_const_iteratorINS_21__tree_const_iteratorINS_12__value_typeINS_12basic_stringIcNS_11char_traitsIcEENS_9allocatorIcEEEEiEEPNS_11__tree_nodeIS9_PvEElEEEC1B8ne180100ESE_, symObjAddr: 0xD360, symBinAddr: 0x10000E8B0, symSize: 0x34 }
  - { offset: 0x3AFF8, size: 0x8, addend: 0x0, symName: __ZNKSt3__13mapINS_12basic_stringIcNS_11char_traitsIcEENS_9allocatorIcEEEEiNS_4lessIS6_EENS4_INS_4pairIKS6_iEEEEE3endB8ne180100Ev, symObjAddr: 0xD394, symBinAddr: 0x10000E8E4, symSize: 0x38 }
  - { offset: 0x3B01E, size: 0x8, addend: 0x0, symName: __ZNKSt3__16__treeINS_12__value_typeINS_12basic_stringIcNS_11char_traitsIcEENS_9allocatorIcEEEEiEENS_19__map_value_compareIS7_S8_NS_4lessIS7_EELb1EEENS5_IS8_EEE3endB8ne180100Ev, symObjAddr: 0xD3CC, symBinAddr: 0x10000E91C, symSize: 0x34 }
  - { offset: 0x3B044, size: 0x8, addend: 0x0, symName: __ZNSt3__121__tree_const_iteratorINS_12__value_typeINS_12basic_stringIcNS_11char_traitsIcEENS_9allocatorIcEEEEiEEPNS_11__tree_nodeIS8_PvEElEC1B8ne180100EPNS_15__tree_end_nodeIPNS_16__tree_node_baseISA_EEEE, symObjAddr: 0xD400, symBinAddr: 0x10000E950, symSize: 0x34 }
  - { offset: 0x3B07D, size: 0x8, addend: 0x0, symName: __ZNSt3__121__tree_const_iteratorINS_12__value_typeINS_12basic_stringIcNS_11char_traitsIcEENS_9allocatorIcEEEEiEEPNS_11__tree_nodeIS8_PvEElEC2B8ne180100EPNS_15__tree_end_nodeIPNS_16__tree_node_baseISA_EEEE, symObjAddr: 0xD434, symBinAddr: 0x10000E984, symSize: 0x20 }
  - { offset: 0x3B0B6, size: 0x8, addend: 0x0, symName: __ZNSt3__16__treeINS_12__value_typeINS_12basic_stringIcNS_11char_traitsIcEENS_9allocatorIcEEEEiEENS_19__map_value_compareIS7_S8_NS_4lessIS7_EELb1EEENS5_IS8_EEE15__insert_uniqueB8ne180100ENS_21__tree_const_iteratorIS8_PNS_11__tree_nodeIS8_PvEElEERKNS_4pairIKS7_iEE, symObjAddr: 0xD454, symBinAddr: 0x10000E9A4, symSize: 0x64 }
  - { offset: 0x3B0FA, size: 0x8, addend: 0x0, symName: __ZNSt3__114__map_iteratorINS_15__tree_iteratorINS_12__value_typeINS_12basic_stringIcNS_11char_traitsIcEENS_9allocatorIcEEEEiEEPNS_11__tree_nodeIS9_PvEElEEEC1B8ne180100ESE_, symObjAddr: 0xD4B8, symBinAddr: 0x10000EA08, symSize: 0x34 }
  - { offset: 0x3B133, size: 0x8, addend: 0x0, symName: __ZNSt3__16__treeINS_12__value_typeINS_12basic_stringIcNS_11char_traitsIcEENS_9allocatorIcEEEEiEENS_19__map_value_compareIS7_S8_NS_4lessIS7_EELb1EEENS5_IS8_EEE30__emplace_hint_unique_key_argsIS7_JRKNS_4pairIKS7_iEEEEENSG_INS_15__tree_iteratorIS8_PNS_11__tree_nodeIS8_PvEElEEbEENS_21__tree_const_iteratorIS8_SP_lEERKT_DpOT0_, symObjAddr: 0xD4EC, symBinAddr: 0x10000EA3C, symSize: 0xFC }
  - { offset: 0x3B1FD, size: 0x8, addend: 0x0, symName: __ZNSt3__122__tree_key_value_typesINS_12__value_typeINS_12basic_stringIcNS_11char_traitsIcEENS_9allocatorIcEEEEiEEE9__get_keyB8ne180100IKNS_4pairIKS7_iEETnNS_9enable_ifIXsr17__is_same_uncvrefIT_SD_EE5valueEiE4typeELi0EEERSC_RSG_, symObjAddr: 0xD5E8, symBinAddr: 0x10000EB38, symSize: 0x14 }
  - { offset: 0x3B230, size: 0x8, addend: 0x0, symName: __ZNSt3__16__treeINS_12__value_typeINS_12basic_stringIcNS_11char_traitsIcEENS_9allocatorIcEEEEiEENS_19__map_value_compareIS7_S8_NS_4lessIS7_EELb1EEENS5_IS8_EEE12__find_equalIS7_EERPNS_16__tree_node_baseIPvEENS_21__tree_const_iteratorIS8_PNS_11__tree_nodeIS8_SH_EElEERPNS_15__tree_end_nodeISJ_EESK_RKT_, symObjAddr: 0xD5FC, symBinAddr: 0x10000EB4C, symSize: 0x2F4 }
  - { offset: 0x3B2D7, size: 0x8, addend: 0x0, symName: __ZNSt3__16__treeINS_12__value_typeINS_12basic_stringIcNS_11char_traitsIcEENS_9allocatorIcEEEEiEENS_19__map_value_compareIS7_S8_NS_4lessIS7_EELb1EEENS5_IS8_EEE16__construct_nodeIJRKNS_4pairIKS7_iEEEEENS_10unique_ptrINS_11__tree_nodeIS8_PvEENS_22__tree_node_destructorINS5_ISO_EEEEEEDpOT_, symObjAddr: 0xD8F0, symBinAddr: 0x10000EE40, symSize: 0x110 }
  - { offset: 0x3B336, size: 0x8, addend: 0x0, symName: __ZNSt3__16__treeINS_12__value_typeINS_12basic_stringIcNS_11char_traitsIcEENS_9allocatorIcEEEEiEENS_19__map_value_compareIS7_S8_NS_4lessIS7_EELb1EEENS5_IS8_EEE3endB8ne180100Ev, symObjAddr: 0xDA2C, symBinAddr: 0x10000EF7C, symSize: 0x34 }
  - { offset: 0x3B35C, size: 0x8, addend: 0x0, symName: __ZNSt3__121__tree_const_iteratorINS_12__value_typeINS_12basic_stringIcNS_11char_traitsIcEENS_9allocatorIcEEEEiEEPNS_11__tree_nodeIS8_PvEElEC1B8ne180100ENS_15__tree_iteratorIS8_SC_lEE, symObjAddr: 0xDA60, symBinAddr: 0x10000EFB0, symSize: 0x34 }
  - { offset: 0x3B395, size: 0x8, addend: 0x0, symName: __ZNKSt3__121__tree_const_iteratorINS_12__value_typeINS_12basic_stringIcNS_11char_traitsIcEENS_9allocatorIcEEEEiEEPNS_11__tree_nodeIS8_PvEElEdeB8ne180100Ev, symObjAddr: 0xDA94, symBinAddr: 0x10000EFE4, symSize: 0x28 }
  - { offset: 0x3B3BB, size: 0x8, addend: 0x0, symName: __ZNSt3__16__treeINS_12__value_typeINS_12basic_stringIcNS_11char_traitsIcEENS_9allocatorIcEEEEiEENS_19__map_value_compareIS7_S8_NS_4lessIS7_EELb1EEENS5_IS8_EEE5beginB8ne180100Ev, symObjAddr: 0xDABC, symBinAddr: 0x10000F00C, symSize: 0x34 }
  - { offset: 0x3B3E1, size: 0x8, addend: 0x0, symName: __ZNSt3__121__tree_const_iteratorINS_12__value_typeINS_12basic_stringIcNS_11char_traitsIcEENS_9allocatorIcEEEEiEEPNS_11__tree_nodeIS8_PvEElEmmB8ne180100Ev, symObjAddr: 0xDAF0, symBinAddr: 0x10000F040, symSize: 0x38 }
  - { offset: 0x3B407, size: 0x8, addend: 0x0, symName: __ZNKSt3__121__tree_const_iteratorINS_12__value_typeINS_12basic_stringIcNS_11char_traitsIcEENS_9allocatorIcEEEEiEEPNS_11__tree_nodeIS8_PvEElE8__get_npB8ne180100Ev, symObjAddr: 0xDB64, symBinAddr: 0x10000F0B4, symSize: 0x18 }
  - { offset: 0x3B42D, size: 0x8, addend: 0x0, symName: __ZNSt3__115__tree_iteratorINS_12__value_typeINS_12basic_stringIcNS_11char_traitsIcEENS_9allocatorIcEEEEiEEPNS_11__tree_nodeIS8_PvEElEC1B8ne180100EPNS_15__tree_end_nodeIPNS_16__tree_node_baseISA_EEEE, symObjAddr: 0xDB7C, symBinAddr: 0x10000F0CC, symSize: 0x34 }
  - { offset: 0x3B466, size: 0x8, addend: 0x0, symName: __ZNSt3__115__tree_iteratorINS_12__value_typeINS_12basic_stringIcNS_11char_traitsIcEENS_9allocatorIcEEEEiEEPNS_11__tree_nodeIS8_PvEElEC2B8ne180100EPNS_15__tree_end_nodeIPNS_16__tree_node_baseISA_EEEE, symObjAddr: 0xDBB0, symBinAddr: 0x10000F100, symSize: 0x20 }
  - { offset: 0x3B49F, size: 0x8, addend: 0x0, symName: __ZNSt3__121__tree_const_iteratorINS_12__value_typeINS_12basic_stringIcNS_11char_traitsIcEENS_9allocatorIcEEEEiEEPNS_11__tree_nodeIS8_PvEElEC2B8ne180100ENS_15__tree_iteratorIS8_SC_lEE, symObjAddr: 0xDBD0, symBinAddr: 0x10000F120, symSize: 0x20 }
  - { offset: 0x3B4D8, size: 0x8, addend: 0x0, symName: __ZNSt3__121__tree_const_iteratorINS_12__value_typeINS_12basic_stringIcNS_11char_traitsIcEENS_9allocatorIcEEEEiEEPNS_11__tree_nodeIS8_PvEElEppB8ne180100Ev, symObjAddr: 0xDD84, symBinAddr: 0x10000F2D4, symSize: 0x38 }
  - { offset: 0x3B4FE, size: 0x8, addend: 0x0, symName: __ZNSt3__116allocator_traitsINS_9allocatorINS_11__tree_nodeINS_12__value_typeINS_12basic_stringIcNS_11char_traitsIcEENS1_IcEEEEiEEPvEEEEE9constructB8ne180100INS_4pairIKS8_iEEJRKSH_EvEEvRSC_PT_DpOT0_, symObjAddr: 0xDE6C, symBinAddr: 0x10000F3BC, symSize: 0x34 }
  - { offset: 0x3B555, size: 0x8, addend: 0x0, symName: __ZNSt3__19allocatorINS_11__tree_nodeINS_12__value_typeINS_12basic_stringIcNS_11char_traitsIcEENS0_IcEEEEiEEPvEEE9constructB8ne180100INS_4pairIKS7_iEEJRKSF_EEEvPT_DpOT0_, symObjAddr: 0xDEA0, symBinAddr: 0x10000F3F0, symSize: 0x30 }
  - { offset: 0x3B5AB, size: 0x8, addend: 0x0, symName: __ZNSt3__14pairIKNS_12basic_stringIcNS_11char_traitsIcEENS_9allocatorIcEEEEiEC1B8ne180100ERKS8_, symObjAddr: 0xDED0, symBinAddr: 0x10000F420, symSize: 0x34 }
  - { offset: 0x3B5DF, size: 0x8, addend: 0x0, symName: __ZNSt3__14pairIKNS_12basic_stringIcNS_11char_traitsIcEENS_9allocatorIcEEEEiEC2B8ne180100ERKS8_, symObjAddr: 0xDF04, symBinAddr: 0x10000F454, symSize: 0x40 }
  - { offset: 0x3B613, size: 0x8, addend: 0x0, symName: __ZNSt3__114__map_iteratorINS_15__tree_iteratorINS_12__value_typeINS_12basic_stringIcNS_11char_traitsIcEENS_9allocatorIcEEEEiEEPNS_11__tree_nodeIS9_PvEElEEEC2B8ne180100ESE_, symObjAddr: 0xDF44, symBinAddr: 0x10000F494, symSize: 0x20 }
  - { offset: 0x3B64C, size: 0x8, addend: 0x0, symName: __ZNSt3__120__map_const_iteratorINS_21__tree_const_iteratorINS_12__value_typeINS_12basic_stringIcNS_11char_traitsIcEENS_9allocatorIcEEEEiEEPNS_11__tree_nodeIS9_PvEElEEEC2B8ne180100ESE_, symObjAddr: 0xDF64, symBinAddr: 0x10000F4B4, symSize: 0x20 }
  - { offset: 0x3B685, size: 0x8, addend: 0x0, symName: __ZNSt3__14pairIKNS_12basic_stringIcNS_11char_traitsIcEENS_9allocatorIcEEEES6_EC2B8ne180100IRA9_KcRA16_SA_TnNS_9enable_ifIXclsr10_CheckArgsE17__enable_implicitIT_T0_EEEiE4typeELi0EEEOSG_OSH_, symObjAddr: 0xDF84, symBinAddr: 0x10000F4D4, symSize: 0x70 }
  - { offset: 0x3B6E3, size: 0x8, addend: 0x0, symName: __ZNSt3__14pairIKNS_12basic_stringIcNS_11char_traitsIcEENS_9allocatorIcEEEES6_EC2B8ne180100IRA13_KcRA20_SA_TnNS_9enable_ifIXclsr10_CheckArgsE17__enable_implicitIT_T0_EEEiE4typeELi0EEEOSG_OSH_, symObjAddr: 0xDFF4, symBinAddr: 0x10000F544, symSize: 0x70 }
  - { offset: 0x3B741, size: 0x8, addend: 0x0, symName: __ZNSt3__14pairIKNS_12basic_stringIcNS_11char_traitsIcEENS_9allocatorIcEEEES6_EC2B8ne180100IRA16_KcRA23_SA_TnNS_9enable_ifIXclsr10_CheckArgsE17__enable_implicitIT_T0_EEEiE4typeELi0EEEOSG_OSH_, symObjAddr: 0xE064, symBinAddr: 0x10000F5B4, symSize: 0x70 }
  - { offset: 0x3B79F, size: 0x8, addend: 0x0, symName: __ZNSt3__13mapINS_12basic_stringIcNS_11char_traitsIcEENS_9allocatorIcEEEES6_NS_4lessIS6_EENS4_INS_4pairIKS6_S6_EEEEEC2B8ne180100ESt16initializer_listISB_ERKS8_, symObjAddr: 0xE0D4, symBinAddr: 0x10000F624, symSize: 0xA4 }
  - { offset: 0x3B7E7, size: 0x8, addend: 0x0, symName: __ZNSt3__119__map_value_compareINS_12basic_stringIcNS_11char_traitsIcEENS_9allocatorIcEEEENS_12__value_typeIS6_S6_EENS_4lessIS6_EELb1EEC1B8ne180100ESA_, symObjAddr: 0xE178, symBinAddr: 0x10000F6C8, symSize: 0x2C }
  - { offset: 0x3B820, size: 0x8, addend: 0x0, symName: __ZNSt3__16__treeINS_12__value_typeINS_12basic_stringIcNS_11char_traitsIcEENS_9allocatorIcEEEES7_EENS_19__map_value_compareIS7_S8_NS_4lessIS7_EELb1EEENS5_IS8_EEEC1ERKSC_, symObjAddr: 0xE1A4, symBinAddr: 0x10000F6F4, symSize: 0x34 }
  - { offset: 0x3B85B, size: 0x8, addend: 0x0, symName: __ZNSt3__13mapINS_12basic_stringIcNS_11char_traitsIcEENS_9allocatorIcEEEES6_NS_4lessIS6_EENS4_INS_4pairIKS6_S6_EEEEE6insertB8ne180100IPKSB_EEvT_SH_, symObjAddr: 0xE1D8, symBinAddr: 0x10000F728, symSize: 0x88 }
  - { offset: 0x3B8C5, size: 0x8, addend: 0x0, symName: __ZNKSt16initializer_listINSt3__14pairIKNS0_12basic_stringIcNS0_11char_traitsIcEENS0_9allocatorIcEEEES7_EEE5beginB8ne180100Ev, symObjAddr: 0xE260, symBinAddr: 0x10000F7B0, symSize: 0x18 }
  - { offset: 0x3B8EB, size: 0x8, addend: 0x0, symName: __ZNKSt16initializer_listINSt3__14pairIKNS0_12basic_stringIcNS0_11char_traitsIcEENS0_9allocatorIcEEEES7_EEE3endB8ne180100Ev, symObjAddr: 0xE278, symBinAddr: 0x10000F7C8, symSize: 0x28 }
  - { offset: 0x3B911, size: 0x8, addend: 0x0, symName: __ZNSt3__16__treeINS_12__value_typeINS_12basic_stringIcNS_11char_traitsIcEENS_9allocatorIcEEEES7_EENS_19__map_value_compareIS7_S8_NS_4lessIS7_EELb1EEENS5_IS8_EEED1Ev, symObjAddr: 0xE2A0, symBinAddr: 0x10000F7F0, symSize: 0x2C }
  - { offset: 0x3B93D, size: 0x8, addend: 0x0, symName: __ZNSt3__119__map_value_compareINS_12basic_stringIcNS_11char_traitsIcEENS_9allocatorIcEEEENS_12__value_typeIS6_S6_EENS_4lessIS6_EELb1EEC2B8ne180100ESA_, symObjAddr: 0xE2CC, symBinAddr: 0x10000F81C, symSize: 0x14 }
  - { offset: 0x3B976, size: 0x8, addend: 0x0, symName: __ZNSt3__16__treeINS_12__value_typeINS_12basic_stringIcNS_11char_traitsIcEENS_9allocatorIcEEEES7_EENS_19__map_value_compareIS7_S8_NS_4lessIS7_EELb1EEENS5_IS8_EEEC2ERKSC_, symObjAddr: 0xE2E0, symBinAddr: 0x10000F830, symSize: 0x7C }
  - { offset: 0x3B9B1, size: 0x8, addend: 0x0, symName: __ZNSt3__117__compressed_pairINS_15__tree_end_nodeIPNS_16__tree_node_baseIPvEEEENS_9allocatorINS_11__tree_nodeINS_12__value_typeINS_12basic_stringIcNS_11char_traitsIcEENS7_IcEEEESE_EES3_EEEEEC1B8ne180100ILb1EvEEv, symObjAddr: 0xE35C, symBinAddr: 0x10000F8AC, symSize: 0x2C }
  - { offset: 0x3B9E6, size: 0x8, addend: 0x0, symName: __ZNSt3__117__compressed_pairImNS_19__map_value_compareINS_12basic_stringIcNS_11char_traitsIcEENS_9allocatorIcEEEENS_12__value_typeIS7_S7_EENS_4lessIS7_EELb1EEEEC1B8ne180100IiRKSC_EEOT_OT0_, symObjAddr: 0xE388, symBinAddr: 0x10000F8D8, symSize: 0x3C }
  - { offset: 0x3BA3E, size: 0x8, addend: 0x0, symName: __ZNSt3__16__treeINS_12__value_typeINS_12basic_stringIcNS_11char_traitsIcEENS_9allocatorIcEEEES7_EENS_19__map_value_compareIS7_S8_NS_4lessIS7_EELb1EEENS5_IS8_EEE10__end_nodeB8ne180100Ev, symObjAddr: 0xE3C4, symBinAddr: 0x10000F914, symSize: 0x2C }
  - { offset: 0x3BA64, size: 0x8, addend: 0x0, symName: __ZNSt3__16__treeINS_12__value_typeINS_12basic_stringIcNS_11char_traitsIcEENS_9allocatorIcEEEES7_EENS_19__map_value_compareIS7_S8_NS_4lessIS7_EELb1EEENS5_IS8_EEE12__begin_nodeB8ne180100Ev, symObjAddr: 0xE3F0, symBinAddr: 0x10000F940, symSize: 0x14 }
  - { offset: 0x3BA8A, size: 0x8, addend: 0x0, symName: __ZNSt3__117__compressed_pairINS_15__tree_end_nodeIPNS_16__tree_node_baseIPvEEEENS_9allocatorINS_11__tree_nodeINS_12__value_typeINS_12basic_stringIcNS_11char_traitsIcEENS7_IcEEEESE_EES3_EEEEEC2B8ne180100ILb1EvEEv, symObjAddr: 0xE404, symBinAddr: 0x10000F954, symSize: 0x34 }
  - { offset: 0x3BABF, size: 0x8, addend: 0x0, symName: __ZNSt3__122__compressed_pair_elemINS_9allocatorINS_11__tree_nodeINS_12__value_typeINS_12basic_stringIcNS_11char_traitsIcEENS1_IcEEEES8_EEPvEEEELi1ELb1EEC2B8ne180100ENS_16__value_init_tagE, symObjAddr: 0xE438, symBinAddr: 0x10000F988, symSize: 0x2C }
  - { offset: 0x3BAF3, size: 0x8, addend: 0x0, symName: __ZNSt3__19allocatorINS_11__tree_nodeINS_12__value_typeINS_12basic_stringIcNS_11char_traitsIcEENS0_IcEEEES7_EEPvEEEC2B8ne180100Ev, symObjAddr: 0xE464, symBinAddr: 0x10000F9B4, symSize: 0x2C }
  - { offset: 0x3BB1D, size: 0x8, addend: 0x0, symName: __ZNSt3__116__non_trivial_ifILb1ENS_9allocatorINS_11__tree_nodeINS_12__value_typeINS_12basic_stringIcNS_11char_traitsIcEENS1_IcEEEES8_EEPvEEEEEC2B8ne180100Ev, symObjAddr: 0xE490, symBinAddr: 0x10000F9E0, symSize: 0x14 }
  - { offset: 0x3BB47, size: 0x8, addend: 0x0, symName: __ZNSt3__117__compressed_pairImNS_19__map_value_compareINS_12basic_stringIcNS_11char_traitsIcEENS_9allocatorIcEEEENS_12__value_typeIS7_S7_EENS_4lessIS7_EELb1EEEEC2B8ne180100IiRKSC_EEOT_OT0_, symObjAddr: 0xE4A4, symBinAddr: 0x10000F9F4, symSize: 0x44 }
  - { offset: 0x3BB9F, size: 0x8, addend: 0x0, symName: __ZNSt3__122__compressed_pair_elemINS_19__map_value_compareINS_12basic_stringIcNS_11char_traitsIcEENS_9allocatorIcEEEENS_12__value_typeIS7_S7_EENS_4lessIS7_EELb1EEELi1ELb1EEC2B8ne180100IRKSC_vEEOT_, symObjAddr: 0xE4E8, symBinAddr: 0x10000FA38, symSize: 0x18 }
  - { offset: 0x3BBE1, size: 0x8, addend: 0x0, symName: __ZNSt3__117__compressed_pairINS_15__tree_end_nodeIPNS_16__tree_node_baseIPvEEEENS_9allocatorINS_11__tree_nodeINS_12__value_typeINS_12basic_stringIcNS_11char_traitsIcEENS7_IcEEEESE_EES3_EEEEE5firstB8ne180100Ev, symObjAddr: 0xE500, symBinAddr: 0x10000FA50, symSize: 0x24 }
  - { offset: 0x3BC07, size: 0x8, addend: 0x0, symName: __ZNKSt3__13mapINS_12basic_stringIcNS_11char_traitsIcEENS_9allocatorIcEEEES6_NS_4lessIS6_EENS4_INS_4pairIKS6_S6_EEEEE4cendB8ne180100Ev, symObjAddr: 0xE524, symBinAddr: 0x10000FA74, symSize: 0x2C }
  - { offset: 0x3BC2D, size: 0x8, addend: 0x0, symName: __ZNSt3__13mapINS_12basic_stringIcNS_11char_traitsIcEENS_9allocatorIcEEEES6_NS_4lessIS6_EENS4_INS_4pairIKS6_S6_EEEEE6insertB8ne180100ENS_20__map_const_iteratorINS_21__tree_const_iteratorINS_12__value_typeIS6_S6_EEPNS_11__tree_nodeISH_PvEElEEEERKSB_, symObjAddr: 0xE550, symBinAddr: 0x10000FAA0, symSize: 0x50 }
  - { offset: 0x3BC71, size: 0x8, addend: 0x0, symName: __ZNSt3__120__map_const_iteratorINS_21__tree_const_iteratorINS_12__value_typeINS_12basic_stringIcNS_11char_traitsIcEENS_9allocatorIcEEEES8_EEPNS_11__tree_nodeIS9_PvEElEEEC1B8ne180100ESE_, symObjAddr: 0xE5A0, symBinAddr: 0x10000FAF0, symSize: 0x34 }
  - { offset: 0x3BCAA, size: 0x8, addend: 0x0, symName: __ZNKSt3__13mapINS_12basic_stringIcNS_11char_traitsIcEENS_9allocatorIcEEEES6_NS_4lessIS6_EENS4_INS_4pairIKS6_S6_EEEEE3endB8ne180100Ev, symObjAddr: 0xE5D4, symBinAddr: 0x10000FB24, symSize: 0x38 }
  - { offset: 0x3BCD0, size: 0x8, addend: 0x0, symName: __ZNKSt3__16__treeINS_12__value_typeINS_12basic_stringIcNS_11char_traitsIcEENS_9allocatorIcEEEES7_EENS_19__map_value_compareIS7_S8_NS_4lessIS7_EELb1EEENS5_IS8_EEE3endB8ne180100Ev, symObjAddr: 0xE60C, symBinAddr: 0x10000FB5C, symSize: 0x34 }
  - { offset: 0x3BCF6, size: 0x8, addend: 0x0, symName: __ZNKSt3__16__treeINS_12__value_typeINS_12basic_stringIcNS_11char_traitsIcEENS_9allocatorIcEEEES7_EENS_19__map_value_compareIS7_S8_NS_4lessIS7_EELb1EEENS5_IS8_EEE10__end_nodeB8ne180100Ev, symObjAddr: 0xE640, symBinAddr: 0x10000FB90, symSize: 0x2C }
  - { offset: 0x3BD1C, size: 0x8, addend: 0x0, symName: __ZNSt3__121__tree_const_iteratorINS_12__value_typeINS_12basic_stringIcNS_11char_traitsIcEENS_9allocatorIcEEEES7_EEPNS_11__tree_nodeIS8_PvEElEC1B8ne180100EPNS_15__tree_end_nodeIPNS_16__tree_node_baseISA_EEEE, symObjAddr: 0xE66C, symBinAddr: 0x10000FBBC, symSize: 0x34 }
  - { offset: 0x3BD55, size: 0x8, addend: 0x0, symName: __ZNKSt3__117__compressed_pairINS_15__tree_end_nodeIPNS_16__tree_node_baseIPvEEEENS_9allocatorINS_11__tree_nodeINS_12__value_typeINS_12basic_stringIcNS_11char_traitsIcEENS7_IcEEEESE_EES3_EEEEE5firstB8ne180100Ev, symObjAddr: 0xE6A0, symBinAddr: 0x10000FBF0, symSize: 0x24 }
  - { offset: 0x3BD7B, size: 0x8, addend: 0x0, symName: __ZNSt3__121__tree_const_iteratorINS_12__value_typeINS_12basic_stringIcNS_11char_traitsIcEENS_9allocatorIcEEEES7_EEPNS_11__tree_nodeIS8_PvEElEC2B8ne180100EPNS_15__tree_end_nodeIPNS_16__tree_node_baseISA_EEEE, symObjAddr: 0xE6C4, symBinAddr: 0x10000FC14, symSize: 0x20 }
  - { offset: 0x3BDB4, size: 0x8, addend: 0x0, symName: __ZNSt3__16__treeINS_12__value_typeINS_12basic_stringIcNS_11char_traitsIcEENS_9allocatorIcEEEES7_EENS_19__map_value_compareIS7_S8_NS_4lessIS7_EELb1EEENS5_IS8_EEE15__insert_uniqueB8ne180100ENS_21__tree_const_iteratorIS8_PNS_11__tree_nodeIS8_PvEElEERKNS_4pairIKS7_S7_EE, symObjAddr: 0xE6E4, symBinAddr: 0x10000FC34, symSize: 0x64 }
  - { offset: 0x3BDF8, size: 0x8, addend: 0x0, symName: __ZNSt3__114__map_iteratorINS_15__tree_iteratorINS_12__value_typeINS_12basic_stringIcNS_11char_traitsIcEENS_9allocatorIcEEEES8_EEPNS_11__tree_nodeIS9_PvEElEEEC1B8ne180100ESE_, symObjAddr: 0xE748, symBinAddr: 0x10000FC98, symSize: 0x34 }
  - { offset: 0x3BE31, size: 0x8, addend: 0x0, symName: __ZNSt3__16__treeINS_12__value_typeINS_12basic_stringIcNS_11char_traitsIcEENS_9allocatorIcEEEES7_EENS_19__map_value_compareIS7_S8_NS_4lessIS7_EELb1EEENS5_IS8_EEE30__emplace_hint_unique_key_argsIS7_JRKNS_4pairIKS7_S7_EEEEENSG_INS_15__tree_iteratorIS8_PNS_11__tree_nodeIS8_PvEElEEbEENS_21__tree_const_iteratorIS8_SP_lEERKT_DpOT0_, symObjAddr: 0xE77C, symBinAddr: 0x10000FCCC, symSize: 0xFC }
  - { offset: 0x3BEFB, size: 0x8, addend: 0x0, symName: __ZNSt3__122__tree_key_value_typesINS_12__value_typeINS_12basic_stringIcNS_11char_traitsIcEENS_9allocatorIcEEEES7_EEE9__get_keyB8ne180100IKNS_4pairIKS7_S7_EETnNS_9enable_ifIXsr17__is_same_uncvrefIT_SD_EE5valueEiE4typeELi0EEERSC_RSG_, symObjAddr: 0xE878, symBinAddr: 0x10000FDC8, symSize: 0x14 }
  - { offset: 0x3BF2E, size: 0x8, addend: 0x0, symName: __ZNSt3__16__treeINS_12__value_typeINS_12basic_stringIcNS_11char_traitsIcEENS_9allocatorIcEEEES7_EENS_19__map_value_compareIS7_S8_NS_4lessIS7_EELb1EEENS5_IS8_EEE12__find_equalIS7_EERPNS_16__tree_node_baseIPvEENS_21__tree_const_iteratorIS8_PNS_11__tree_nodeIS8_SH_EElEERPNS_15__tree_end_nodeISJ_EESK_RKT_, symObjAddr: 0xE88C, symBinAddr: 0x10000FDDC, symSize: 0x2F4 }
  - { offset: 0x3BFD5, size: 0x8, addend: 0x0, symName: __ZNSt3__16__treeINS_12__value_typeINS_12basic_stringIcNS_11char_traitsIcEENS_9allocatorIcEEEES7_EENS_19__map_value_compareIS7_S8_NS_4lessIS7_EELb1EEENS5_IS8_EEE16__construct_nodeIJRKNS_4pairIKS7_S7_EEEEENS_10unique_ptrINS_11__tree_nodeIS8_PvEENS_22__tree_node_destructorINS5_ISO_EEEEEEDpOT_, symObjAddr: 0xEB80, symBinAddr: 0x1000100D0, symSize: 0x110 }
  - { offset: 0x3C034, size: 0x8, addend: 0x0, symName: __ZNSt3__16__treeINS_12__value_typeINS_12basic_stringIcNS_11char_traitsIcEENS_9allocatorIcEEEES7_EENS_19__map_value_compareIS7_S8_NS_4lessIS7_EELb1EEENS5_IS8_EEE16__insert_node_atEPNS_15__tree_end_nodeIPNS_16__tree_node_baseIPvEEEERSJ_SJ_, symObjAddr: 0xEC90, symBinAddr: 0x1000101E0, symSize: 0xC4 }
  - { offset: 0x3C089, size: 0x8, addend: 0x0, symName: __ZNKSt3__110unique_ptrINS_11__tree_nodeINS_12__value_typeINS_12basic_stringIcNS_11char_traitsIcEENS_9allocatorIcEEEES8_EEPvEENS_22__tree_node_destructorINS6_ISB_EEEEE3getB8ne180100Ev, symObjAddr: 0xED54, symBinAddr: 0x1000102A4, symSize: 0x28 }
  - { offset: 0x3C0AF, size: 0x8, addend: 0x0, symName: __ZNSt3__110unique_ptrINS_11__tree_nodeINS_12__value_typeINS_12basic_stringIcNS_11char_traitsIcEENS_9allocatorIcEEEES8_EEPvEENS_22__tree_node_destructorINS6_ISB_EEEEE7releaseB8ne180100Ev, symObjAddr: 0xED7C, symBinAddr: 0x1000102CC, symSize: 0x44 }
  - { offset: 0x3C0E4, size: 0x8, addend: 0x0, symName: __ZNSt3__110unique_ptrINS_11__tree_nodeINS_12__value_typeINS_12basic_stringIcNS_11char_traitsIcEENS_9allocatorIcEEEES8_EEPvEENS_22__tree_node_destructorINS6_ISB_EEEEED1B8ne180100Ev, symObjAddr: 0xEDC0, symBinAddr: 0x100010310, symSize: 0x2C }
  - { offset: 0x3C10E, size: 0x8, addend: 0x0, symName: __ZNSt3__115__tree_iteratorINS_12__value_typeINS_12basic_stringIcNS_11char_traitsIcEENS_9allocatorIcEEEES7_EEPNS_11__tree_nodeIS8_PvEElEC1B8ne180100ESC_, symObjAddr: 0xEDEC, symBinAddr: 0x10001033C, symSize: 0x34 }
  - { offset: 0x3C14D, size: 0x8, addend: 0x0, symName: __ZNSt3__14pairINS_15__tree_iteratorINS_12__value_typeINS_12basic_stringIcNS_11char_traitsIcEENS_9allocatorIcEEEES8_EEPNS_11__tree_nodeIS9_PvEElEEbEC1B8ne180100ISE_RbTnNS_9enable_ifIXclsr10_CheckArgsE17__enable_implicitIT_T0_EEEiE4typeELi0EEEOSJ_OSK_, symObjAddr: 0xEE20, symBinAddr: 0x100010370, symSize: 0x3C }
  - { offset: 0x3C1AB, size: 0x8, addend: 0x0, symName: __ZNSt3__16__treeINS_12__value_typeINS_12basic_stringIcNS_11char_traitsIcEENS_9allocatorIcEEEES7_EENS_19__map_value_compareIS7_S8_NS_4lessIS7_EELb1EEENS5_IS8_EEE3endB8ne180100Ev, symObjAddr: 0xEE88, symBinAddr: 0x1000103D8, symSize: 0x34 }
  - { offset: 0x3C1D1, size: 0x8, addend: 0x0, symName: __ZNSt3__121__tree_const_iteratorINS_12__value_typeINS_12basic_stringIcNS_11char_traitsIcEENS_9allocatorIcEEEES7_EEPNS_11__tree_nodeIS8_PvEElEC1B8ne180100ENS_15__tree_iteratorIS8_SC_lEE, symObjAddr: 0xEEBC, symBinAddr: 0x10001040C, symSize: 0x34 }
  - { offset: 0x3C20A, size: 0x8, addend: 0x0, symName: __ZNSt3__16__treeINS_12__value_typeINS_12basic_stringIcNS_11char_traitsIcEENS_9allocatorIcEEEES7_EENS_19__map_value_compareIS7_S8_NS_4lessIS7_EELb1EEENS5_IS8_EEE10value_compB8ne180100Ev, symObjAddr: 0xEEF0, symBinAddr: 0x100010440, symSize: 0x28 }
  - { offset: 0x3C230, size: 0x8, addend: 0x0, symName: __ZNKSt3__119__map_value_compareINS_12basic_stringIcNS_11char_traitsIcEENS_9allocatorIcEEEENS_12__value_typeIS6_S6_EENS_4lessIS6_EELb1EEclB8ne180100ERKS6_RKS8_, symObjAddr: 0xEF18, symBinAddr: 0x100010468, symSize: 0x4C }
  - { offset: 0x3C274, size: 0x8, addend: 0x0, symName: __ZNKSt3__121__tree_const_iteratorINS_12__value_typeINS_12basic_stringIcNS_11char_traitsIcEENS_9allocatorIcEEEES7_EEPNS_11__tree_nodeIS8_PvEElEdeB8ne180100Ev, symObjAddr: 0xEF64, symBinAddr: 0x1000104B4, symSize: 0x28 }
  - { offset: 0x3C29A, size: 0x8, addend: 0x0, symName: __ZNSt3__16__treeINS_12__value_typeINS_12basic_stringIcNS_11char_traitsIcEENS_9allocatorIcEEEES7_EENS_19__map_value_compareIS7_S8_NS_4lessIS7_EELb1EEENS5_IS8_EEE5beginB8ne180100Ev, symObjAddr: 0xEF8C, symBinAddr: 0x1000104DC, symSize: 0x34 }
  - { offset: 0x3C2C0, size: 0x8, addend: 0x0, symName: __ZNKSt3__119__map_value_compareINS_12basic_stringIcNS_11char_traitsIcEENS_9allocatorIcEEEENS_12__value_typeIS6_S6_EENS_4lessIS6_EELb1EEclB8ne180100ERKS8_RKS6_, symObjAddr: 0xEFC0, symBinAddr: 0x100010510, symSize: 0x44 }
  - { offset: 0x3C304, size: 0x8, addend: 0x0, symName: __ZNSt3__121__tree_const_iteratorINS_12__value_typeINS_12basic_stringIcNS_11char_traitsIcEENS_9allocatorIcEEEES7_EEPNS_11__tree_nodeIS8_PvEElEmmB8ne180100Ev, symObjAddr: 0xF004, symBinAddr: 0x100010554, symSize: 0x38 }
  - { offset: 0x3C32A, size: 0x8, addend: 0x0, symName: __ZNSt3__16__treeINS_12__value_typeINS_12basic_stringIcNS_11char_traitsIcEENS_9allocatorIcEEEES7_EENS_19__map_value_compareIS7_S8_NS_4lessIS7_EELb1EEENS5_IS8_EEE12__find_equalIS7_EERPNS_16__tree_node_baseIPvEERPNS_15__tree_end_nodeISJ_EERKT_, symObjAddr: 0xF03C, symBinAddr: 0x10001058C, symSize: 0x16C }
  - { offset: 0x3C395, size: 0x8, addend: 0x0, symName: __ZNKSt3__121__tree_const_iteratorINS_12__value_typeINS_12basic_stringIcNS_11char_traitsIcEENS_9allocatorIcEEEES7_EEPNS_11__tree_nodeIS8_PvEElE8__get_npB8ne180100Ev, symObjAddr: 0xF1E4, symBinAddr: 0x100010734, symSize: 0x18 }
  - { offset: 0x3C3BB, size: 0x8, addend: 0x0, symName: __ZNSt3__115__tree_iteratorINS_12__value_typeINS_12basic_stringIcNS_11char_traitsIcEENS_9allocatorIcEEEES7_EEPNS_11__tree_nodeIS8_PvEElEC1B8ne180100EPNS_15__tree_end_nodeIPNS_16__tree_node_baseISA_EEEE, symObjAddr: 0xF1FC, symBinAddr: 0x10001074C, symSize: 0x34 }
  - { offset: 0x3C3F4, size: 0x8, addend: 0x0, symName: __ZNSt3__115__tree_iteratorINS_12__value_typeINS_12basic_stringIcNS_11char_traitsIcEENS_9allocatorIcEEEES7_EEPNS_11__tree_nodeIS8_PvEElEC2B8ne180100EPNS_15__tree_end_nodeIPNS_16__tree_node_baseISA_EEEE, symObjAddr: 0xF230, symBinAddr: 0x100010780, symSize: 0x20 }
  - { offset: 0x3C42D, size: 0x8, addend: 0x0, symName: __ZNSt3__121__tree_const_iteratorINS_12__value_typeINS_12basic_stringIcNS_11char_traitsIcEENS_9allocatorIcEEEES7_EEPNS_11__tree_nodeIS8_PvEElEC2B8ne180100ENS_15__tree_iteratorIS8_SC_lEE, symObjAddr: 0xF250, symBinAddr: 0x1000107A0, symSize: 0x20 }
  - { offset: 0x3C466, size: 0x8, addend: 0x0, symName: __ZNSt3__117__compressed_pairImNS_19__map_value_compareINS_12basic_stringIcNS_11char_traitsIcEENS_9allocatorIcEEEENS_12__value_typeIS7_S7_EENS_4lessIS7_EELb1EEEE6secondB8ne180100Ev, symObjAddr: 0xF270, symBinAddr: 0x1000107C0, symSize: 0x24 }
  - { offset: 0x3C48C, size: 0x8, addend: 0x0, symName: __ZNSt3__122__compressed_pair_elemINS_19__map_value_compareINS_12basic_stringIcNS_11char_traitsIcEENS_9allocatorIcEEEENS_12__value_typeIS7_S7_EENS_4lessIS7_EELb1EEELi1ELb1EE5__getB8ne180100Ev, symObjAddr: 0xF294, symBinAddr: 0x1000107E4, symSize: 0x14 }
  - { offset: 0x3C4B2, size: 0x8, addend: 0x0, symName: __ZNKSt3__112__value_typeINS_12basic_stringIcNS_11char_traitsIcEENS_9allocatorIcEEEES6_E11__get_valueB8ne180100Ev, symObjAddr: 0xF2A8, symBinAddr: 0x1000107F8, symSize: 0x14 }
  - { offset: 0x3C4D8, size: 0x8, addend: 0x0, symName: __ZNKSt3__16__treeINS_12__value_typeINS_12basic_stringIcNS_11char_traitsIcEENS_9allocatorIcEEEES7_EENS_19__map_value_compareIS7_S8_NS_4lessIS7_EELb1EEENS5_IS8_EEE6__rootB8ne180100Ev, symObjAddr: 0xF2BC, symBinAddr: 0x10001080C, symSize: 0x28 }
  - { offset: 0x3C4FE, size: 0x8, addend: 0x0, symName: __ZNKSt3__16__treeINS_12__value_typeINS_12basic_stringIcNS_11char_traitsIcEENS_9allocatorIcEEEES7_EENS_19__map_value_compareIS7_S8_NS_4lessIS7_EELb1EEENS5_IS8_EEE10__root_ptrB8ne180100Ev, symObjAddr: 0xF2E4, symBinAddr: 0x100010834, symSize: 0x24 }
  - { offset: 0x3C524, size: 0x8, addend: 0x0, symName: __ZNSt3__121__tree_const_iteratorINS_12__value_typeINS_12basic_stringIcNS_11char_traitsIcEENS_9allocatorIcEEEES7_EEPNS_11__tree_nodeIS8_PvEElEppB8ne180100Ev, symObjAddr: 0xF3D0, symBinAddr: 0x100010920, symSize: 0x38 }
  - { offset: 0x3C54A, size: 0x8, addend: 0x0, symName: __ZNSt3__16__treeINS_12__value_typeINS_12basic_stringIcNS_11char_traitsIcEENS_9allocatorIcEEEES7_EENS_19__map_value_compareIS7_S8_NS_4lessIS7_EELb1EEENS5_IS8_EEE12__node_allocB8ne180100Ev, symObjAddr: 0xF408, symBinAddr: 0x100010958, symSize: 0x28 }
  - { offset: 0x3C570, size: 0x8, addend: 0x0, symName: __ZNSt3__116allocator_traitsINS_9allocatorINS_11__tree_nodeINS_12__value_typeINS_12basic_stringIcNS_11char_traitsIcEENS1_IcEEEES8_EEPvEEEEE8allocateB8ne180100ERSC_m, symObjAddr: 0xF430, symBinAddr: 0x100010980, symSize: 0x2C }
  - { offset: 0x3C5A3, size: 0x8, addend: 0x0, symName: __ZNSt3__122__tree_node_destructorINS_9allocatorINS_11__tree_nodeINS_12__value_typeINS_12basic_stringIcNS_11char_traitsIcEENS1_IcEEEES8_EEPvEEEEEC1B8ne180100ERSC_b, symObjAddr: 0xF45C, symBinAddr: 0x1000109AC, symSize: 0x40 }
  - { offset: 0x3C5F1, size: 0x8, addend: 0x0, symName: __ZNSt3__110unique_ptrINS_11__tree_nodeINS_12__value_typeINS_12basic_stringIcNS_11char_traitsIcEENS_9allocatorIcEEEES8_EEPvEENS_22__tree_node_destructorINS6_ISB_EEEEEC1B8ne180100ILb1EvEEPSB_NS_16__dependent_typeINS_27__unique_ptr_deleter_sfinaeISE_EEXT_EE20__good_rval_ref_typeE, symObjAddr: 0xF49C, symBinAddr: 0x1000109EC, symSize: 0x3C }
  - { offset: 0x3C642, size: 0x8, addend: 0x0, symName: __ZNSt3__116allocator_traitsINS_9allocatorINS_11__tree_nodeINS_12__value_typeINS_12basic_stringIcNS_11char_traitsIcEENS1_IcEEEES8_EEPvEEEEE9constructB8ne180100INS_4pairIKS8_S8_EEJRKSH_EvEEvRSC_PT_DpOT0_, symObjAddr: 0xF4D8, symBinAddr: 0x100010A28, symSize: 0x34 }
  - { offset: 0x3C699, size: 0x8, addend: 0x0, symName: __ZNSt3__122__tree_key_value_typesINS_12__value_typeINS_12basic_stringIcNS_11char_traitsIcEENS_9allocatorIcEEEES7_EEE9__get_ptrB8ne180100ERS8_, symObjAddr: 0xF50C, symBinAddr: 0x100010A5C, symSize: 0x24 }
  - { offset: 0x3C6BD, size: 0x8, addend: 0x0, symName: __ZNKSt3__110unique_ptrINS_11__tree_nodeINS_12__value_typeINS_12basic_stringIcNS_11char_traitsIcEENS_9allocatorIcEEEES8_EEPvEENS_22__tree_node_destructorINS6_ISB_EEEEEptB8ne180100Ev, symObjAddr: 0xF530, symBinAddr: 0x100010A80, symSize: 0x28 }
  - { offset: 0x3C6E3, size: 0x8, addend: 0x0, symName: __ZNSt3__110unique_ptrINS_11__tree_nodeINS_12__value_typeINS_12basic_stringIcNS_11char_traitsIcEENS_9allocatorIcEEEES8_EEPvEENS_22__tree_node_destructorINS6_ISB_EEEEE11get_deleterB8ne180100Ev, symObjAddr: 0xF558, symBinAddr: 0x100010AA8, symSize: 0x24 }
  - { offset: 0x3C709, size: 0x8, addend: 0x0, symName: __ZNSt3__117__compressed_pairINS_15__tree_end_nodeIPNS_16__tree_node_baseIPvEEEENS_9allocatorINS_11__tree_nodeINS_12__value_typeINS_12basic_stringIcNS_11char_traitsIcEENS7_IcEEEESE_EES3_EEEEE6secondB8ne180100Ev, symObjAddr: 0xF57C, symBinAddr: 0x100010ACC, symSize: 0x24 }
  - { offset: 0x3C72F, size: 0x8, addend: 0x0, symName: __ZNSt3__122__compressed_pair_elemINS_9allocatorINS_11__tree_nodeINS_12__value_typeINS_12basic_stringIcNS_11char_traitsIcEENS1_IcEEEES8_EEPvEEEELi1ELb1EE5__getB8ne180100Ev, symObjAddr: 0xF5A0, symBinAddr: 0x100010AF0, symSize: 0x14 }
  - { offset: 0x3C755, size: 0x8, addend: 0x0, symName: __ZNSt3__19allocatorINS_11__tree_nodeINS_12__value_typeINS_12basic_stringIcNS_11char_traitsIcEENS0_IcEEEES7_EEPvEEE8allocateB8ne180100Em, symObjAddr: 0xF5B4, symBinAddr: 0x100010B04, symSize: 0x58 }
  - { offset: 0x3C794, size: 0x8, addend: 0x0, symName: __ZNSt3__116allocator_traitsINS_9allocatorINS_11__tree_nodeINS_12__value_typeINS_12basic_stringIcNS_11char_traitsIcEENS1_IcEEEES8_EEPvEEEEE8max_sizeB8ne180100ISC_vEEmRKSC_, symObjAddr: 0xF60C, symBinAddr: 0x100010B5C, symSize: 0x24 }
  - { offset: 0x3C7C2, size: 0x8, addend: 0x0, symName: __ZNKSt3__19allocatorINS_11__tree_nodeINS_12__value_typeINS_12basic_stringIcNS_11char_traitsIcEENS0_IcEEEES7_EEPvEEE8max_sizeB8ne180100Ev, symObjAddr: 0xF630, symBinAddr: 0x100010B80, symSize: 0x18 }
  - { offset: 0x3C7E8, size: 0x8, addend: 0x0, symName: __ZNSt3__122__tree_node_destructorINS_9allocatorINS_11__tree_nodeINS_12__value_typeINS_12basic_stringIcNS_11char_traitsIcEENS1_IcEEEES8_EEPvEEEEEC2B8ne180100ERSC_b, symObjAddr: 0xF648, symBinAddr: 0x100010B98, symSize: 0x30 }
  - { offset: 0x3C830, size: 0x8, addend: 0x0, symName: __ZNSt3__110unique_ptrINS_11__tree_nodeINS_12__value_typeINS_12basic_stringIcNS_11char_traitsIcEENS_9allocatorIcEEEES8_EEPvEENS_22__tree_node_destructorINS6_ISB_EEEEEC2B8ne180100ILb1EvEEPSB_NS_16__dependent_typeINS_27__unique_ptr_deleter_sfinaeISE_EEXT_EE20__good_rval_ref_typeE, symObjAddr: 0xF678, symBinAddr: 0x100010BC8, symSize: 0x48 }
  - { offset: 0x3C881, size: 0x8, addend: 0x0, symName: __ZNSt3__117__compressed_pairIPNS_11__tree_nodeINS_12__value_typeINS_12basic_stringIcNS_11char_traitsIcEENS_9allocatorIcEEEES8_EEPvEENS_22__tree_node_destructorINS6_ISB_EEEEEC1B8ne180100IRSC_SF_EEOT_OT0_, symObjAddr: 0xF6C0, symBinAddr: 0x100010C10, symSize: 0x3C }
  - { offset: 0x3C8D9, size: 0x8, addend: 0x0, symName: __ZNSt3__117__compressed_pairIPNS_11__tree_nodeINS_12__value_typeINS_12basic_stringIcNS_11char_traitsIcEENS_9allocatorIcEEEES8_EEPvEENS_22__tree_node_destructorINS6_ISB_EEEEEC2B8ne180100IRSC_SF_EEOT_OT0_, symObjAddr: 0xF6FC, symBinAddr: 0x100010C4C, symSize: 0x48 }
  - { offset: 0x3C931, size: 0x8, addend: 0x0, symName: __ZNSt3__122__compressed_pair_elemIPNS_11__tree_nodeINS_12__value_typeINS_12basic_stringIcNS_11char_traitsIcEENS_9allocatorIcEEEES8_EEPvEELi0ELb0EEC2B8ne180100IRSC_vEEOT_, symObjAddr: 0xF744, symBinAddr: 0x100010C94, symSize: 0x24 }
  - { offset: 0x3C973, size: 0x8, addend: 0x0, symName: __ZNSt3__122__compressed_pair_elemINS_22__tree_node_destructorINS_9allocatorINS_11__tree_nodeINS_12__value_typeINS_12basic_stringIcNS_11char_traitsIcEENS2_IcEEEES9_EEPvEEEEEELi1ELb0EEC2B8ne180100ISE_vEEOT_, symObjAddr: 0xF768, symBinAddr: 0x100010CB8, symSize: 0x24 }
  - { offset: 0x3C9B5, size: 0x8, addend: 0x0, symName: __ZNSt3__19allocatorINS_11__tree_nodeINS_12__value_typeINS_12basic_stringIcNS_11char_traitsIcEENS0_IcEEEES7_EEPvEEE9constructB8ne180100INS_4pairIKS7_S7_EEJRKSF_EEEvPT_DpOT0_, symObjAddr: 0xF78C, symBinAddr: 0x100010CDC, symSize: 0x30 }
  - { offset: 0x3CA0B, size: 0x8, addend: 0x0, symName: __ZNSt3__14pairIKNS_12basic_stringIcNS_11char_traitsIcEENS_9allocatorIcEEEES6_EC1B8ne180100ERKS8_, symObjAddr: 0xF7BC, symBinAddr: 0x100010D0C, symSize: 0x34 }
  - { offset: 0x3CA3F, size: 0x8, addend: 0x0, symName: __ZNSt3__14pairIKNS_12basic_stringIcNS_11char_traitsIcEENS_9allocatorIcEEEES6_EC2B8ne180100ERKS8_, symObjAddr: 0xF7F0, symBinAddr: 0x100010D40, symSize: 0x70 }
  - { offset: 0x3CA73, size: 0x8, addend: 0x0, symName: __ZNSt3__112__value_typeINS_12basic_stringIcNS_11char_traitsIcEENS_9allocatorIcEEEES6_E11__get_valueB8ne180100Ev, symObjAddr: 0xF860, symBinAddr: 0x100010DB0, symSize: 0x14 }
  - { offset: 0x3CA99, size: 0x8, addend: 0x0, symName: __ZNKSt3__117__compressed_pairIPNS_11__tree_nodeINS_12__value_typeINS_12basic_stringIcNS_11char_traitsIcEENS_9allocatorIcEEEES8_EEPvEENS_22__tree_node_destructorINS6_ISB_EEEEE5firstB8ne180100Ev, symObjAddr: 0xF874, symBinAddr: 0x100010DC4, symSize: 0x24 }
  - { offset: 0x3CABF, size: 0x8, addend: 0x0, symName: __ZNKSt3__122__compressed_pair_elemIPNS_11__tree_nodeINS_12__value_typeINS_12basic_stringIcNS_11char_traitsIcEENS_9allocatorIcEEEES8_EEPvEELi0ELb0EE5__getB8ne180100Ev, symObjAddr: 0xF898, symBinAddr: 0x100010DE8, symSize: 0x14 }
  - { offset: 0x3CAE5, size: 0x8, addend: 0x0, symName: __ZNSt3__117__compressed_pairIPNS_11__tree_nodeINS_12__value_typeINS_12basic_stringIcNS_11char_traitsIcEENS_9allocatorIcEEEES8_EEPvEENS_22__tree_node_destructorINS6_ISB_EEEEE6secondB8ne180100Ev, symObjAddr: 0xF8AC, symBinAddr: 0x100010DFC, symSize: 0x28 }
  - { offset: 0x3CB0B, size: 0x8, addend: 0x0, symName: __ZNSt3__122__compressed_pair_elemINS_22__tree_node_destructorINS_9allocatorINS_11__tree_nodeINS_12__value_typeINS_12basic_stringIcNS_11char_traitsIcEENS2_IcEEEES9_EEPvEEEEEELi1ELb0EE5__getB8ne180100Ev, symObjAddr: 0xF8D4, symBinAddr: 0x100010E24, symSize: 0x14 }
  - { offset: 0x3CB31, size: 0x8, addend: 0x0, symName: __ZNSt3__16__treeINS_12__value_typeINS_12basic_stringIcNS_11char_traitsIcEENS_9allocatorIcEEEES7_EENS_19__map_value_compareIS7_S8_NS_4lessIS7_EELb1EEENS5_IS8_EEE4sizeB8ne180100Ev, symObjAddr: 0xF8E8, symBinAddr: 0x100010E38, symSize: 0x28 }
  - { offset: 0x3CB57, size: 0x8, addend: 0x0, symName: __ZNSt3__117__compressed_pairImNS_19__map_value_compareINS_12basic_stringIcNS_11char_traitsIcEENS_9allocatorIcEEEENS_12__value_typeIS7_S7_EENS_4lessIS7_EELb1EEEE5firstB8ne180100Ev, symObjAddr: 0xF910, symBinAddr: 0x100010E60, symSize: 0x24 }
  - { offset: 0x3CB7D, size: 0x8, addend: 0x0, symName: __ZNSt3__117__compressed_pairIPNS_11__tree_nodeINS_12__value_typeINS_12basic_stringIcNS_11char_traitsIcEENS_9allocatorIcEEEES8_EEPvEENS_22__tree_node_destructorINS6_ISB_EEEEE5firstB8ne180100Ev, symObjAddr: 0xF934, symBinAddr: 0x100010E84, symSize: 0x24 }
  - { offset: 0x3CBA3, size: 0x8, addend: 0x0, symName: __ZNSt3__122__compressed_pair_elemIPNS_11__tree_nodeINS_12__value_typeINS_12basic_stringIcNS_11char_traitsIcEENS_9allocatorIcEEEES8_EEPvEELi0ELb0EE5__getB8ne180100Ev, symObjAddr: 0xF958, symBinAddr: 0x100010EA8, symSize: 0x14 }
  - { offset: 0x3CBC9, size: 0x8, addend: 0x0, symName: __ZNSt3__110unique_ptrINS_11__tree_nodeINS_12__value_typeINS_12basic_stringIcNS_11char_traitsIcEENS_9allocatorIcEEEES8_EEPvEENS_22__tree_node_destructorINS6_ISB_EEEEED2B8ne180100Ev, symObjAddr: 0xF96C, symBinAddr: 0x100010EBC, symSize: 0x30 }
  - { offset: 0x3CBF3, size: 0x8, addend: 0x0, symName: __ZNSt3__110unique_ptrINS_11__tree_nodeINS_12__value_typeINS_12basic_stringIcNS_11char_traitsIcEENS_9allocatorIcEEEES8_EEPvEENS_22__tree_node_destructorINS6_ISB_EEEEE5resetB8ne180100EPSB_, symObjAddr: 0xF99C, symBinAddr: 0x100010EEC, symSize: 0x70 }
  - { offset: 0x3CC37, size: 0x8, addend: 0x0, symName: __ZNSt3__122__tree_node_destructorINS_9allocatorINS_11__tree_nodeINS_12__value_typeINS_12basic_stringIcNS_11char_traitsIcEENS1_IcEEEES8_EEPvEEEEEclB8ne180100EPSB_, symObjAddr: 0xFA0C, symBinAddr: 0x100010F5C, symSize: 0x90 }
  - { offset: 0x3CC6C, size: 0x8, addend: 0x0, symName: __ZNSt3__116allocator_traitsINS_9allocatorINS_11__tree_nodeINS_12__value_typeINS_12basic_stringIcNS_11char_traitsIcEENS1_IcEEEES8_EEPvEEEEE7destroyB8ne180100INS_4pairIKS8_S8_EEvvEEvRSC_PT_, symObjAddr: 0xFA9C, symBinAddr: 0x100010FEC, symSize: 0x28 }
  - { offset: 0x3CCA6, size: 0x8, addend: 0x0, symName: __ZNSt3__116allocator_traitsINS_9allocatorINS_11__tree_nodeINS_12__value_typeINS_12basic_stringIcNS_11char_traitsIcEENS1_IcEEEES8_EEPvEEEEE10deallocateB8ne180100ERSC_PSB_m, symObjAddr: 0xFAC4, symBinAddr: 0x100011014, symSize: 0x34 }
  - { offset: 0x3CCE8, size: 0x8, addend: 0x0, symName: __ZNSt3__19allocatorINS_11__tree_nodeINS_12__value_typeINS_12basic_stringIcNS_11char_traitsIcEENS0_IcEEEES7_EEPvEEE10deallocateB8ne180100EPSA_m, symObjAddr: 0xFAF8, symBinAddr: 0x100011048, symSize: 0x44 }
  - { offset: 0x3CD2A, size: 0x8, addend: 0x0, symName: __ZNSt3__115__tree_iteratorINS_12__value_typeINS_12basic_stringIcNS_11char_traitsIcEENS_9allocatorIcEEEES7_EEPNS_11__tree_nodeIS8_PvEElEC2B8ne180100ESC_, symObjAddr: 0xFB3C, symBinAddr: 0x10001108C, symSize: 0x20 }
  - { offset: 0x3CD63, size: 0x8, addend: 0x0, symName: __ZNSt3__14pairINS_15__tree_iteratorINS_12__value_typeINS_12basic_stringIcNS_11char_traitsIcEENS_9allocatorIcEEEES8_EEPNS_11__tree_nodeIS9_PvEElEEbEC2B8ne180100ISE_RbTnNS_9enable_ifIXclsr10_CheckArgsE17__enable_implicitIT_T0_EEEiE4typeELi0EEEOSJ_OSK_, symObjAddr: 0xFB5C, symBinAddr: 0x1000110AC, symSize: 0x38 }
  - { offset: 0x3CDC1, size: 0x8, addend: 0x0, symName: __ZNSt3__114__map_iteratorINS_15__tree_iteratorINS_12__value_typeINS_12basic_stringIcNS_11char_traitsIcEENS_9allocatorIcEEEES8_EEPNS_11__tree_nodeIS9_PvEElEEEC2B8ne180100ESE_, symObjAddr: 0xFB94, symBinAddr: 0x1000110E4, symSize: 0x20 }
  - { offset: 0x3CDFA, size: 0x8, addend: 0x0, symName: __ZNSt3__120__map_const_iteratorINS_21__tree_const_iteratorINS_12__value_typeINS_12basic_stringIcNS_11char_traitsIcEENS_9allocatorIcEEEES8_EEPNS_11__tree_nodeIS9_PvEElEEEC2B8ne180100ESE_, symObjAddr: 0xFBB4, symBinAddr: 0x100011104, symSize: 0x20 }
  - { offset: 0x3CE33, size: 0x8, addend: 0x0, symName: __ZNSt3__16__treeINS_12__value_typeINS_12basic_stringIcNS_11char_traitsIcEENS_9allocatorIcEEEES7_EENS_19__map_value_compareIS7_S8_NS_4lessIS7_EELb1EEENS5_IS8_EEED2Ev, symObjAddr: 0xFBD4, symBinAddr: 0x100011124, symSize: 0x38 }
  - { offset: 0x3CE5F, size: 0x8, addend: 0x0, symName: __ZNSt3__16__treeINS_12__value_typeINS_12basic_stringIcNS_11char_traitsIcEENS_9allocatorIcEEEES7_EENS_19__map_value_compareIS7_S8_NS_4lessIS7_EELb1EEENS5_IS8_EEE7destroyEPNS_11__tree_nodeIS8_PvEE, symObjAddr: 0xFC0C, symBinAddr: 0x10001115C, symSize: 0xA0 }
  - { offset: 0x3CEAB, size: 0x8, addend: 0x0, symName: __ZNSt3__13mapINS_12basic_stringIcNS_11char_traitsIcEENS_9allocatorIcEEEES6_NS_4lessIS6_EENS4_INS_4pairIKS6_S6_EEEEED2B8ne180100Ev, symObjAddr: 0xFCAC, symBinAddr: 0x1000111FC, symSize: 0x2C }
  - { offset: 0x3CED5, size: 0x8, addend: 0x0, symName: '__ZNSt3__14pairIKNS_12basic_stringIcNS_11char_traitsIcEENS_9allocatorIcEEEEiEC2B8ne180100IRA5_Kc3$_1TnNS_9enable_ifIXclsr10_CheckArgsE17__enable_implicitIT_T0_EEEiE4typeELi0EEEOSF_OSG_', symObjAddr: 0xFCD8, symBinAddr: 0x100011228, symSize: 0x44 }
  - { offset: 0x3CF33, size: 0x8, addend: 0x0, symName: __ZNSt3__19allocatorIcEC1B8ne180100Ev, symObjAddr: 0xFD1C, symBinAddr: 0x10001126C, symSize: 0x2C }
  - { offset: 0x3CF5D, size: 0x8, addend: 0x0, symName: __ZNKSt3__112basic_stringIcNS_11char_traitsIcEENS_9allocatorIcEEE15__get_long_sizeB8ne180100Ev, symObjAddr: 0xFD48, symBinAddr: 0x100011298, symSize: 0x28 }
  - { offset: 0x3CF83, size: 0x8, addend: 0x0, symName: __ZNKSt3__112basic_stringIcNS_11char_traitsIcEENS_9allocatorIcEEE16__get_short_sizeB8ne180100Ev, symObjAddr: 0xFD70, symBinAddr: 0x1000112C0, symSize: 0x34 }
  - { offset: 0x3CFA9, size: 0x8, addend: 0x0, symName: __ZNKSt3__16__treeINS_12__value_typeINS_12basic_stringIcNS_11char_traitsIcEENS_9allocatorIcEEEEiEENS_19__map_value_compareIS7_S8_NS_4lessIS7_EELb1EEENS5_IS8_EEE14__count_uniqueIS7_EEmRKT_, symObjAddr: 0xFDA4, symBinAddr: 0x1000112F4, symSize: 0xC0 }
  - { offset: 0x3CFF6, size: 0x8, addend: 0x0, symName: __ZNKSt3__16__treeINS_12__value_typeINS_12basic_stringIcNS_11char_traitsIcEENS_9allocatorIcEEEEiEENS_19__map_value_compareIS7_S8_NS_4lessIS7_EELb1EEENS5_IS8_EEE10value_compB8ne180100Ev, symObjAddr: 0xFE64, symBinAddr: 0x1000113B4, symSize: 0x28 }
  - { offset: 0x3D01C, size: 0x8, addend: 0x0, symName: __ZNKSt3__117__compressed_pairImNS_19__map_value_compareINS_12basic_stringIcNS_11char_traitsIcEENS_9allocatorIcEEEENS_12__value_typeIS7_iEENS_4lessIS7_EELb1EEEE6secondB8ne180100Ev, symObjAddr: 0xFE8C, symBinAddr: 0x1000113DC, symSize: 0x24 }
  - { offset: 0x3D042, size: 0x8, addend: 0x0, symName: __ZNKSt3__122__compressed_pair_elemINS_19__map_value_compareINS_12basic_stringIcNS_11char_traitsIcEENS_9allocatorIcEEEENS_12__value_typeIS7_iEENS_4lessIS7_EELb1EEELi1ELb1EE5__getB8ne180100Ev, symObjAddr: 0xFEB0, symBinAddr: 0x100011400, symSize: 0x14 }
  - { offset: 0x3D068, size: 0x8, addend: 0x0, symName: __ZNSt3__115__tree_iteratorINS_12__value_typeINS_12basic_stringIcNS_11char_traitsIcEENS_9allocatorIcEEEEiEEPNS_11__tree_nodeIS8_PvEElEppB8ne180100Ev, symObjAddr: 0xFF20, symBinAddr: 0x100011470, symSize: 0x38 }
  - { offset: 0x3D08E, size: 0x8, addend: 0x0, symName: __ZNSt3__16__treeINS_12__value_typeINS_12basic_stringIcNS_11char_traitsIcEENS_9allocatorIcEEEES7_EENS_19__map_value_compareIS7_S8_NS_4lessIS7_EELb1EEENS5_IS8_EEE25__emplace_unique_key_argsIS7_JRKNS_21piecewise_construct_tENS_5tupleIJRKS7_EEENSJ_IJEEEEEENS_4pairINS_15__tree_iteratorIS8_PNS_11__tree_nodeIS8_PvEElEEbEERKT_DpOT0_, symObjAddr: 0xFF58, symBinAddr: 0x1000114A8, symSize: 0xF8 }
  - { offset: 0x3D162, size: 0x8, addend: 0x0, symName: __ZNKSt3__115__tree_iteratorINS_12__value_typeINS_12basic_stringIcNS_11char_traitsIcEENS_9allocatorIcEEEES7_EEPNS_11__tree_nodeIS8_PvEElEptB8ne180100Ev, symObjAddr: 0x10050, symBinAddr: 0x1000115A0, symSize: 0x2C }
  - { offset: 0x3D188, size: 0x8, addend: 0x0, symName: __ZNSt3__16__treeINS_12__value_typeINS_12basic_stringIcNS_11char_traitsIcEENS_9allocatorIcEEEES7_EENS_19__map_value_compareIS7_S8_NS_4lessIS7_EELb1EEENS5_IS8_EEE16__construct_nodeIJRKNS_21piecewise_construct_tENS_5tupleIJRKS7_EEENSJ_IJEEEEEENS_10unique_ptrINS_11__tree_nodeIS8_PvEENS_22__tree_node_destructorINS5_ISR_EEEEEEDpOT_, symObjAddr: 0x1007C, symBinAddr: 0x1000115CC, symSize: 0x120 }
  - { offset: 0x3D20F, size: 0x8, addend: 0x0, symName: __ZNSt3__116allocator_traitsINS_9allocatorINS_11__tree_nodeINS_12__value_typeINS_12basic_stringIcNS_11char_traitsIcEENS1_IcEEEES8_EEPvEEEEE9constructB8ne180100INS_4pairIKS8_S8_EEJRKNS_21piecewise_construct_tENS_5tupleIJRSG_EEENSL_IJEEEEvEEvRSC_PT_DpOT0_, symObjAddr: 0x1019C, symBinAddr: 0x1000116EC, symSize: 0x44 }
  - { offset: 0x3D28E, size: 0x8, addend: 0x0, symName: __ZNSt3__19allocatorINS_11__tree_nodeINS_12__value_typeINS_12basic_stringIcNS_11char_traitsIcEENS0_IcEEEES7_EEPvEEE9constructB8ne180100INS_4pairIKS7_S7_EEJRKNS_21piecewise_construct_tENS_5tupleIJRSE_EEENSJ_IJEEEEEEvPT_DpOT0_, symObjAddr: 0x101E0, symBinAddr: 0x100011730, symSize: 0x44 }
  - { offset: 0x3D30A, size: 0x8, addend: 0x0, symName: __ZNSt3__14pairIKNS_12basic_stringIcNS_11char_traitsIcEENS_9allocatorIcEEEES6_EC1B8ne180100IJRS7_EJEEENS_21piecewise_construct_tENS_5tupleIJDpT_EEENSC_IJDpT0_EEE, symObjAddr: 0x10224, symBinAddr: 0x100011774, symSize: 0x3C }
  - { offset: 0x3D371, size: 0x8, addend: 0x0, symName: __ZNSt3__14pairIKNS_12basic_stringIcNS_11char_traitsIcEENS_9allocatorIcEEEES6_EC1B8ne180100IJRS7_EJEJLm0EETpTnmJEEENS_21piecewise_construct_tERNS_5tupleIJDpT_EEERNSC_IJDpT0_EEENS_15__tuple_indicesIJXspT1_EEEENSL_IJXspT2_EEEE, symObjAddr: 0x10260, symBinAddr: 0x1000117B0, symSize: 0x3C }
  - { offset: 0x3D3FB, size: 0x8, addend: 0x0, symName: __ZNSt3__14pairIKNS_12basic_stringIcNS_11char_traitsIcEENS_9allocatorIcEEEES6_EC2B8ne180100IJRS7_EJEJLm0EETpTnmJEEENS_21piecewise_construct_tERNS_5tupleIJDpT_EEERNSC_IJDpT0_EEENS_15__tuple_indicesIJXspT1_EEEENSL_IJXspT2_EEEE, symObjAddr: 0x1029C, symBinAddr: 0x1000117EC, symSize: 0x50 }
  - { offset: 0x3D485, size: 0x8, addend: 0x0, symName: __ZNSt3__114pointer_traitsIPNS_12__value_typeINS_12basic_stringIcNS_11char_traitsIcEENS_9allocatorIcEEEES7_EEE10pointer_toB8ne180100ERS8_, symObjAddr: 0x102EC, symBinAddr: 0x10001183C, symSize: 0x14 }
  - { offset: 0x3D4A8, size: 0x8, addend: 0x0, symName: __ZNKSt3__115__tree_iteratorINS_12__value_typeINS_12basic_stringIcNS_11char_traitsIcEENS_9allocatorIcEEEES7_EEPNS_11__tree_nodeIS8_PvEElE8__get_npB8ne180100Ev, symObjAddr: 0x10300, symBinAddr: 0x100011850, symSize: 0x18 }
  - { offset: 0x3D55C, size: 0x8, addend: 0x0, symName: __ZNKSt3__113basic_istreamIcNS_11char_traitsIcEEE6sentrycvbB8ne180100Ev, symObjAddr: 0x1053C, symBinAddr: 0x100011A8C, symSize: 0x1C }
  - { offset: 0x3D582, size: 0x8, addend: 0x0, symName: __ZNSt3__112basic_stringIcNS_11char_traitsIcEENS_9allocatorIcEEE5clearB8ne180100Ev, symObjAddr: 0x10558, symBinAddr: 0x100011AA8, symSize: 0x94 }
  - { offset: 0x3D5B9, size: 0x8, addend: 0x0, symName: __ZNSt3__115basic_streambufIcNS_11char_traitsIcEEE6sbumpcB8ne180100Ev, symObjAddr: 0x105EC, symBinAddr: 0x100011B3C, symSize: 0x74 }
  - { offset: 0x3D5DF, size: 0x8, addend: 0x0, symName: __ZNSt3__111char_traitsIcE12to_char_typeB8ne180100Ei, symObjAddr: 0x10660, symBinAddr: 0x100011BB0, symSize: 0x18 }
  - { offset: 0x3D603, size: 0x8, addend: 0x0, symName: __ZNSt3__111char_traitsIcE2eqEcc, symObjAddr: 0x10678, symBinAddr: 0x100011BC8, symSize: 0x24 }
  - { offset: 0x3D634, size: 0x8, addend: 0x0, symName: __ZNKSt3__112basic_stringIcNS_11char_traitsIcEENS_9allocatorIcEEE8max_sizeB8ne180100Ev, symObjAddr: 0x1069C, symBinAddr: 0x100011BEC, symSize: 0xA8 }
  - { offset: 0x3D686, size: 0x8, addend: 0x0, symName: __ZNSt3__18ios_base18__setstate_nothrowB8ne180100Ej, symObjAddr: 0x10744, symBinAddr: 0x100011C94, symSize: 0x5C }
  - { offset: 0x3D6BB, size: 0x8, addend: 0x0, symName: __ZNKSt3__19basic_iosIcNS_11char_traitsIcEEE10exceptionsB8ne180100Ev, symObjAddr: 0x107A0, symBinAddr: 0x100011CF0, symSize: 0x24 }
  - { offset: 0x3D6E1, size: 0x8, addend: 0x0, symName: __ZNSt3__111char_traitsIcE6assignB8ne180100ERcRKc, symObjAddr: 0x107C4, symBinAddr: 0x100011D14, symSize: 0x24 }
  - { offset: 0x3D712, size: 0x8, addend: 0x0, symName: __ZNSt3__112basic_stringIcNS_11char_traitsIcEENS_9allocatorIcEEE18__get_long_pointerB8ne180100Ev, symObjAddr: 0x107E8, symBinAddr: 0x100011D38, symSize: 0x28 }
  - { offset: 0x3D738, size: 0x8, addend: 0x0, symName: __ZNSt3__112basic_stringIcNS_11char_traitsIcEENS_9allocatorIcEEE15__set_long_sizeB8ne180100Em, symObjAddr: 0x10810, symBinAddr: 0x100011D60, symSize: 0x38 }
  - { offset: 0x3D76D, size: 0x8, addend: 0x0, symName: __ZNSt3__112basic_stringIcNS_11char_traitsIcEENS_9allocatorIcEEE19__get_short_pointerB8ne180100Ev, symObjAddr: 0x10848, symBinAddr: 0x100011D98, symSize: 0x28 }
  - { offset: 0x3D793, size: 0x8, addend: 0x0, symName: __ZNSt3__112basic_stringIcNS_11char_traitsIcEENS_9allocatorIcEEE16__set_short_sizeB8ne180100Em, symObjAddr: 0x10870, symBinAddr: 0x100011DC0, symSize: 0x78 }
  - { offset: 0x3D7C8, size: 0x8, addend: 0x0, symName: __ZNKSt3__112basic_stringIcNS_11char_traitsIcEENS_9allocatorIcEEE17__annotate_shrinkB8ne180100Em, symObjAddr: 0x108E8, symBinAddr: 0x100011E38, symSize: 0x14 }
  - { offset: 0x3D7FD, size: 0x8, addend: 0x0, symName: __ZNSt3__114pointer_traitsIPcE10pointer_toB8ne180100ERc, symObjAddr: 0x108FC, symBinAddr: 0x100011E4C, symSize: 0x14 }
  - { offset: 0x3D820, size: 0x8, addend: 0x0, symName: __ZNSt3__111char_traitsIcE11to_int_typeB8ne180100Ec, symObjAddr: 0x10910, symBinAddr: 0x100011E60, symSize: 0x14 }
  - { offset: 0x3D84F, size: 0x8, addend: 0x0, symName: __ZNSt3__116allocator_traitsINS_9allocatorIcEEE8max_sizeB8ne180100IS2_vEEmRKS2_, symObjAddr: 0x10924, symBinAddr: 0x100011E74, symSize: 0x24 }
  - { offset: 0x3D87D, size: 0x8, addend: 0x0, symName: __ZNKSt3__112basic_stringIcNS_11char_traitsIcEENS_9allocatorIcEEE7__allocB8ne180100Ev, symObjAddr: 0x10948, symBinAddr: 0x100011E98, symSize: 0x24 }
  - { offset: 0x3D8A3, size: 0x8, addend: 0x0, symName: __ZNSt3__114numeric_limitsImE3maxB8ne180100Ev, symObjAddr: 0x1096C, symBinAddr: 0x100011EBC, symSize: 0x14 }
  - { offset: 0x3D8B7, size: 0x8, addend: 0x0, symName: __ZNKSt3__19allocatorIcE8max_sizeB8ne180100Ev, symObjAddr: 0x10980, symBinAddr: 0x100011ED0, symSize: 0x14 }
  - { offset: 0x3D8DD, size: 0x8, addend: 0x0, symName: __ZNKSt3__117__compressed_pairINS_12basic_stringIcNS_11char_traitsIcEENS_9allocatorIcEEE5__repES5_E6secondB8ne180100Ev, symObjAddr: 0x10994, symBinAddr: 0x100011EE4, symSize: 0x24 }
  - { offset: 0x3D903, size: 0x8, addend: 0x0, symName: __ZNKSt3__122__compressed_pair_elemINS_9allocatorIcEELi1ELb1EE5__getB8ne180100Ev, symObjAddr: 0x109B8, symBinAddr: 0x100011F08, symSize: 0x14 }
  - { offset: 0x3D929, size: 0x8, addend: 0x0, symName: __ZNSt3__123__libcpp_numeric_limitsImLb1EE3maxB8ne180100Ev, symObjAddr: 0x109CC, symBinAddr: 0x100011F1C, symSize: 0x8 }
  - { offset: 0x3D93D, size: 0x8, addend: 0x0, symName: __ZNKSt3__18ios_base10exceptionsB8ne180100Ev, symObjAddr: 0x109D4, symBinAddr: 0x100011F24, symSize: 0x18 }
  - { offset: 0x3D965, size: 0x8, addend: 0x0, symName: __ZNSt3__112basic_stringIcNS_11char_traitsIcEENS_9allocatorIcEEE13__move_assignB8ne180100ERS5_NS_17integral_constantIbLb1EEE, symObjAddr: 0x109EC, symBinAddr: 0x100011F3C, symSize: 0x174 }
  - { offset: 0x3D9C5, size: 0x8, addend: 0x0, symName: __ZNSt3__116allocator_traitsINS_9allocatorIcEEE10deallocateB8ne180100ERS2_Pcm, symObjAddr: 0x10B60, symBinAddr: 0x1000120B0, symSize: 0x34 }
  - { offset: 0x3DA07, size: 0x8, addend: 0x0, symName: __ZNSt3__112basic_stringIcNS_11char_traitsIcEENS_9allocatorIcEEE7__allocB8ne180100Ev, symObjAddr: 0x10B94, symBinAddr: 0x1000120E4, symSize: 0x24 }
  - { offset: 0x3DA2D, size: 0x8, addend: 0x0, symName: __ZNKSt3__112basic_stringIcNS_11char_traitsIcEENS_9allocatorIcEEE14__get_long_capB8ne180100Ev, symObjAddr: 0x10BB8, symBinAddr: 0x100012108, symSize: 0x30 }
  - { offset: 0x3DA53, size: 0x8, addend: 0x0, symName: __ZNSt3__112basic_stringIcNS_11char_traitsIcEENS_9allocatorIcEEE19__move_assign_allocB8ne180100ERS5_, symObjAddr: 0x10BE8, symBinAddr: 0x100012138, symSize: 0x2C }
  - { offset: 0x3DA88, size: 0x8, addend: 0x0, symName: __ZNSt3__19allocatorIcE10deallocateB8ne180100EPcm, symObjAddr: 0x10C14, symBinAddr: 0x100012164, symSize: 0x40 }
  - { offset: 0x3DACA, size: 0x8, addend: 0x0, symName: __ZNSt3__117__compressed_pairINS_12basic_stringIcNS_11char_traitsIcEENS_9allocatorIcEEE5__repES5_E6secondB8ne180100Ev, symObjAddr: 0x10C54, symBinAddr: 0x1000121A4, symSize: 0x24 }
  - { offset: 0x3DAF0, size: 0x8, addend: 0x0, symName: __ZNSt3__122__compressed_pair_elemINS_9allocatorIcEELi1ELb1EE5__getB8ne180100Ev, symObjAddr: 0x10C78, symBinAddr: 0x1000121C8, symSize: 0x14 }
  - { offset: 0x3DB16, size: 0x8, addend: 0x0, symName: __ZNSt3__112basic_stringIcNS_11char_traitsIcEENS_9allocatorIcEEE19__move_assign_allocB8ne180100ERS5_NS_17integral_constantIbLb1EEE, symObjAddr: 0x10C8C, symBinAddr: 0x1000121DC, symSize: 0x38 }
  - { offset: 0x3DB56, size: 0x8, addend: 0x0, symName: __ZNSt3__16vectorIiNS_9allocatorIiEEED2B8ne180100Ev, symObjAddr: 0x10CC4, symBinAddr: 0x100012214, symSize: 0x44 }
  - { offset: 0x3DB80, size: 0x8, addend: 0x0, symName: __ZNSt3__16vectorIiNS_9allocatorIiEEE16__destroy_vectorC1B8ne180100ERS3_, symObjAddr: 0x10D08, symBinAddr: 0x100012258, symSize: 0x34 }
  - { offset: 0x3DBB9, size: 0x8, addend: 0x0, symName: __ZNSt3__16vectorIiNS_9allocatorIiEEE16__destroy_vectorclB8ne180100Ev, symObjAddr: 0x10D3C, symBinAddr: 0x10001228C, symSize: 0x88 }
  - { offset: 0x3DBDF, size: 0x8, addend: 0x0, symName: __ZNSt3__16vectorIiNS_9allocatorIiEEE16__destroy_vectorC2B8ne180100ERS3_, symObjAddr: 0x10DC4, symBinAddr: 0x100012314, symSize: 0x20 }
  - { offset: 0x3DC18, size: 0x8, addend: 0x0, symName: __ZNSt3__16vectorIiNS_9allocatorIiEEE7__clearB8ne180100Ev, symObjAddr: 0x10DE4, symBinAddr: 0x100012334, symSize: 0x28 }
  - { offset: 0x3DC3E, size: 0x8, addend: 0x0, symName: __ZNKSt3__16vectorIiNS_9allocatorIiEEE17__annotate_deleteB8ne180100Ev, symObjAddr: 0x10E0C, symBinAddr: 0x10001235C, symSize: 0x10 }
  - { offset: 0x3DC64, size: 0x8, addend: 0x0, symName: __ZNSt3__116allocator_traitsINS_9allocatorIiEEE10deallocateB8ne180100ERS2_Pim, symObjAddr: 0x10E1C, symBinAddr: 0x10001236C, symSize: 0x34 }
  - { offset: 0x3DCA6, size: 0x8, addend: 0x0, symName: __ZNSt3__16vectorIiNS_9allocatorIiEEE7__allocB8ne180100Ev, symObjAddr: 0x10E50, symBinAddr: 0x1000123A0, symSize: 0x28 }
  - { offset: 0x3DCCC, size: 0x8, addend: 0x0, symName: __ZNKSt3__16vectorIiNS_9allocatorIiEEE8capacityB8ne180100Ev, symObjAddr: 0x10E78, symBinAddr: 0x1000123C8, symSize: 0x40 }
  - { offset: 0x3DCF2, size: 0x8, addend: 0x0, symName: __ZNSt3__16vectorIiNS_9allocatorIiEEE22__base_destruct_at_endB8ne180100EPi, symObjAddr: 0x10EB8, symBinAddr: 0x100012408, symSize: 0x88 }
  - { offset: 0x3DD36, size: 0x8, addend: 0x0, symName: __ZNSt3__116allocator_traitsINS_9allocatorIiEEE7destroyB8ne180100IivEEvRS2_PT_, symObjAddr: 0x10F40, symBinAddr: 0x100012490, symSize: 0x2C }
  - { offset: 0x3DD73, size: 0x8, addend: 0x0, symName: __ZNSt3__19allocatorIiE7destroyB8ne180100EPi, symObjAddr: 0x10F80, symBinAddr: 0x1000124D0, symSize: 0x14 }
  - { offset: 0x3DDA7, size: 0x8, addend: 0x0, symName: __ZNSt3__19allocatorIiE10deallocateB8ne180100EPim, symObjAddr: 0x10F94, symBinAddr: 0x1000124E4, symSize: 0x40 }
  - { offset: 0x3DDE9, size: 0x8, addend: 0x0, symName: __ZNSt3__117__compressed_pairIPiNS_9allocatorIiEEE6secondB8ne180100Ev, symObjAddr: 0x10FD4, symBinAddr: 0x100012524, symSize: 0x24 }
  - { offset: 0x3DE0F, size: 0x8, addend: 0x0, symName: __ZNSt3__122__compressed_pair_elemINS_9allocatorIiEELi1ELb1EE5__getB8ne180100Ev, symObjAddr: 0x10FF8, symBinAddr: 0x100012548, symSize: 0x14 }
  - { offset: 0x3DE35, size: 0x8, addend: 0x0, symName: __ZNKSt3__16vectorIiNS_9allocatorIiEEE9__end_capB8ne180100Ev, symObjAddr: 0x1100C, symBinAddr: 0x10001255C, symSize: 0x28 }
  - { offset: 0x3DE5B, size: 0x8, addend: 0x0, symName: __ZNKSt3__117__compressed_pairIPiNS_9allocatorIiEEE5firstB8ne180100Ev, symObjAddr: 0x11034, symBinAddr: 0x100012584, symSize: 0x24 }
  - { offset: 0x3DE81, size: 0x8, addend: 0x0, symName: __ZNKSt3__122__compressed_pair_elemIPiLi0ELb0EE5__getB8ne180100Ev, symObjAddr: 0x11058, symBinAddr: 0x1000125A8, symSize: 0x14 }
  - { offset: 0x3DEA7, size: 0x8, addend: 0x0, symName: __ZNSt3__16vectorIiNS_9allocatorIiEEEC2ERKS3_, symObjAddr: 0x1106C, symBinAddr: 0x1000125BC, symSize: 0x94 }
  - { offset: 0x3DEED, size: 0x8, addend: 0x0, symName: __ZNSt3__116allocator_traitsINS_9allocatorIiEEE37select_on_container_copy_constructionB8ne180100IS2_vvEES2_RKS2_, symObjAddr: 0x11100, symBinAddr: 0x100012650, symSize: 0x10 }
  - { offset: 0x3DF1C, size: 0x8, addend: 0x0, symName: __ZNKSt3__16vectorIiNS_9allocatorIiEEE7__allocB8ne180100Ev, symObjAddr: 0x11110, symBinAddr: 0x100012660, symSize: 0x28 }
  - { offset: 0x3DF48, size: 0x8, addend: 0x0, symName: __ZNSt3__117__compressed_pairIPiNS_9allocatorIiEEEC1B8ne180100IDnS3_EEOT_OT0_, symObjAddr: 0x11138, symBinAddr: 0x100012688, symSize: 0x3C }
  - { offset: 0x3DFA0, size: 0x8, addend: 0x0, symName: __ZNSt3__16vectorIiNS_9allocatorIiEEE16__init_with_sizeB8ne180100IPiS5_EEvT_T0_m, symObjAddr: 0x11174, symBinAddr: 0x1000126C4, symSize: 0xB4 }
  - { offset: 0x3E014, size: 0x8, addend: 0x0, symName: __ZNKSt3__16vectorIiNS_9allocatorIiEEE4sizeB8ne180100Ev, symObjAddr: 0x11228, symBinAddr: 0x100012778, symSize: 0x28 }
  - { offset: 0x3E03A, size: 0x8, addend: 0x0, symName: __ZNKSt3__117__compressed_pairIPiNS_9allocatorIiEEE6secondB8ne180100Ev, symObjAddr: 0x11250, symBinAddr: 0x1000127A0, symSize: 0x24 }
  - { offset: 0x3E060, size: 0x8, addend: 0x0, symName: __ZNKSt3__122__compressed_pair_elemINS_9allocatorIiEELi1ELb1EE5__getB8ne180100Ev, symObjAddr: 0x11274, symBinAddr: 0x1000127C4, symSize: 0x14 }
  - { offset: 0x3E086, size: 0x8, addend: 0x0, symName: __ZNSt3__117__compressed_pairIPiNS_9allocatorIiEEEC2B8ne180100IDnS3_EEOT_OT0_, symObjAddr: 0x11288, symBinAddr: 0x1000127D8, symSize: 0x44 }
  - { offset: 0x3E0DE, size: 0x8, addend: 0x0, symName: __ZNSt3__122__compressed_pair_elemIPiLi0ELb0EEC2B8ne180100IDnvEEOT_, symObjAddr: 0x112CC, symBinAddr: 0x10001281C, symSize: 0x1C }
  - { offset: 0x3E120, size: 0x8, addend: 0x0, symName: __ZNSt3__122__compressed_pair_elemINS_9allocatorIiEELi1ELb1EEC2B8ne180100IS2_vEEOT_, symObjAddr: 0x112E8, symBinAddr: 0x100012838, symSize: 0x18 }
  - { offset: 0x3E162, size: 0x8, addend: 0x0, symName: __ZNSt3__16vectorIiNS_9allocatorIiEEE11__vallocateB8ne180100Em, symObjAddr: 0x11340, symBinAddr: 0x100012890, symSize: 0xA8 }
  - { offset: 0x3E1A6, size: 0x8, addend: 0x0, symName: __ZNSt3__16vectorIiNS_9allocatorIiEEE18__construct_at_endIPiS5_EEvT_T0_m, symObjAddr: 0x113E8, symBinAddr: 0x100012938, symSize: 0x8C }
  - { offset: 0x3E21A, size: 0x8, addend: 0x0, symName: __ZNSt3__128__exception_guard_exceptionsINS_6vectorIiNS_9allocatorIiEEE16__destroy_vectorEE10__completeB8ne180100Ev, symObjAddr: 0x11474, symBinAddr: 0x1000129C4, symSize: 0x1C }
  - { offset: 0x3E240, size: 0x8, addend: 0x0, symName: __ZNSt3__128__exception_guard_exceptionsINS_6vectorIiNS_9allocatorIiEEE16__destroy_vectorEED1B8ne180100Ev, symObjAddr: 0x11490, symBinAddr: 0x1000129E0, symSize: 0x2C }
  - { offset: 0x3E26A, size: 0x8, addend: 0x0, symName: __ZNSt3__128__exception_guard_exceptionsINS_6vectorIiNS_9allocatorIiEEE16__destroy_vectorEEC1B8ne180100ES5_, symObjAddr: 0x114BC, symBinAddr: 0x100012A0C, symSize: 0x34 }
  - { offset: 0x3E2A2, size: 0x8, addend: 0x0, symName: __ZNSt3__128__exception_guard_exceptionsINS_6vectorIiNS_9allocatorIiEEE16__destroy_vectorEEC2B8ne180100ES5_, symObjAddr: 0x114F0, symBinAddr: 0x100012A40, symSize: 0x24 }
  - { offset: 0x3E2DA, size: 0x8, addend: 0x0, symName: __ZNKSt3__16vectorIiNS_9allocatorIiEEE8max_sizeEv, symObjAddr: 0x11514, symBinAddr: 0x100012A64, symSize: 0x60 }
  - { offset: 0x3E302, size: 0x8, addend: 0x0, symName: __ZNKSt3__16vectorIiNS_9allocatorIiEEE20__throw_length_errorB8ne180100Ev, symObjAddr: 0x11574, symBinAddr: 0x100012AC4, symSize: 0x1C }
  - { offset: 0x3E328, size: 0x8, addend: 0x0, symName: __ZNSt3__16vectorIiNS_9allocatorIiEEE9__end_capB8ne180100Ev, symObjAddr: 0x115D0, symBinAddr: 0x100012B20, symSize: 0x28 }
  - { offset: 0x3E34E, size: 0x8, addend: 0x0, symName: __ZNKSt3__16vectorIiNS_9allocatorIiEEE14__annotate_newB8ne180100Em, symObjAddr: 0x115F8, symBinAddr: 0x100012B48, symSize: 0x14 }
  - { offset: 0x3E383, size: 0x8, addend: 0x0, symName: __ZNSt3__116allocator_traitsINS_9allocatorIiEEE8max_sizeB8ne180100IS2_vEEmRKS2_, symObjAddr: 0x1160C, symBinAddr: 0x100012B5C, symSize: 0x24 }
  - { offset: 0x3E3B1, size: 0x8, addend: 0x0, symName: __ZNKSt3__19allocatorIiE8max_sizeB8ne180100Ev, symObjAddr: 0x11630, symBinAddr: 0x100012B80, symSize: 0x14 }
  - { offset: 0x3E3D7, size: 0x8, addend: 0x0, symName: __ZNSt3__19allocatorIiE8allocateB8ne180100Em, symObjAddr: 0x11644, symBinAddr: 0x100012B94, symSize: 0x54 }
  - { offset: 0x3E40B, size: 0x8, addend: 0x0, symName: __ZNSt3__117__compressed_pairIPiNS_9allocatorIiEEE5firstB8ne180100Ev, symObjAddr: 0x11698, symBinAddr: 0x100012BE8, symSize: 0x24 }
  - { offset: 0x3E431, size: 0x8, addend: 0x0, symName: __ZNSt3__122__compressed_pair_elemIPiLi0ELb0EE5__getB8ne180100Ev, symObjAddr: 0x116BC, symBinAddr: 0x100012C0C, symSize: 0x14 }
  - { offset: 0x3E472, size: 0x8, addend: 0x0, symName: __ZNSt3__16vectorIiNS_9allocatorIiEEE21_ConstructTransactionC1B8ne180100ERS3_m, symObjAddr: 0x116D0, symBinAddr: 0x100012C20, symSize: 0x3C }
  - { offset: 0x3E4BA, size: 0x8, addend: 0x0, symName: __ZNSt3__16vectorIiNS_9allocatorIiEEE21_ConstructTransactionD1B8ne180100Ev, symObjAddr: 0x1178C, symBinAddr: 0x100012CDC, symSize: 0x2C }
  - { offset: 0x3E4E4, size: 0x8, addend: 0x0, symName: __ZNSt3__16vectorIiNS_9allocatorIiEEE21_ConstructTransactionC2B8ne180100ERS3_m, symObjAddr: 0x117B8, symBinAddr: 0x100012D08, symSize: 0x44 }
  - { offset: 0x3E54E, size: 0x8, addend: 0x0, symName: __ZNSt3__14pairIPiS1_EC1B8ne180100IS1_S1_TnNS_9enable_ifIXclsr10_CheckArgsE17__enable_implicitIT_T0_EEEiE4typeELi0EEEOS5_OS6_, symObjAddr: 0x1192C, symBinAddr: 0x100012E7C, symSize: 0x3C }
  - { offset: 0x3E5AC, size: 0x8, addend: 0x0, symName: __ZNSt3__14pairIPiS1_EC2B8ne180100IS1_S1_TnNS_9enable_ifIXclsr10_CheckArgsE17__enable_implicitIT_T0_EEEiE4typeELi0EEEOS5_OS6_, symObjAddr: 0x11968, symBinAddr: 0x100012EB8, symSize: 0x34 }
  - { offset: 0x3E614, size: 0x8, addend: 0x0, symName: __ZNKSt3__114__copy_trivialclB8ne180100IiiTnNS_9enable_ifIXsr38__can_lower_copy_assignment_to_memmoveIT_T0_EE5valueEiE4typeELi0EEENS_4pairIPS3_PS4_EES8_S8_S9_, symObjAddr: 0x11B18, symBinAddr: 0x100013068, symSize: 0x48 }
  - { offset: 0x3E67C, size: 0x8, addend: 0x0, symName: __ZNSt3__14pairIPiS1_EC1B8ne180100IRS1_S1_TnNS_9enable_ifIXclsr10_CheckArgsE17__enable_implicitIT_T0_EEEiE4typeELi0EEEOS6_OS7_, symObjAddr: 0x11CA4, symBinAddr: 0x1000131F4, symSize: 0x3C }
  - { offset: 0x3E6DA, size: 0x8, addend: 0x0, symName: __ZNSt3__14pairIPiS1_EC2B8ne180100IRS1_S1_TnNS_9enable_ifIXclsr10_CheckArgsE17__enable_implicitIT_T0_EEEiE4typeELi0EEEOS6_OS7_, symObjAddr: 0x11CE0, symBinAddr: 0x100013230, symSize: 0x34 }
  - { offset: 0x3E738, size: 0x8, addend: 0x0, symName: __ZNSt3__118__unwrap_iter_implIPiLb1EE8__unwrapB8ne180100ES1_, symObjAddr: 0x11D14, symBinAddr: 0x100013264, symSize: 0x24 }
  - { offset: 0x3E75B, size: 0x8, addend: 0x0, symName: __ZNSt3__118__unwrap_iter_implIPiLb1EE8__rewrapB8ne180100ES1_S1_, symObjAddr: 0x11D38, symBinAddr: 0x100013288, symSize: 0x50 }
  - { offset: 0x3E78C, size: 0x8, addend: 0x0, symName: __ZNSt3__16vectorIiNS_9allocatorIiEEE21_ConstructTransactionD2B8ne180100Ev, symObjAddr: 0x11D88, symBinAddr: 0x1000132D8, symSize: 0x20 }
  - { offset: 0x3E7B6, size: 0x8, addend: 0x0, symName: __ZNSt3__128__exception_guard_exceptionsINS_6vectorIiNS_9allocatorIiEEE16__destroy_vectorEED2B8ne180100Ev, symObjAddr: 0x11DA8, symBinAddr: 0x1000132F8, symSize: 0x48 }
  - { offset: 0x419AD, size: 0x8, addend: 0x0, symName: __ZL8opt_6_7B, symObjAddr: 0xDB63C, symBinAddr: 0x1000D4AC8, symSize: 0x0 }
  - { offset: 0x419D2, size: 0x8, addend: 0x0, symName: __ZL8opt_1_3B, symObjAddr: 0xDB660, symBinAddr: 0x1000D4AEC, symSize: 0x0 }
  - { offset: 0x419EB, size: 0x8, addend: 0x0, symName: __ZL8opt_125m, symObjAddr: 0xDB684, symBinAddr: 0x1000D4B10, symSize: 0x0 }
  - { offset: 0x41A04, size: 0x8, addend: 0x0, symName: __ZL8llama_7B, symObjAddr: 0xDB6A8, symBinAddr: 0x1000D4B34, symSize: 0x0 }
  - { offset: 0x41D58, size: 0x8, addend: 0x0, symName: __ZNSt3__1L19piecewise_constructE, symObjAddr: 0x1589F, symBinAddr: 0x1000C9961, symSize: 0x0 }
  - { offset: 0x480C5, size: 0x8, addend: 0x0, symName: '__ZNSt3__111__introsortINS_17_ClassicAlgPolicyERZ14sample_softmaxP20OPT_token_data_arrayE3$_0P14OPT_token_dataLb0EEEvT1_S8_T0_NS_15iterator_traitsIS8_E15difference_typeEb', symObjAddr: 0x573C, symBinAddr: 0x100018CC4, symSize: 0x478 }
  - { offset: 0x48235, size: 0x8, addend: 0x0, symName: '__ZNSt3__126__insertion_sort_unguardedB8ne180100INS_17_ClassicAlgPolicyERZ14sample_softmaxP20OPT_token_data_arrayE3$_0P14OPT_token_dataEEvT1_S8_T0_', symObjAddr: 0x5E40, symBinAddr: 0x1000193C8, symSize: 0x130 }
  - { offset: 0x48326, size: 0x8, addend: 0x0, symName: '__ZNSt3__111__sift_downB8ne180100INS_17_ClassicAlgPolicyERZ14sample_softmaxP20OPT_token_data_arrayE3$_0P14OPT_token_dataEEvT1_OT0_NS_15iterator_traitsIS8_E15difference_typeES8_', symObjAddr: 0x7000, symBinAddr: 0x10001A588, symSize: 0x220 }
  - { offset: 0x483D4, size: 0x8, addend: 0x0, symName: '__ZNSt3__117__floyd_sift_downB8ne180100INS_17_ClassicAlgPolicyERZ14sample_softmaxP20OPT_token_data_arrayE3$_0P14OPT_token_dataEET1_S8_OT0_NS_15iterator_traitsIS8_E15difference_typeE', symObjAddr: 0x73D0, symBinAddr: 0x10001A958, symSize: 0x108 }
  - { offset: 0x4846D, size: 0x8, addend: 0x0, symName: '__ZNSt3__131__partition_with_equals_on_leftB8ne180100INS_17_ClassicAlgPolicyEP14OPT_token_dataRZ14sample_softmaxP20OPT_token_data_arrayE3$_0EET0_S8_S8_T1_', symObjAddr: 0x6178, symBinAddr: 0x100019700, symSize: 0x214 }
  - { offset: 0x48529, size: 0x8, addend: 0x0, symName: '__ZNSt3__118__bitset_partitionB8ne180100INS_17_ClassicAlgPolicyEP14OPT_token_dataRZ14sample_softmaxP20OPT_token_data_arrayE3$_0EENS_4pairIT0_bEES9_S9_T1_', symObjAddr: 0x638C, symBinAddr: 0x100019914, symSize: 0x304 }
  - { offset: 0x48624, size: 0x8, addend: 0x0, symName: __ZNSt3__124__swap_bitmap_pos_withinB8ne180100INS_17_ClassicAlgPolicyEP14OPT_token_dataEEvRT0_S5_RyS6_, symObjAddr: 0x7AF4, symBinAddr: 0x10001B07C, symSize: 0x1C0 }
  - { offset: 0x486F2, size: 0x8, addend: 0x0, symName: '__ZNSt3__132__partition_with_equals_on_rightB8ne180100INS_17_ClassicAlgPolicyEP14OPT_token_dataRZ14sample_softmaxP20OPT_token_data_arrayE3$_0EENS_4pairIT0_bEES9_S9_T1_', symObjAddr: 0x6690, symBinAddr: 0x100019C18, symSize: 0x220 }
  - { offset: 0x487BD, size: 0x8, addend: 0x0, symName: '__ZNSt3__127__insertion_sort_incompleteB8ne180100INS_17_ClassicAlgPolicyERZ14sample_softmaxP20OPT_token_data_arrayE3$_0P14OPT_token_dataEEbT1_S8_T0_', symObjAddr: 0x68B0, symBinAddr: 0x100019E38, symSize: 0x330 }
  - { offset: 0x4A67D, size: 0x8, addend: 0x0, symName: __ZNSt3__17advanceB8ne180100INS_11__wrap_iterIPKdEEllvEEvRT_T0_, symObjAddr: 0xC610, symBinAddr: 0x10001FA20, symSize: 0x38 }
  - { offset: 0x4A70F, size: 0x8, addend: 0x0, symName: '__ZNSt3__111__introsortINS_17_ClassicAlgPolicyERZ12sample_top_kP20OPT_token_data_arrayimE3$_0P14OPT_token_dataLb0EEEvT1_S8_T0_NS_15iterator_traitsIS8_E15difference_typeEb', symObjAddr: 0xCCD0, symBinAddr: 0x1000200CC, symSize: 0x478 }
  - { offset: 0x4A83B, size: 0x8, addend: 0x0, symName: '__ZNSt3__126__insertion_sort_unguardedB8ne180100INS_17_ClassicAlgPolicyERZ12sample_top_kP20OPT_token_data_arrayimE3$_0P14OPT_token_dataEEvT1_S8_T0_', symObjAddr: 0xD3A0, symBinAddr: 0x10002079C, symSize: 0x130 }
  - { offset: 0x4A92C, size: 0x8, addend: 0x0, symName: '__ZNSt3__111__sift_downB8ne180100INS_17_ClassicAlgPolicyERZ12sample_top_kP20OPT_token_data_arrayimE3$_0P14OPT_token_dataEEvT1_OT0_NS_15iterator_traitsIS8_E15difference_typeES8_', symObjAddr: 0xE468, symBinAddr: 0x100021864, symSize: 0x220 }
  - { offset: 0x4A9DA, size: 0x8, addend: 0x0, symName: '__ZNSt3__117__floyd_sift_downB8ne180100INS_17_ClassicAlgPolicyERZ12sample_top_kP20OPT_token_data_arrayimE3$_0P14OPT_token_dataEET1_S8_OT0_NS_15iterator_traitsIS8_E15difference_typeE', symObjAddr: 0xE838, symBinAddr: 0x100021C34, symSize: 0x108 }
  - { offset: 0x4AA73, size: 0x8, addend: 0x0, symName: '__ZNSt3__131__partition_with_equals_on_leftB8ne180100INS_17_ClassicAlgPolicyEP14OPT_token_dataRZ12sample_top_kP20OPT_token_data_arrayimE3$_0EET0_S8_S8_T1_', symObjAddr: 0xD6A4, symBinAddr: 0x100020AA0, symSize: 0x214 }
  - { offset: 0x4AB2F, size: 0x8, addend: 0x0, symName: '__ZNSt3__118__bitset_partitionB8ne180100INS_17_ClassicAlgPolicyEP14OPT_token_dataRZ12sample_top_kP20OPT_token_data_arrayimE3$_0EENS_4pairIT0_bEES9_S9_T1_', symObjAddr: 0xD8B8, symBinAddr: 0x100020CB4, symSize: 0x304 }
  - { offset: 0x4AC2B, size: 0x8, addend: 0x0, symName: '__ZNSt3__132__partition_with_equals_on_rightB8ne180100INS_17_ClassicAlgPolicyEP14OPT_token_dataRZ12sample_top_kP20OPT_token_data_arrayimE3$_0EENS_4pairIT0_bEES9_S9_T1_', symObjAddr: 0xDBBC, symBinAddr: 0x100020FB8, symSize: 0x220 }
  - { offset: 0x4ACF6, size: 0x8, addend: 0x0, symName: '__ZNSt3__127__insertion_sort_incompleteB8ne180100INS_17_ClassicAlgPolicyERZ12sample_top_kP20OPT_token_data_arrayimE3$_0P14OPT_token_dataEEbT1_S8_T0_', symObjAddr: 0xDDDC, symBinAddr: 0x1000211D8, symSize: 0x330 }
  - { offset: 0x4C091, size: 0x8, addend: 0x0, symName: '__ZNSt3__111__introsortINS_17_ClassicAlgPolicyERZ14sample_typicalP20OPT_token_data_arrayfmE3$_0PmLb0EEEvT1_S7_T0_NS_15iterator_traitsIS7_E15difference_typeEb', symObjAddr: 0x10168, symBinAddr: 0x100023564, symSize: 0x448 }
  - { offset: 0x4C1BD, size: 0x8, addend: 0x0, symName: '__ZNSt3__126__insertion_sort_unguardedB8ne180100INS_17_ClassicAlgPolicyERZ14sample_typicalP20OPT_token_data_arrayfmE3$_0PmEEvT1_S7_T0_', symObjAddr: 0x10860, symBinAddr: 0x100023C5C, symSize: 0x124 }
  - { offset: 0x4C2AE, size: 0x8, addend: 0x0, symName: '__ZNSt3__111__sift_downB8ne180100INS_17_ClassicAlgPolicyERZ14sample_typicalP20OPT_token_data_arrayfmE3$_0PmEEvT1_OT0_NS_15iterator_traitsIS7_E15difference_typeES7_', symObjAddr: 0x11A50, symBinAddr: 0x100024E4C, symSize: 0x20C }
  - { offset: 0x4C35C, size: 0x8, addend: 0x0, symName: '__ZNSt3__117__floyd_sift_downB8ne180100INS_17_ClassicAlgPolicyERZ14sample_typicalP20OPT_token_data_arrayfmE3$_0PmEET1_S7_OT0_NS_15iterator_traitsIS7_E15difference_typeE', symObjAddr: 0x11DEC, symBinAddr: 0x1000251E8, symSize: 0xFC }
  - { offset: 0x4C3F5, size: 0x8, addend: 0x0, symName: '__ZNSt3__131__partition_with_equals_on_leftB8ne180100INS_17_ClassicAlgPolicyEPmRZ14sample_typicalP20OPT_token_data_arrayfmE3$_0EET0_S7_S7_T1_', symObjAddr: 0x10BB4, symBinAddr: 0x100023FB0, symSize: 0x210 }
  - { offset: 0x4C4B1, size: 0x8, addend: 0x0, symName: '__ZNSt3__118__bitset_partitionB8ne180100INS_17_ClassicAlgPolicyEPmRZ14sample_typicalP20OPT_token_data_arrayfmE3$_0EENS_4pairIT0_bEES8_S8_T1_', symObjAddr: 0x10DC4, symBinAddr: 0x1000241C0, symSize: 0x2F0 }
  - { offset: 0x4C5AA, size: 0x8, addend: 0x0, symName: __ZNSt3__124__swap_bitmap_pos_withinB8ne180100INS_17_ClassicAlgPolicyEPmEEvRT0_S4_RyS5_, symObjAddr: 0x124FC, symBinAddr: 0x1000258F8, symSize: 0x1B8 }
  - { offset: 0x4C678, size: 0x8, addend: 0x0, symName: '__ZNSt3__132__partition_with_equals_on_rightB8ne180100INS_17_ClassicAlgPolicyEPmRZ14sample_typicalP20OPT_token_data_arrayfmE3$_0EENS_4pairIT0_bEES8_S8_T1_', symObjAddr: 0x110B4, symBinAddr: 0x1000244B0, symSize: 0x21C }
  - { offset: 0x4C743, size: 0x8, addend: 0x0, symName: '__ZNSt3__127__insertion_sort_incompleteB8ne180100INS_17_ClassicAlgPolicyERZ14sample_typicalP20OPT_token_data_arrayfmE3$_0PmEEbT1_S7_T0_', symObjAddr: 0x112D0, symBinAddr: 0x1000246CC, symSize: 0x32C }
  - { offset: 0x4E197, size: 0x8, addend: 0x0, symName: __ZNSt3__14findB8ne180100IPKiiEET_S3_S3_RKT0_, symObjAddr: 0x204, symBinAddr: 0x100013D4C, symSize: 0x60 }
  - { offset: 0x4EB73, size: 0x8, addend: 0x0, symName: __ZNSt3__1eqB8ne180100ERKNS_19__hash_map_iteratorINS_15__hash_iteratorIPNS_11__hash_nodeINS_17__hash_value_typeIiiEEPvEEEEEESB_, symObjAddr: 0x54C, symBinAddr: 0x100014094, symSize: 0x2C }
  - { offset: 0x4EBB1, size: 0x8, addend: 0x0, symName: '__ZNSt3__111max_elementB8ne180100IP14OPT_token_dataZ19sample_token_greedyP20OPT_token_data_arrayE3$_0EET_S6_S6_T0_', symObjAddr: 0x660, symBinAddr: 0x1000141A8, symSize: 0x30 }
  - { offset: 0x4EC0C, size: 0x8, addend: 0x0, symName: '__ZNSt3__14sortB8ne180100IP14OPT_token_dataZ14sample_softmaxP20OPT_token_data_arrayE3$_0EEvT_S6_T0_', symObjAddr: 0x8A4, symBinAddr: 0x1000143EC, symSize: 0x30 }
  - { offset: 0x4EE4E, size: 0x8, addend: 0x0, symName: __ZNSt3__13maxB8ne180100IiEERKT_S3_S3_, symObjAddr: 0xE18, symBinAddr: 0x100014960, symSize: 0x2C }
  - { offset: 0x4EE91, size: 0x8, addend: 0x0, symName: __ZNSt3__13minB8ne180100IiEERKT_S3_S3_, symObjAddr: 0xE44, symBinAddr: 0x10001498C, symSize: 0x2C }
  - { offset: 0x4EED5, size: 0x8, addend: 0x0, symName: '__ZNSt3__14sortB8ne180100IP14OPT_token_dataZ12sample_top_kP20OPT_token_data_arrayimE3$_0EEvT_S6_T0_', symObjAddr: 0xE70, symBinAddr: 0x1000149B8, symSize: 0x30 }
  - { offset: 0x4EF30, size: 0x8, addend: 0x0, symName: '__ZNSt3__112partial_sortB8ne180100IP14OPT_token_dataZ12sample_top_kP20OPT_token_data_arrayimE3$_0EEvT_S6_S6_T0_', symObjAddr: 0xEA0, symBinAddr: 0x1000149E8, symSize: 0x38 }
  - { offset: 0x4EF94, size: 0x8, addend: 0x0, symName: __ZNSt3__18distanceB8ne180100IP14OPT_token_dataEENS_15iterator_traitsIT_E15difference_typeES4_S4_, symObjAddr: 0x1170, symBinAddr: 0x100014CB8, symSize: 0x2C }
  - { offset: 0x4EFD8, size: 0x8, addend: 0x0, symName: '__ZNSt3__17find_ifB8ne180100IP14OPT_token_dataZ21sample_token_mirostatiP20OPT_token_data_arrayffiPfE3$_0EET_S7_S7_T0_', symObjAddr: 0x119C, symBinAddr: 0x100014CE4, symSize: 0x6C }
  - { offset: 0x4F033, size: 0x8, addend: 0x0, symName: '__ZNSt3__17find_ifB8ne180100IP14OPT_token_dataZ24sample_token_mirostat_v2P20OPT_token_data_arrayffPfE3$_0EET_S7_S7_T0_', symObjAddr: 0x1354, symBinAddr: 0x100014E9C, symSize: 0x6C }
  - { offset: 0x4F08E, size: 0x8, addend: 0x0, symName: '__ZNSt3__17find_ifB8ne180100IP14OPT_token_dataZ24sample_token_mirostat_v2P20OPT_token_data_arrayffPfE3$_1EET_S7_S7_T0_', symObjAddr: 0x13C0, symBinAddr: 0x100014F08, symSize: 0x6C }
  - { offset: 0x4F0E8, size: 0x8, addend: 0x0, symName: __ZNSt3__110accumulateB8ne180100INS_11__wrap_iterIPfEEfEET0_T_S5_S4_, symObjAddr: 0x187C, symBinAddr: 0x1000153C4, symSize: 0x70 }
  - { offset: 0x4F142, size: 0x8, addend: 0x0, symName: __ZNSt3__1neB8ne180100IPfEEbRKNS_11__wrap_iterIT_EES6_, symObjAddr: 0x18EC, symBinAddr: 0x100015434, symSize: 0x30 }
  - { offset: 0x4F185, size: 0x8, addend: 0x0, symName: __ZNSt3__14iotaB8ne180100INS_11__wrap_iterIPmEEiEEvT_S4_T0_, symObjAddr: 0x1D5C, symBinAddr: 0x1000158A4, symSize: 0x70 }
  - { offset: 0x4F1DC, size: 0x8, addend: 0x0, symName: '__ZNSt3__14sortB8ne180100INS_11__wrap_iterIPmEEZ14sample_typicalP20OPT_token_data_arrayfmE3$_0EEvT_S7_T0_', symObjAddr: 0x1E2C, symBinAddr: 0x100015974, symSize: 0x48 }
  - { offset: 0x4F236, size: 0x8, addend: 0x0, symName: __ZNSt3__14copyB8ne180100INS_11__wrap_iterIP14OPT_token_dataEES3_EET0_T_S6_S5_, symObjAddr: 0x1F78, symBinAddr: 0x100015AC0, symSize: 0x50 }
  - { offset: 0x4F290, size: 0x8, addend: 0x0, symName: __ZNSt3__112__to_addressB8ne180100IdEEPT_S2_, symObjAddr: 0x2580, symBinAddr: 0x100016040, symSize: 0x14 }
  - { offset: 0x4F2C5, size: 0x8, addend: 0x0, symName: __ZNSt3__1eqB8ne180100IPfEEbRKNS_11__wrap_iterIT_EES6_, symObjAddr: 0x26FC, symBinAddr: 0x100016140, symSize: 0x44 }
  - { offset: 0x4F308, size: 0x8, addend: 0x0, symName: __ZNSt3__113__rewrap_iterB8ne180100IPKiS2_NS_18__unwrap_iter_implIS2_Lb1EEEEET_S5_T0_, symObjAddr: 0x289C, symBinAddr: 0x10001619C, symSize: 0x3C }
  - { offset: 0x4F35D, size: 0x8, addend: 0x0, symName: __ZNSt3__111__find_implB8ne180100IKiiNS_10__identityETnNS_9enable_ifIXaaaaaasr13__is_identityIT1_EE5valuesr41__libcpp_is_trivially_equality_comparableIT_T0_EE5valueeqstS5_Lm4EgeatS5_Lm4EEiE4typeELi0EEEPS5_S9_S9_RKS6_RS4_, symObjAddr: 0x28D8, symBinAddr: 0x1000161D8, symSize: 0x78 }
  - { offset: 0x4F3E4, size: 0x8, addend: 0x0, symName: __ZNSt3__113__unwrap_iterB8ne180100IPKiNS_18__unwrap_iter_implIS2_Lb1EEETnNS_9enable_ifIXsr21is_copy_constructibleIT_EE5valueEiE4typeELi0EEEDTclsrT0_8__unwrapclsr3stdE7declvalIS6_EEEES6_, symObjAddr: 0x2950, symBinAddr: 0x100016250, symSize: 0x24 }
  - { offset: 0x4F47B, size: 0x8, addend: 0x0, symName: __ZNSt3__112__to_addressB8ne180100IKiEEPT_S3_, symObjAddr: 0x29C4, symBinAddr: 0x1000162C4, symSize: 0x14 }
  - { offset: 0x4F4B0, size: 0x8, addend: 0x0, symName: __ZNSt3__119__constexpr_wmemchrB8ne180100IKiiEEPT_S3_T0_m, symObjAddr: 0x29D8, symBinAddr: 0x1000162D8, symSize: 0x40 }
  - { offset: 0x4F526, size: 0x8, addend: 0x0, symName: __ZNSt3__112__destroy_atB8ne180100INS_11__hash_nodeINS_17__hash_value_typeIiiEEPvEETnNS_9enable_ifIXntsr8is_arrayIT_EE5valueEiE4typeELi0EEEvPS7_, symObjAddr: 0x32E0, symBinAddr: 0x100016B98, symSize: 0x24 }
  - { offset: 0x4F590, size: 0x8, addend: 0x0, symName: __ZNSt3__112__destroy_atB8ne180100INS_4pairIKiiEETnNS_9enable_ifIXntsr8is_arrayIT_EE5valueEiE4typeELi0EEEvPS5_, symObjAddr: 0x3384, symBinAddr: 0x100016C3C, symSize: 0x10 }
  - { offset: 0x4F5C7, size: 0x8, addend: 0x0, symName: __ZNSt3__116forward_as_tupleB8ne180100IJRKiEEENS_5tupleIJDpOT_EEES6_, symObjAddr: 0x3B78, symBinAddr: 0x10001741C, symSize: 0x2C }
  - { offset: 0x4F68D, size: 0x8, addend: 0x0, symName: __ZNSt3__114__construct_atB8ne180100INS_11__hash_nodeINS_17__hash_value_typeIiiEEPvEEJDnRmEPS5_EEPT_S9_DpOT0_, symObjAddr: 0x43B8, symBinAddr: 0x100017ADC, symSize: 0x48 }
  - { offset: 0x4F710, size: 0x8, addend: 0x0, symName: __ZNSt3__13getB8ne180100ILm0EJRKiEEERNS_13tuple_elementIXT_ENS_5tupleIJDpT0_EEEE4typeERS7_, symObjAddr: 0x48C8, symBinAddr: 0x100017F6C, symSize: 0x24 }
  - { offset: 0x4F842, size: 0x8, addend: 0x0, symName: __ZNSt3__1eqB8ne180100ERKNS_15__hash_iteratorIPNS_11__hash_nodeINS_17__hash_value_typeIiiEEPvEEEES9_, symObjAddr: 0x54C0, symBinAddr: 0x100018A48, symSize: 0x2C }
  - { offset: 0x4F8B3, size: 0x8, addend: 0x0, symName: '__ZNSt3__113__max_elementB8ne180100IRZ19sample_token_greedyP20OPT_token_data_arrayE3$_0P14OPT_token_dataEET0_S7_S7_T_', symObjAddr: 0x5500, symBinAddr: 0x100018A88, symSize: 0x94 }
  - { offset: 0x4F92A, size: 0x8, addend: 0x0, symName: '__ZNSt3__111__sort_implB8ne180100INS_17_ClassicAlgPolicyEP14OPT_token_dataZ14sample_softmaxP20OPT_token_data_arrayE3$_0EEvT0_S7_RT1_', symObjAddr: 0x55C4, symBinAddr: 0x100018B4C, symSize: 0x78 }
  - { offset: 0x4F98D, size: 0x8, addend: 0x0, symName: __ZNSt3__123__debug_randomize_rangeB8ne180100INS_17_ClassicAlgPolicyEP14OPT_token_dataS3_EEvT0_T1_, symObjAddr: 0x563C, symBinAddr: 0x100018BC4, symSize: 0x14 }
  - { offset: 0x4F9DF, size: 0x8, addend: 0x0, symName: '__ZNSt3__115__sort_dispatchB8ne180100INS_17_ClassicAlgPolicyEP14OPT_token_dataZ14sample_softmaxP20OPT_token_data_arrayE3$_0EEvT0_S7_RT1_', symObjAddr: 0x5650, symBinAddr: 0x100018BD8, symSize: 0x64 }
  - { offset: 0x4FA5D, size: 0x8, addend: 0x0, symName: __ZNSt3__113__unwrap_iterB8ne180100IP14OPT_token_dataNS_18__unwrap_iter_implIS2_Lb1EEETnNS_9enable_ifIXsr21is_copy_constructibleIT_EE5valueEiE4typeELi0EEEDTclsrT0_8__unwrapclsr3stdE7declvalIS6_EEEES6_, symObjAddr: 0x56B4, symBinAddr: 0x100018C3C, symSize: 0x24 }
  - { offset: 0x4FAA2, size: 0x8, addend: 0x0, symName: '__ZNSt3__135__check_strict_weak_ordering_sortedB8ne180100IP14OPT_token_dataZ14sample_softmaxP20OPT_token_data_arrayE3$_0EEvT_S6_RT0_', symObjAddr: 0x56D8, symBinAddr: 0x100018C60, symSize: 0x18 }
  - { offset: 0x4FAF8, size: 0x8, addend: 0x0, symName: __ZNSt3__17__log2iB8ne180100IlEET_S1_, symObjAddr: 0x56F0, symBinAddr: 0x100018C78, symSize: 0x4C }
  - { offset: 0x4FE13, size: 0x8, addend: 0x0, symName: '__ZNSt3__124__sort3_maybe_branchlessB8ne180100INS_17_ClassicAlgPolicyERZ14sample_softmaxP20OPT_token_data_arrayE3$_0P14OPT_token_dataTnNS_9enable_ifIXntsr21__use_branchless_sortIT0_T1_EE5valueEiE4typeELi0EEEvSA_SA_SA_S9_', symObjAddr: 0x5C18, symBinAddr: 0x1000191A0, symSize: 0x3C }
  - { offset: 0x4FE87, size: 0x8, addend: 0x0, symName: '__ZNSt3__124__sort4_maybe_branchlessB8ne180100INS_17_ClassicAlgPolicyERZ14sample_softmaxP20OPT_token_data_arrayE3$_0P14OPT_token_dataTnNS_9enable_ifIXntsr21__use_branchless_sortIT0_T1_EE5valueEiE4typeELi0EEEvSA_SA_SA_SA_S9_', symObjAddr: 0x5C54, symBinAddr: 0x1000191DC, symSize: 0x44 }
  - { offset: 0x4FF09, size: 0x8, addend: 0x0, symName: '__ZNSt3__124__sort5_maybe_branchlessB8ne180100INS_17_ClassicAlgPolicyERZ14sample_softmaxP20OPT_token_data_arrayE3$_0P14OPT_token_dataTnNS_9enable_ifIXntsr21__use_branchless_sortIT0_T1_EE5valueEiE4typeELi0EEEvSA_SA_SA_SA_SA_S9_', symObjAddr: 0x5C98, symBinAddr: 0x100019220, symSize: 0x4C }
  - { offset: 0x4FFA0, size: 0x8, addend: 0x0, symName: '__ZNSt3__116__insertion_sortB8ne180100INS_17_ClassicAlgPolicyERZ14sample_softmaxP20OPT_token_data_arrayE3$_0P14OPT_token_dataEEvT1_S8_T0_', symObjAddr: 0x5CE4, symBinAddr: 0x10001926C, symSize: 0x15C }
  - { offset: 0x50068, size: 0x8, addend: 0x0, symName: '__ZNSt3__114__partial_sortB8ne180100INS_17_ClassicAlgPolicyERZ14sample_softmaxP20OPT_token_data_arrayE3$_0P14OPT_token_dataS7_EET1_S8_S8_T2_RT0_', symObjAddr: 0x5F70, symBinAddr: 0x1000194F8, symSize: 0x90 }
  - { offset: 0x500F1, size: 0x8, addend: 0x0, symName: '__ZNSt3__17__sort3B8ne180100INS_17_ClassicAlgPolicyERZ14sample_softmaxP20OPT_token_data_arrayE3$_0P14OPT_token_dataEEjT1_S8_S8_T0_', symObjAddr: 0x6000, symBinAddr: 0x100019588, symSize: 0x144 }
  - { offset: 0x50170, size: 0x8, addend: 0x0, symName: __ZNSt3__19iter_swapB8ne180100IP14OPT_token_dataS2_EEvT_T0_, symObjAddr: 0x6BE0, symBinAddr: 0x10001A168, symSize: 0x2C }
  - { offset: 0x501B8, size: 0x8, addend: 0x0, symName: __ZNSt3__14swapB8ne180100I14OPT_token_dataEENS_9enable_ifIXaasr21is_move_constructibleIT_EE5valuesr18is_move_assignableIS3_EE5valueEvE4typeERS3_S6_, symObjAddr: 0x6C0C, symBinAddr: 0x10001A194, symSize: 0x54 }
  - { offset: 0x5020A, size: 0x8, addend: 0x0, symName: '__ZNSt3__17__sort4B8ne180100INS_17_ClassicAlgPolicyERZ14sample_softmaxP20OPT_token_data_arrayE3$_0P14OPT_token_dataEEvT1_S8_S8_S8_T0_', symObjAddr: 0x6C60, symBinAddr: 0x10001A1E8, symSize: 0xB8 }
  - { offset: 0x50286, size: 0x8, addend: 0x0, symName: '__ZNSt3__17__sort5B8ne180100INS_17_ClassicAlgPolicyERZ14sample_softmaxP20OPT_token_data_arrayE3$_0P14OPT_token_dataEEvT1_S8_S8_S8_S8_T0_', symObjAddr: 0x6D18, symBinAddr: 0x10001A2A0, symSize: 0xE8 }
  - { offset: 0x5031B, size: 0x8, addend: 0x0, symName: '__ZNSt3__119__partial_sort_implB8ne180100INS_17_ClassicAlgPolicyERZ14sample_softmaxP20OPT_token_data_arrayE3$_0P14OPT_token_dataS7_EET1_S8_S8_T2_OT0_', symObjAddr: 0x6E44, symBinAddr: 0x10001A3CC, symSize: 0x108 }
  - { offset: 0x503B2, size: 0x8, addend: 0x0, symName: '__ZNSt3__111__make_heapB8ne180100INS_17_ClassicAlgPolicyERZ14sample_softmaxP20OPT_token_data_arrayE3$_0P14OPT_token_dataEEvT1_S8_OT0_', symObjAddr: 0x6F4C, symBinAddr: 0x10001A4D4, symSize: 0xB4 }
  - { offset: 0x50455, size: 0x8, addend: 0x0, symName: '__ZNSt3__111__sort_heapB8ne180100INS_17_ClassicAlgPolicyERZ14sample_softmaxP20OPT_token_data_arrayE3$_0P14OPT_token_dataEEvT1_S8_OT0_', symObjAddr: 0x7220, symBinAddr: 0x10001A7A8, symSize: 0xA4 }
  - { offset: 0x504F8, size: 0x8, addend: 0x0, symName: '__ZNSt3__110__pop_heapB8ne180100INS_17_ClassicAlgPolicyEZ14sample_softmaxP20OPT_token_data_arrayE3$_0P14OPT_token_dataEEvT1_S7_RT0_NS_15iterator_traitsIS7_E15difference_typeE', symObjAddr: 0x72C4, symBinAddr: 0x10001A84C, symSize: 0x10C }
  - { offset: 0x505A9, size: 0x8, addend: 0x0, symName: '__ZNSt3__19__sift_upB8ne180100INS_17_ClassicAlgPolicyERZ14sample_softmaxP20OPT_token_data_arrayE3$_0P14OPT_token_dataEEvT1_S8_OT0_NS_15iterator_traitsIS8_E15difference_typeE', symObjAddr: 0x74D8, symBinAddr: 0x10001AA60, symSize: 0x138 }
  - { offset: 0x5065A, size: 0x8, addend: 0x0, symName: '__ZNSt3__122__populate_left_bitsetB8ne180100IRZ14sample_softmaxP20OPT_token_data_arrayE3$_0P14OPT_token_dataS5_EEvT0_T_RT1_Ry', symObjAddr: 0x7610, symBinAddr: 0x10001AB98, symSize: 0xA4 }
  - { offset: 0x50716, size: 0x8, addend: 0x0, symName: '__ZNSt3__123__populate_right_bitsetB8ne180100IRZ14sample_softmaxP20OPT_token_data_arrayE3$_0P14OPT_token_dataS5_EEvT0_T_RT1_Ry', symObjAddr: 0x76B4, symBinAddr: 0x10001AC3C, symSize: 0x98 }
  - { offset: 0x507D1, size: 0x8, addend: 0x0, symName: __ZNSt3__117__swap_bitmap_posB8ne180100INS_17_ClassicAlgPolicyEP14OPT_token_dataEEvT0_S4_RyS5_, symObjAddr: 0x774C, symBinAddr: 0x10001ACD4, symSize: 0xFC }
  - { offset: 0x50873, size: 0x8, addend: 0x0, symName: '__ZNSt3__133__bitset_partition_partial_blocksB8ne180100INS_17_ClassicAlgPolicyERZ14sample_softmaxP20OPT_token_data_arrayE3$_0P14OPT_token_dataS6_EEvRT1_S9_T0_RT2_RySD_', symObjAddr: 0x7848, symBinAddr: 0x10001ADD0, symSize: 0x2AC }
  - { offset: 0x509F4, size: 0x8, addend: 0x0, symName: __ZNSt3__19make_pairB8ne180100IRP14OPT_token_dataRbEENS_4pairINS_18__unwrap_ref_decayIT_E4typeENS6_IT0_E4typeEEEOS7_OSA_, symObjAddr: 0x7CB4, symBinAddr: 0x10001B23C, symSize: 0x38 }
  - { offset: 0x50A43, size: 0x8, addend: 0x0, symName: __ZNSt3__112__libcpp_ctzB8ne180100Ey, symObjAddr: 0x7CEC, symBinAddr: 0x10001B274, symSize: 0x20 }
  - { offset: 0x50A6F, size: 0x8, addend: 0x0, symName: __ZNSt3__113__libcpp_blsrB8ne180100Ey, symObjAddr: 0x7D0C, symBinAddr: 0x10001B294, symSize: 0x2C }
  - { offset: 0x50A9B, size: 0x8, addend: 0x0, symName: __ZNSt3__112__libcpp_clzB8ne180100Ey, symObjAddr: 0x7D6C, symBinAddr: 0x10001B2F4, symSize: 0x1C }
  - { offset: 0x50BEE, size: 0x8, addend: 0x0, symName: __ZNSt3__112__to_addressB8ne180100I14OPT_token_dataEEPT_S3_, symObjAddr: 0x7E20, symBinAddr: 0x10001B3A8, symSize: 0x14 }
  - { offset: 0x50C23, size: 0x8, addend: 0x0, symName: __ZNSt3__112__to_addressB8ne180100IfEEPT_S2_, symObjAddr: 0x822C, symBinAddr: 0x10001B7B4, symSize: 0x14 }
  - { offset: 0x50C58, size: 0x8, addend: 0x0, symName: __ZNSt3__119__allocate_at_leastB8ne180100INS_9allocatorIfEEEENS_19__allocation_resultINS_16allocator_traitsIT_E7pointerEEERS5_m, symObjAddr: 0x8840, symBinAddr: 0x10001BC50, symSize: 0x40 }
  - { offset: 0x50C9B, size: 0x8, addend: 0x0, symName: __ZNSt3__142__uninitialized_allocator_move_if_noexceptB8ne180100INS_9allocatorIfEENS_16reverse_iteratorIPfEES5_fvEET1_RT_T0_S9_S6_, symObjAddr: 0x8A04, symBinAddr: 0x10001BE14, symSize: 0x78 }
  - { offset: 0x50D18, size: 0x8, addend: 0x0, symName: __ZNSt3__14swapB8ne180100IPfEENS_9enable_ifIXaasr21is_move_constructibleIT_EE5valuesr18is_move_assignableIS3_EE5valueEvE4typeERS3_S6_, symObjAddr: 0x8AC8, symBinAddr: 0x10001BED8, symSize: 0x3C }
  - { offset: 0x50D69, size: 0x8, addend: 0x0, symName: __ZNSt3__14moveB8ne180100INS_16reverse_iteratorIPfEES3_EET0_T_S5_S4_, symObjAddr: 0x8B40, symBinAddr: 0x10001BF50, symSize: 0x78 }
  - { offset: 0x50DC3, size: 0x8, addend: 0x0, symName: __ZNSt3__16__moveB8ne180100INS_17_ClassicAlgPolicyENS_16reverse_iteratorIPfEES4_S4_EENS_4pairIT0_T2_EES6_T1_S7_, symObjAddr: 0x8BB8, symBinAddr: 0x10001BFC8, symSize: 0x64 }
  - { offset: 0x50E2F, size: 0x8, addend: 0x0, symName: __ZNSt3__123__dispatch_copy_or_moveB8ne180100INS_17_ClassicAlgPolicyENS_11__move_loopIS1_EENS_14__move_trivialENS_16reverse_iteratorIPfEES7_S7_EENS_4pairIT2_T4_EES9_T3_SA_, symObjAddr: 0x8C1C, symBinAddr: 0x10001C02C, symSize: 0x64 }
  - { offset: 0x50EAD, size: 0x8, addend: 0x0, symName: __ZNSt3__121__unwrap_and_dispatchB8ne180100INS_10__overloadINS_11__move_loopINS_17_ClassicAlgPolicyEEENS_14__move_trivialEEENS_16reverse_iteratorIPfEES9_S9_TnNS_9enable_ifIXsr12__can_rewrapIT0_T1_T2_EE5valueEiE4typeELi0EEENS_4pairISB_SD_EESB_SC_SD_, symObjAddr: 0x8C80, symBinAddr: 0x10001C090, symSize: 0x12C }
  - { offset: 0x50F3D, size: 0x8, addend: 0x0, symName: __ZNSt3__114__unwrap_rangeB8ne180100INS_16reverse_iteratorIPfEES3_EENS_4pairIT0_S5_EET_S7_, symObjAddr: 0x8DAC, symBinAddr: 0x10001C1BC, symSize: 0x84 }
  - { offset: 0x5112D, size: 0x8, addend: 0x0, symName: __ZNSt3__113__unwrap_iterB8ne180100INS_16reverse_iteratorIPfEENS_18__unwrap_iter_implIS3_Lb0EEETnNS_9enable_ifIXsr21is_copy_constructibleIT_EE5valueEiE4typeELi0EEEDTclsrT0_8__unwrapclsr3stdE7declvalIS7_EEEES7_, symObjAddr: 0x8ED0, symBinAddr: 0x10001C2E0, symSize: 0x44 }
  - { offset: 0x51171, size: 0x8, addend: 0x0, symName: __ZNSt3__19make_pairB8ne180100INS_16reverse_iteratorIPfEES3_EENS_4pairINS_18__unwrap_ref_decayIT_E4typeENS5_IT0_E4typeEEEOS6_OS9_, symObjAddr: 0x8F14, symBinAddr: 0x10001C324, symSize: 0x38 }
  - { offset: 0x511C0, size: 0x8, addend: 0x0, symName: __ZNSt3__114__rewrap_rangeB8ne180100INS_16reverse_iteratorIPfEES3_EET_S4_T0_, symObjAddr: 0x8F4C, symBinAddr: 0x10001C35C, symSize: 0x5C }
  - { offset: 0x5120C, size: 0x8, addend: 0x0, symName: __ZNSt3__113__rewrap_iterB8ne180100INS_16reverse_iteratorIPfEES3_NS_18__unwrap_iter_implIS3_Lb0EEEEET_S6_T0_, symObjAddr: 0x8FA8, symBinAddr: 0x10001C3B8, symSize: 0x74 }
  - { offset: 0x51261, size: 0x8, addend: 0x0, symName: __ZNSt3__1neB8ne180100IPfS1_EEbRKNS_16reverse_iteratorIT_EERKNS2_IT0_EE, symObjAddr: 0x901C, symBinAddr: 0x10001C42C, symSize: 0x44 }
  - { offset: 0x51300, size: 0x8, addend: 0x0, symName: __ZNSt3__18distanceB8ne180100INS_11__wrap_iterIPfEEEENS_15iterator_traitsIT_E15difference_typeES5_S5_, symObjAddr: 0x9B4C, symBinAddr: 0x10001CF5C, symSize: 0x3C }
  - { offset: 0x51343, size: 0x8, addend: 0x0, symName: __ZNSt3__110__distanceB8ne180100INS_11__wrap_iterIPfEEEENS_15iterator_traitsIT_E15difference_typeES5_S5_NS_26random_access_iterator_tagE, symObjAddr: 0x9D14, symBinAddr: 0x10001D124, symSize: 0x30 }
  - { offset: 0x51390, size: 0x8, addend: 0x0, symName: __ZNSt3__1miB8ne180100IPfS1_EEDTmicldtfp_4baseEcldtfp0_4baseEERKNS_11__wrap_iterIT_EERKNS3_IT0_EE, symObjAddr: 0x9D44, symBinAddr: 0x10001D154, symSize: 0x48 }
  - { offset: 0x513DC, size: 0x8, addend: 0x0, symName: __ZNSt3__122__make_exception_guardB8ne180100INS_6vectorIdNS_9allocatorIdEEE16__destroy_vectorEEENS_28__exception_guard_exceptionsIT_EES7_, symObjAddr: 0x9D8C, symBinAddr: 0x10001D19C, symSize: 0x40 }
  - { offset: 0x51411, size: 0x8, addend: 0x0, symName: __ZNSt3__119__allocate_at_leastB8ne180100INS_9allocatorIdEEEENS_19__allocation_resultINS_16allocator_traitsIT_E7pointerEEERS5_m, symObjAddr: 0xA02C, symBinAddr: 0x10001D43C, symSize: 0x40 }
  - { offset: 0x51454, size: 0x8, addend: 0x0, symName: __ZNSt3__130__uninitialized_allocator_copyB8ne180100INS_9allocatorIdEENS_11__wrap_iterIPfEES5_PdEET2_RT_T0_T1_S7_, symObjAddr: 0xA208, symBinAddr: 0x10001D618, symSize: 0x90 }
  - { offset: 0x514F1, size: 0x8, addend: 0x0, symName: __ZNSt3__114__unwrap_rangeB8ne180100INS_11__wrap_iterIPfEES2_EENS_4pairIT0_S5_EET_S7_, symObjAddr: 0xA308, symBinAddr: 0x10001D718, symSize: 0x70 }
  - { offset: 0x5153D, size: 0x8, addend: 0x0, symName: __ZNSt3__135__uninitialized_allocator_copy_implB8ne180100INS_9allocatorIdEEPfS3_PdEET2_RT_T0_T1_S5_, symObjAddr: 0xA378, symBinAddr: 0x10001D788, symSize: 0xF0 }
  - { offset: 0x515DB, size: 0x8, addend: 0x0, symName: __ZNSt3__113__unwrap_iterB8ne180100IPdNS_18__unwrap_iter_implIS1_Lb1EEETnNS_9enable_ifIXsr21is_copy_constructibleIT_EE5valueEiE4typeELi0EEEDTclsrT0_8__unwrapclsr3stdE7declvalIS5_EEEES5_, symObjAddr: 0xA468, symBinAddr: 0x10001D878, symSize: 0x24 }
  - { offset: 0x5161F, size: 0x8, addend: 0x0, symName: __ZNSt3__113__rewrap_iterB8ne180100IPdS1_NS_18__unwrap_iter_implIS1_Lb1EEEEET_S4_T0_, symObjAddr: 0xA48C, symBinAddr: 0x10001D89C, symSize: 0x3C }
  - { offset: 0x51674, size: 0x8, addend: 0x0, symName: __ZNSt3__19make_pairB8ne180100IPfS1_EENS_4pairINS_18__unwrap_ref_decayIT_E4typeENS3_IT0_E4typeEEEOS4_OS7_, symObjAddr: 0xA4C8, symBinAddr: 0x10001D8D8, symSize: 0x38 }
  - { offset: 0x516C3, size: 0x8, addend: 0x0, symName: __ZNSt3__113__unwrap_iterB8ne180100INS_11__wrap_iterIPfEENS_18__unwrap_iter_implIS3_Lb1EEETnNS_9enable_ifIXsr21is_copy_constructibleIT_EE5valueEiE4typeELi0EEEDTclsrT0_8__unwrapclsr3stdE7declvalIS7_EEEES7_, symObjAddr: 0xA500, symBinAddr: 0x10001D910, symSize: 0x2C }
  - { offset: 0x5182E, size: 0x8, addend: 0x0, symName: __ZNSt3__112__to_addressB8ne180100INS_11__wrap_iterIPfEEvEEu7__decayIDTclsr19__to_address_helperIT_EE6__callclsr3stdE7declvalIRKS4_EEEEES6_, symObjAddr: 0xA5C4, symBinAddr: 0x10001D9D4, symSize: 0x24 }
  - { offset: 0x51909, size: 0x8, addend: 0x0, symName: __ZNSt3__122__make_exception_guardB8ne180100INS_29_AllocatorDestroyRangeReverseINS_9allocatorIdEEPdEEEENS_28__exception_guard_exceptionsIT_EES7_, symObjAddr: 0xA644, symBinAddr: 0x10001DA54, symSize: 0x4C }
  - { offset: 0x5193F, size: 0x8, addend: 0x0, symName: __ZNSt3__119__allocator_destroyB8ne180100INS_9allocatorIdEENS_16reverse_iteratorIPdEES5_EEvRT_T0_T1_, symObjAddr: 0xA8D0, symBinAddr: 0x10001DCE0, symSize: 0x70 }
  - { offset: 0x519A2, size: 0x8, addend: 0x0, symName: __ZNSt3__1neB8ne180100IPdS1_EEbRKNS_16reverse_iteratorIT_EERKNS2_IT0_EE, symObjAddr: 0xA974, symBinAddr: 0x10001DD84, symSize: 0x44 }
  - { offset: 0x519EE, size: 0x8, addend: 0x0, symName: __ZNSt3__112__to_addressB8ne180100INS_16reverse_iteratorIPdEEvEEu7__decayIDTclsr19__to_address_helperIT_EE6__callclsr3stdE7declvalIRKS4_EEEEES6_, symObjAddr: 0xA9B8, symBinAddr: 0x10001DDC8, symSize: 0x24 }
  - { offset: 0x51AA0, size: 0x8, addend: 0x0, symName: __ZNSt3__110accumulateB8ne180100INS_11__wrap_iterIPdEEdEET0_T_S5_S4_, symObjAddr: 0xABE8, symBinAddr: 0x10001DFF8, symSize: 0x70 }
  - { offset: 0x51AFA, size: 0x8, addend: 0x0, symName: __ZNSt3__1ltB8ne180100IPdEEbRKNS_11__wrap_iterIT_EES6_, symObjAddr: 0xACB8, symBinAddr: 0x10001E0C8, symSize: 0x44 }
  - { offset: 0x51B3D, size: 0x8, addend: 0x0, symName: __ZNSt3__111partial_sumB8ne180100INS_11__wrap_iterIPdEES3_EET0_T_S5_S4_, symObjAddr: 0xAD68, symBinAddr: 0x10001E178, symSize: 0xFC }
  - { offset: 0x51BB3, size: 0x8, addend: 0x0, symName: __ZNSt3__14swapB8ne180100IdNS_9allocatorIdEEEEvRNS_6vectorIT_T0_EES7_, symObjAddr: 0xAEA0, symBinAddr: 0x10001E2B0, symSize: 0x2C }
  - { offset: 0x51BFE, size: 0x8, addend: 0x0, symName: __ZNSt3__1neB8ne180100IPdEEbRKNS_11__wrap_iterIT_EES6_, symObjAddr: 0xAFFC, symBinAddr: 0x10001E40C, symSize: 0x30 }
  - { offset: 0x51C41, size: 0x8, addend: 0x0, symName: __ZNSt3__1eqB8ne180100IPdEEbRKNS_11__wrap_iterIT_EES6_, symObjAddr: 0xB02C, symBinAddr: 0x10001E43C, symSize: 0x44 }
  - { offset: 0x51C84, size: 0x8, addend: 0x0, symName: __ZNSt3__14swapB8ne180100IPdEENS_9enable_ifIXaasr21is_move_constructibleIT_EE5valuesr18is_move_assignableIS3_EE5valueEvE4typeERS3_S6_, symObjAddr: 0xB3D4, symBinAddr: 0x10001E7E4, symSize: 0x3C }
  - { offset: 0x51CD5, size: 0x8, addend: 0x0, symName: __ZNSt3__116__swap_allocatorB8ne180100INS_9allocatorIdEEEEvRT_S4_NS_17integral_constantIbLb0EEE, symObjAddr: 0xB410, symBinAddr: 0x10001E820, symSize: 0x14 }
  - { offset: 0x51D16, size: 0x8, addend: 0x0, symName: __ZNSt3__142__uninitialized_allocator_move_if_noexceptB8ne180100INS_9allocatorIdEENS_16reverse_iteratorIPdEES5_dvEET1_RT_T0_S9_S6_, symObjAddr: 0xB7DC, symBinAddr: 0x10001EBEC, symSize: 0x78 }
  - { offset: 0x51D93, size: 0x8, addend: 0x0, symName: __ZNSt3__14moveB8ne180100INS_16reverse_iteratorIPdEES3_EET0_T_S5_S4_, symObjAddr: 0xB854, symBinAddr: 0x10001EC64, symSize: 0x78 }
  - { offset: 0x51DED, size: 0x8, addend: 0x0, symName: __ZNSt3__16__moveB8ne180100INS_17_ClassicAlgPolicyENS_16reverse_iteratorIPdEES4_S4_EENS_4pairIT0_T2_EES6_T1_S7_, symObjAddr: 0xB8CC, symBinAddr: 0x10001ECDC, symSize: 0x64 }
  - { offset: 0x51E59, size: 0x8, addend: 0x0, symName: __ZNSt3__123__dispatch_copy_or_moveB8ne180100INS_17_ClassicAlgPolicyENS_11__move_loopIS1_EENS_14__move_trivialENS_16reverse_iteratorIPdEES7_S7_EENS_4pairIT2_T4_EES9_T3_SA_, symObjAddr: 0xB930, symBinAddr: 0x10001ED40, symSize: 0x64 }
  - { offset: 0x51ED7, size: 0x8, addend: 0x0, symName: __ZNSt3__121__unwrap_and_dispatchB8ne180100INS_10__overloadINS_11__move_loopINS_17_ClassicAlgPolicyEEENS_14__move_trivialEEENS_16reverse_iteratorIPdEES9_S9_TnNS_9enable_ifIXsr12__can_rewrapIT0_T1_T2_EE5valueEiE4typeELi0EEENS_4pairISB_SD_EESB_SC_SD_, symObjAddr: 0xB994, symBinAddr: 0x10001EDA4, symSize: 0x12C }
  - { offset: 0x51F67, size: 0x8, addend: 0x0, symName: __ZNSt3__114__unwrap_rangeB8ne180100INS_16reverse_iteratorIPdEES3_EENS_4pairIT0_S5_EET_S7_, symObjAddr: 0xBAC0, symBinAddr: 0x10001EED0, symSize: 0x84 }
  - { offset: 0x52087, size: 0x8, addend: 0x0, symName: __ZNSt3__113__unwrap_iterB8ne180100INS_16reverse_iteratorIPdEENS_18__unwrap_iter_implIS3_Lb0EEETnNS_9enable_ifIXsr21is_copy_constructibleIT_EE5valueEiE4typeELi0EEEDTclsrT0_8__unwrapclsr3stdE7declvalIS7_EEEES7_, symObjAddr: 0xBBE4, symBinAddr: 0x10001EFF4, symSize: 0x44 }
  - { offset: 0x520CB, size: 0x8, addend: 0x0, symName: __ZNSt3__19make_pairB8ne180100INS_16reverse_iteratorIPdEES3_EENS_4pairINS_18__unwrap_ref_decayIT_E4typeENS5_IT0_E4typeEEEOS6_OS9_, symObjAddr: 0xBC28, symBinAddr: 0x10001F038, symSize: 0x38 }
  - { offset: 0x5211A, size: 0x8, addend: 0x0, symName: __ZNSt3__114__rewrap_rangeB8ne180100INS_16reverse_iteratorIPdEES3_EET_S4_T0_, symObjAddr: 0xBC60, symBinAddr: 0x10001F070, symSize: 0x5C }
  - { offset: 0x52166, size: 0x8, addend: 0x0, symName: __ZNSt3__113__rewrap_iterB8ne180100INS_16reverse_iteratorIPdEES3_NS_18__unwrap_iter_implIS3_Lb0EEEEET_S6_T0_, symObjAddr: 0xBCBC, symBinAddr: 0x10001F0CC, symSize: 0x74 }
  - { offset: 0x523BD, size: 0x8, addend: 0x0, symName: __ZNSt3__1miB8ne180100IPKdS2_EEDTmicldtfp_4baseEcldtfp0_4baseEERKNS_11__wrap_iterIT_EERKNS4_IT0_EE, symObjAddr: 0xC0C4, symBinAddr: 0x10001F4D4, symSize: 0x48 }
  - { offset: 0x52409, size: 0x8, addend: 0x0, symName: __ZNSt3__111upper_boundB8ne180100INS_11__wrap_iterIPKdEEdEET_S5_S5_RKT0_, symObjAddr: 0xC10C, symBinAddr: 0x10001F51C, symSize: 0x4C }
  - { offset: 0x52463, size: 0x8, addend: 0x0, symName: __ZNSt3__111upper_boundB8ne180100INS_11__wrap_iterIPKdEEdNS_6__lessIvvEEEET_S7_S7_RKT0_T1_, symObjAddr: 0xC2E0, symBinAddr: 0x10001F6F0, symSize: 0x54 }
  - { offset: 0x524D4, size: 0x8, addend: 0x0, symName: __ZNSt3__113__upper_boundB8ne180100INS_17_ClassicAlgPolicyENS_6__lessIvvEENS_11__wrap_iterIPKdEES7_dNS_10__identityEEET1_S9_T2_RKT3_OT0_OT4_, symObjAddr: 0xC334, symBinAddr: 0x10001F744, symSize: 0x104 }
  - { offset: 0x525A6, size: 0x8, addend: 0x0, symName: __ZNSt3__115__half_positiveB8ne180100IlTnNS_9enable_ifIXsr11is_integralIT_EE5valueEiE4typeELi0EEES2_S2_, symObjAddr: 0xC474, symBinAddr: 0x10001F884, symSize: 0x1C }
  - { offset: 0x525E1, size: 0x8, addend: 0x0, symName: __ZNSt3__18__invokeB8ne180100IRNS_6__lessIvvEEJRKdS5_EEEDTclclsr3stdE7declvalIT_EEspclsr3stdE7declvalIT0_EEEEOS6_DpOS7_, symObjAddr: 0xC4D0, symBinAddr: 0x10001F8E0, symSize: 0x34 }
  - { offset: 0x52646, size: 0x8, addend: 0x0, symName: __ZNSt3__18__invokeB8ne180100IRNS_10__identityEJRKdEEEDTclclsr3stdE7declvalIT_EEspclsr3stdE7declvalIT0_EEEEOS5_DpOS6_, symObjAddr: 0xC504, symBinAddr: 0x10001F914, symSize: 0x2C }
  - { offset: 0x52697, size: 0x8, addend: 0x0, symName: __ZNSt3__18distanceB8ne180100INS_11__wrap_iterIPKdEEEENS_15iterator_traitsIT_E15difference_typeES6_S6_, symObjAddr: 0xC568, symBinAddr: 0x10001F978, symSize: 0x3C }
  - { offset: 0x526DA, size: 0x8, addend: 0x0, symName: __ZNSt3__110__distanceB8ne180100INS_11__wrap_iterIPKdEEEENS_15iterator_traitsIT_E15difference_typeES6_S6_NS_26random_access_iterator_tagE, symObjAddr: 0xC5A4, symBinAddr: 0x10001F9B4, symSize: 0x30 }
  - { offset: 0x52727, size: 0x8, addend: 0x0, symName: __ZNSt3__14nextB8ne180100INS_11__wrap_iterIPKdEETnNS_9enable_ifIXsr29__has_input_iterator_categoryIT_EE5valueEiE4typeELi0EEES6_S6_NS_15iterator_traitsIS6_E15difference_typeE, symObjAddr: 0xC5D4, symBinAddr: 0x10001F9E4, symSize: 0x3C }
  - { offset: 0x52770, size: 0x8, addend: 0x0, symName: __ZNSt3__19__advanceB8ne180100INS_11__wrap_iterIPKdEEEEvRT_NS_15iterator_traitsIS5_E15difference_typeENS_26random_access_iterator_tagE, symObjAddr: 0xC65C, symBinAddr: 0x10001FA58, symSize: 0x2C }
  - { offset: 0x527E6, size: 0x8, addend: 0x0, symName: __ZNSt3__118generate_canonicalB8ne180100IdLm53ENS_23mersenne_twister_engineIjLm32ELm624ELm397ELm31ELj2567483615ELm11ELj4294967295ELm7ELj2636928640ELm15ELj4022730752ELm18ELj1812433253EEEEET_RT1_, symObjAddr: 0xC818, symBinAddr: 0x10001FC14, symSize: 0x110 }
  - { offset: 0x528AC, size: 0x8, addend: 0x0, symName: __ZNSt3__13maxB8ne180100IiNS_6__lessIvvEEEERKT_S5_S5_T0_, symObjAddr: 0xCB04, symBinAddr: 0x10001FF00, symSize: 0x54 }
  - { offset: 0x52906, size: 0x8, addend: 0x0, symName: __ZNSt3__13minB8ne180100IiNS_6__lessIvvEEEERKT_S5_S5_T0_, symObjAddr: 0xCB88, symBinAddr: 0x10001FF84, symSize: 0x54 }
  - { offset: 0x52961, size: 0x8, addend: 0x0, symName: '__ZNSt3__111__sort_implB8ne180100INS_17_ClassicAlgPolicyEP14OPT_token_dataZ12sample_top_kP20OPT_token_data_arrayimE3$_0EEvT0_S7_RT1_', symObjAddr: 0xCBDC, symBinAddr: 0x10001FFD8, symSize: 0x78 }
  - { offset: 0x529C5, size: 0x8, addend: 0x0, symName: '__ZNSt3__115__sort_dispatchB8ne180100INS_17_ClassicAlgPolicyEP14OPT_token_dataZ12sample_top_kP20OPT_token_data_arrayimE3$_0EEvT0_S7_RT1_', symObjAddr: 0xCC54, symBinAddr: 0x100020050, symSize: 0x64 }
  - { offset: 0x52A44, size: 0x8, addend: 0x0, symName: '__ZNSt3__135__check_strict_weak_ordering_sortedB8ne180100IP14OPT_token_dataZ12sample_top_kP20OPT_token_data_arrayimE3$_0EEvT_S6_RT0_', symObjAddr: 0xCCB8, symBinAddr: 0x1000200B4, symSize: 0x18 }
  - { offset: 0x52A9B, size: 0x8, addend: 0x0, symName: '__ZNSt3__124__sort3_maybe_branchlessB8ne180100INS_17_ClassicAlgPolicyERZ12sample_top_kP20OPT_token_data_arrayimE3$_0P14OPT_token_dataTnNS_9enable_ifIXntsr21__use_branchless_sortIT0_T1_EE5valueEiE4typeELi0EEEvSA_SA_SA_S9_', symObjAddr: 0xD178, symBinAddr: 0x100020574, symSize: 0x3C }
  - { offset: 0x52B0F, size: 0x8, addend: 0x0, symName: '__ZNSt3__124__sort4_maybe_branchlessB8ne180100INS_17_ClassicAlgPolicyERZ12sample_top_kP20OPT_token_data_arrayimE3$_0P14OPT_token_dataTnNS_9enable_ifIXntsr21__use_branchless_sortIT0_T1_EE5valueEiE4typeELi0EEEvSA_SA_SA_SA_S9_', symObjAddr: 0xD1B4, symBinAddr: 0x1000205B0, symSize: 0x44 }
  - { offset: 0x52B91, size: 0x8, addend: 0x0, symName: '__ZNSt3__124__sort5_maybe_branchlessB8ne180100INS_17_ClassicAlgPolicyERZ12sample_top_kP20OPT_token_data_arrayimE3$_0P14OPT_token_dataTnNS_9enable_ifIXntsr21__use_branchless_sortIT0_T1_EE5valueEiE4typeELi0EEEvSA_SA_SA_SA_SA_S9_', symObjAddr: 0xD1F8, symBinAddr: 0x1000205F4, symSize: 0x4C }
  - { offset: 0x52C28, size: 0x8, addend: 0x0, symName: '__ZNSt3__116__insertion_sortB8ne180100INS_17_ClassicAlgPolicyERZ12sample_top_kP20OPT_token_data_arrayimE3$_0P14OPT_token_dataEEvT1_S8_T0_', symObjAddr: 0xD244, symBinAddr: 0x100020640, symSize: 0x15C }
  - { offset: 0x52CF0, size: 0x8, addend: 0x0, symName: '__ZNSt3__114__partial_sortB8ne180100INS_17_ClassicAlgPolicyERZ12sample_top_kP20OPT_token_data_arrayimE3$_0P14OPT_token_dataS7_EET1_S8_S8_T2_RT0_', symObjAddr: 0xD4D0, symBinAddr: 0x1000208CC, symSize: 0x90 }
  - { offset: 0x52D79, size: 0x8, addend: 0x0, symName: '__ZNSt3__17__sort3B8ne180100INS_17_ClassicAlgPolicyERZ12sample_top_kP20OPT_token_data_arrayimE3$_0P14OPT_token_dataEEjT1_S8_S8_T0_', symObjAddr: 0xD560, symBinAddr: 0x10002095C, symSize: 0x144 }
  - { offset: 0x52DF9, size: 0x8, addend: 0x0, symName: '__ZNSt3__17__sort4B8ne180100INS_17_ClassicAlgPolicyERZ12sample_top_kP20OPT_token_data_arrayimE3$_0P14OPT_token_dataEEvT1_S8_S8_S8_T0_', symObjAddr: 0xE10C, symBinAddr: 0x100021508, symSize: 0xB8 }
  - { offset: 0x52E75, size: 0x8, addend: 0x0, symName: '__ZNSt3__17__sort5B8ne180100INS_17_ClassicAlgPolicyERZ12sample_top_kP20OPT_token_data_arrayimE3$_0P14OPT_token_dataEEvT1_S8_S8_S8_S8_T0_', symObjAddr: 0xE1C4, symBinAddr: 0x1000215C0, symSize: 0xE8 }
  - { offset: 0x52EFF, size: 0x8, addend: 0x0, symName: '__ZNSt3__119__partial_sort_implB8ne180100INS_17_ClassicAlgPolicyERZ12sample_top_kP20OPT_token_data_arrayimE3$_0P14OPT_token_dataS7_EET1_S8_S8_T2_OT0_', symObjAddr: 0xE2AC, symBinAddr: 0x1000216A8, symSize: 0x108 }
  - { offset: 0x52F96, size: 0x8, addend: 0x0, symName: '__ZNSt3__111__make_heapB8ne180100INS_17_ClassicAlgPolicyERZ12sample_top_kP20OPT_token_data_arrayimE3$_0P14OPT_token_dataEEvT1_S8_OT0_', symObjAddr: 0xE3B4, symBinAddr: 0x1000217B0, symSize: 0xB4 }
  - { offset: 0x53039, size: 0x8, addend: 0x0, symName: '__ZNSt3__111__sort_heapB8ne180100INS_17_ClassicAlgPolicyERZ12sample_top_kP20OPT_token_data_arrayimE3$_0P14OPT_token_dataEEvT1_S8_OT0_', symObjAddr: 0xE688, symBinAddr: 0x100021A84, symSize: 0xA4 }
  - { offset: 0x530DC, size: 0x8, addend: 0x0, symName: '__ZNSt3__110__pop_heapB8ne180100INS_17_ClassicAlgPolicyEZ12sample_top_kP20OPT_token_data_arrayimE3$_0P14OPT_token_dataEEvT1_S7_RT0_NS_15iterator_traitsIS7_E15difference_typeE', symObjAddr: 0xE72C, symBinAddr: 0x100021B28, symSize: 0x10C }
  - { offset: 0x5318D, size: 0x8, addend: 0x0, symName: '__ZNSt3__19__sift_upB8ne180100INS_17_ClassicAlgPolicyERZ12sample_top_kP20OPT_token_data_arrayimE3$_0P14OPT_token_dataEEvT1_S8_OT0_NS_15iterator_traitsIS8_E15difference_typeE', symObjAddr: 0xE940, symBinAddr: 0x100021D3C, symSize: 0x138 }
  - { offset: 0x5323E, size: 0x8, addend: 0x0, symName: '__ZNSt3__122__populate_left_bitsetB8ne180100IRZ12sample_top_kP20OPT_token_data_arrayimE3$_0P14OPT_token_dataS5_EEvT0_T_RT1_Ry', symObjAddr: 0xEA78, symBinAddr: 0x100021E74, symSize: 0xA4 }
  - { offset: 0x532FA, size: 0x8, addend: 0x0, symName: '__ZNSt3__123__populate_right_bitsetB8ne180100IRZ12sample_top_kP20OPT_token_data_arrayimE3$_0P14OPT_token_dataS5_EEvT0_T_RT1_Ry', symObjAddr: 0xEB1C, symBinAddr: 0x100021F18, symSize: 0x98 }
  - { offset: 0x533B6, size: 0x8, addend: 0x0, symName: '__ZNSt3__133__bitset_partition_partial_blocksB8ne180100INS_17_ClassicAlgPolicyERZ12sample_top_kP20OPT_token_data_arrayimE3$_0P14OPT_token_dataS6_EEvRT1_S9_T0_RT2_RySD_', symObjAddr: 0xEBB4, symBinAddr: 0x100021FB0, symSize: 0x2AC }
  - { offset: 0x53538, size: 0x8, addend: 0x0, symName: '__ZNSt3__114__partial_sortB8ne180100INS_17_ClassicAlgPolicyEZ12sample_top_kP20OPT_token_data_arrayimE3$_0P14OPT_token_dataS6_EET1_S7_S7_T2_RT0_', symObjAddr: 0xEE60, symBinAddr: 0x10002225C, symSize: 0x90 }
  - { offset: 0x535C0, size: 0x8, addend: 0x0, symName: __ZNSt3__110__distanceB8ne180100IP14OPT_token_dataEENS_15iterator_traitsIT_E15difference_typeES4_S4_NS_26random_access_iterator_tagE, symObjAddr: 0xEF20, symBinAddr: 0x10002231C, symSize: 0x28 }
  - { offset: 0x5360D, size: 0x8, addend: 0x0, symName: __ZNSt3__122__make_exception_guardB8ne180100INS_6vectorIfNS_9allocatorIfEEE16__destroy_vectorEEENS_28__exception_guard_exceptionsIT_EES7_, symObjAddr: 0xF098, symBinAddr: 0x100022494, symSize: 0x40 }
  - { offset: 0x53642, size: 0x8, addend: 0x0, symName: __ZNSt3__122__make_exception_guardB8ne180100INS_6vectorImNS_9allocatorImEEE16__destroy_vectorEEENS_28__exception_guard_exceptionsIT_EES7_, symObjAddr: 0xF484, symBinAddr: 0x100022880, symSize: 0x40 }
  - { offset: 0x53677, size: 0x8, addend: 0x0, symName: __ZNSt3__119__allocate_at_leastB8ne180100INS_9allocatorImEEEENS_19__allocation_resultINS_16allocator_traitsIT_E7pointerEEERS5_m, symObjAddr: 0xF868, symBinAddr: 0x100022C64, symSize: 0x40 }
  - { offset: 0x536BA, size: 0x8, addend: 0x0, symName: __ZNSt3__112__to_addressB8ne180100ImEEPT_S2_, symObjAddr: 0xFAD0, symBinAddr: 0x100022ECC, symSize: 0x14 }
  - { offset: 0x536EF, size: 0x8, addend: 0x0, symName: __ZNSt3__1neB8ne180100IPmEEbRKNS_11__wrap_iterIT_EES6_, symObjAddr: 0xFF40, symBinAddr: 0x10002333C, symSize: 0x30 }
  - { offset: 0x53732, size: 0x8, addend: 0x0, symName: __ZNSt3__1eqB8ne180100IPmEEbRKNS_11__wrap_iterIT_EES6_, symObjAddr: 0xFFA8, symBinAddr: 0x1000233A4, symSize: 0x44 }
  - { offset: 0x53776, size: 0x8, addend: 0x0, symName: '__ZNSt3__111__sort_implB8ne180100INS_17_ClassicAlgPolicyENS_11__wrap_iterIPmEEZ14sample_typicalP20OPT_token_data_arrayfmE3$_0EEvT0_S8_RT1_', symObjAddr: 0x10004, symBinAddr: 0x100023400, symSize: 0xA8 }
  - { offset: 0x537D9, size: 0x8, addend: 0x0, symName: __ZNSt3__123__debug_randomize_rangeB8ne180100INS_17_ClassicAlgPolicyENS_11__wrap_iterIPmEES4_EEvT0_T1_, symObjAddr: 0x100AC, symBinAddr: 0x1000234A8, symSize: 0x14 }
  - { offset: 0x5382B, size: 0x8, addend: 0x0, symName: '__ZNSt3__115__sort_dispatchB8ne180100INS_17_ClassicAlgPolicyEPmZ14sample_typicalP20OPT_token_data_arrayfmE3$_0EEvT0_S6_RT1_', symObjAddr: 0x100C0, symBinAddr: 0x1000234BC, symSize: 0x64 }
  - { offset: 0x538A9, size: 0x8, addend: 0x0, symName: __ZNSt3__113__unwrap_iterB8ne180100INS_11__wrap_iterIPmEENS_18__unwrap_iter_implIS3_Lb1EEETnNS_9enable_ifIXsr21is_copy_constructibleIT_EE5valueEiE4typeELi0EEEDTclsrT0_8__unwrapclsr3stdE7declvalIS7_EEEES7_, symObjAddr: 0x10124, symBinAddr: 0x100023520, symSize: 0x2C }
  - { offset: 0x538EE, size: 0x8, addend: 0x0, symName: '__ZNSt3__135__check_strict_weak_ordering_sortedB8ne180100IPmZ14sample_typicalP20OPT_token_data_arrayfmE3$_0EEvT_S5_RT0_', symObjAddr: 0x10150, symBinAddr: 0x10002354C, symSize: 0x18 }
  - { offset: 0x53945, size: 0x8, addend: 0x0, symName: '__ZNSt3__124__sort3_maybe_branchlessB8ne180100INS_17_ClassicAlgPolicyERZ14sample_typicalP20OPT_token_data_arrayfmE3$_0PmTnNS_9enable_ifIXntsr21__use_branchless_sortIT0_T1_EE5valueEiE4typeELi0EEEvS9_S9_S9_S8_', symObjAddr: 0x10644, symBinAddr: 0x100023A40, symSize: 0x3C }
  - { offset: 0x539B9, size: 0x8, addend: 0x0, symName: '__ZNSt3__124__sort4_maybe_branchlessB8ne180100INS_17_ClassicAlgPolicyERZ14sample_typicalP20OPT_token_data_arrayfmE3$_0PmTnNS_9enable_ifIXntsr21__use_branchless_sortIT0_T1_EE5valueEiE4typeELi0EEEvS9_S9_S9_S9_S8_', symObjAddr: 0x10680, symBinAddr: 0x100023A7C, symSize: 0x44 }
  - { offset: 0x53A3B, size: 0x8, addend: 0x0, symName: '__ZNSt3__124__sort5_maybe_branchlessB8ne180100INS_17_ClassicAlgPolicyERZ14sample_typicalP20OPT_token_data_arrayfmE3$_0PmTnNS_9enable_ifIXntsr21__use_branchless_sortIT0_T1_EE5valueEiE4typeELi0EEEvS9_S9_S9_S9_S9_S8_', symObjAddr: 0x106C4, symBinAddr: 0x100023AC0, symSize: 0x4C }
  - { offset: 0x53AD2, size: 0x8, addend: 0x0, symName: '__ZNSt3__116__insertion_sortB8ne180100INS_17_ClassicAlgPolicyERZ14sample_typicalP20OPT_token_data_arrayfmE3$_0PmEEvT1_S7_T0_', symObjAddr: 0x10710, symBinAddr: 0x100023B0C, symSize: 0x150 }
  - { offset: 0x53B9A, size: 0x8, addend: 0x0, symName: '__ZNSt3__114__partial_sortB8ne180100INS_17_ClassicAlgPolicyERZ14sample_typicalP20OPT_token_data_arrayfmE3$_0PmS6_EET1_S7_S7_T2_RT0_', symObjAddr: 0x10984, symBinAddr: 0x100023D80, symSize: 0x90 }
  - { offset: 0x53C23, size: 0x8, addend: 0x0, symName: '__ZNSt3__17__sort3B8ne180100INS_17_ClassicAlgPolicyERZ14sample_typicalP20OPT_token_data_arrayfmE3$_0PmEEjT1_S7_S7_T0_', symObjAddr: 0x10A14, symBinAddr: 0x100023E10, symSize: 0x16C }
  - { offset: 0x53CA2, size: 0x8, addend: 0x0, symName: __ZNSt3__19iter_swapB8ne180100IPmS1_EEvT_T0_, symObjAddr: 0x115FC, symBinAddr: 0x1000249F8, symSize: 0x2C }
  - { offset: 0x53CEA, size: 0x8, addend: 0x0, symName: __ZNSt3__14swapB8ne180100ImEENS_9enable_ifIXaasr21is_move_constructibleIT_EE5valuesr18is_move_assignableIS2_EE5valueEvE4typeERS2_S5_, symObjAddr: 0x11628, symBinAddr: 0x100024A24, symSize: 0x3C }
  - { offset: 0x53D3C, size: 0x8, addend: 0x0, symName: '__ZNSt3__17__sort4B8ne180100INS_17_ClassicAlgPolicyERZ14sample_typicalP20OPT_token_data_arrayfmE3$_0PmEEvT1_S7_S7_S7_T0_', symObjAddr: 0x11664, symBinAddr: 0x100024A60, symSize: 0xD0 }
  - { offset: 0x53DB8, size: 0x8, addend: 0x0, symName: '__ZNSt3__17__sort5B8ne180100INS_17_ClassicAlgPolicyERZ14sample_typicalP20OPT_token_data_arrayfmE3$_0PmEEvT1_S7_S7_S7_S7_T0_', symObjAddr: 0x11734, symBinAddr: 0x100024B30, symSize: 0x108 }
  - { offset: 0x53E4C, size: 0x8, addend: 0x0, symName: __ZNSt3__123__debug_randomize_rangeB8ne180100INS_17_ClassicAlgPolicyEPmS2_EEvT0_T1_, symObjAddr: 0x11880, symBinAddr: 0x100024C7C, symSize: 0x14 }
  - { offset: 0x53E9E, size: 0x8, addend: 0x0, symName: '__ZNSt3__119__partial_sort_implB8ne180100INS_17_ClassicAlgPolicyERZ14sample_typicalP20OPT_token_data_arrayfmE3$_0PmS6_EET1_S7_S7_T2_OT0_', symObjAddr: 0x11894, symBinAddr: 0x100024C90, symSize: 0x110 }
  - { offset: 0x53F35, size: 0x8, addend: 0x0, symName: '__ZNSt3__111__make_heapB8ne180100INS_17_ClassicAlgPolicyERZ14sample_typicalP20OPT_token_data_arrayfmE3$_0PmEEvT1_S7_OT0_', symObjAddr: 0x119A4, symBinAddr: 0x100024DA0, symSize: 0xAC }
  - { offset: 0x53FD8, size: 0x8, addend: 0x0, symName: '__ZNSt3__111__sort_heapB8ne180100INS_17_ClassicAlgPolicyERZ14sample_typicalP20OPT_token_data_arrayfmE3$_0PmEEvT1_S7_OT0_', symObjAddr: 0x11C5C, symBinAddr: 0x100025058, symSize: 0xA4 }
  - { offset: 0x5407B, size: 0x8, addend: 0x0, symName: '__ZNSt3__110__pop_heapB8ne180100INS_17_ClassicAlgPolicyEZ14sample_typicalP20OPT_token_data_arrayfmE3$_0PmEEvT1_S6_RT0_NS_15iterator_traitsIS6_E15difference_typeE', symObjAddr: 0x11D00, symBinAddr: 0x1000250FC, symSize: 0xEC }
  - { offset: 0x5412C, size: 0x8, addend: 0x0, symName: '__ZNSt3__19__sift_upB8ne180100INS_17_ClassicAlgPolicyERZ14sample_typicalP20OPT_token_data_arrayfmE3$_0PmEEvT1_S7_OT0_NS_15iterator_traitsIS7_E15difference_typeE', symObjAddr: 0x11EE8, symBinAddr: 0x1000252E4, symSize: 0x11C }
  - { offset: 0x541DD, size: 0x8, addend: 0x0, symName: '__ZNSt3__122__populate_left_bitsetB8ne180100IRZ14sample_typicalP20OPT_token_data_arrayfmE3$_0PmmEEvT0_T_RT1_Ry', symObjAddr: 0x12004, symBinAddr: 0x100025400, symSize: 0xAC }
  - { offset: 0x54299, size: 0x8, addend: 0x0, symName: '__ZNSt3__123__populate_right_bitsetB8ne180100IRZ14sample_typicalP20OPT_token_data_arrayfmE3$_0PmmEEvT0_T_RT1_Ry', symObjAddr: 0x120B0, symBinAddr: 0x1000254AC, symSize: 0xA0 }
  - { offset: 0x54354, size: 0x8, addend: 0x0, symName: __ZNSt3__117__swap_bitmap_posB8ne180100INS_17_ClassicAlgPolicyEPmEEvT0_S3_RyS4_, symObjAddr: 0x12150, symBinAddr: 0x10002554C, symSize: 0xF8 }
  - { offset: 0x543F6, size: 0x8, addend: 0x0, symName: '__ZNSt3__133__bitset_partition_partial_blocksB8ne180100INS_17_ClassicAlgPolicyERZ14sample_typicalP20OPT_token_data_arrayfmE3$_0PmmEEvRT1_S8_T0_RT2_RySC_', symObjAddr: 0x12248, symBinAddr: 0x100025644, symSize: 0x2B4 }
  - { offset: 0x54577, size: 0x8, addend: 0x0, symName: __ZNSt3__19make_pairB8ne180100IRPmRbEENS_4pairINS_18__unwrap_ref_decayIT_E4typeENS5_IT0_E4typeEEEOS6_OS9_, symObjAddr: 0x126B4, symBinAddr: 0x100025AB0, symSize: 0x38 }
  - { offset: 0x546ED, size: 0x8, addend: 0x0, symName: __ZNSt3__112__to_addressB8ne180100INS_11__wrap_iterIPmEEvEEu7__decayIDTclsr19__to_address_helperIT_EE6__callclsr3stdE7declvalIRKS4_EEEEES6_, symObjAddr: 0x127BC, symBinAddr: 0x100025BB8, symSize: 0x24 }
  - { offset: 0x547C8, size: 0x8, addend: 0x0, symName: __ZNSt3__119__allocate_at_leastB8ne180100INS_9allocatorI14OPT_token_dataEEEENS_19__allocation_resultINS_16allocator_traitsIT_E7pointerEEERS6_m, symObjAddr: 0x1348C, symBinAddr: 0x100026888, symSize: 0x40 }
  - { offset: 0x5480B, size: 0x8, addend: 0x0, symName: __ZNSt3__142__uninitialized_allocator_move_if_noexceptB8ne180100INS_9allocatorI14OPT_token_dataEENS_16reverse_iteratorIPS2_EES6_S2_vEET1_RT_T0_SA_S7_, symObjAddr: 0x13640, symBinAddr: 0x100026A3C, symSize: 0x78 }
  - { offset: 0x54888, size: 0x8, addend: 0x0, symName: __ZNSt3__14swapB8ne180100IP14OPT_token_dataEENS_9enable_ifIXaasr21is_move_constructibleIT_EE5valuesr18is_move_assignableIS4_EE5valueEvE4typeERS4_S7_, symObjAddr: 0x13704, symBinAddr: 0x100026B00, symSize: 0x3C }
  - { offset: 0x548D9, size: 0x8, addend: 0x0, symName: __ZNSt3__14moveB8ne180100INS_16reverse_iteratorIP14OPT_token_dataEES4_EET0_T_S6_S5_, symObjAddr: 0x13754, symBinAddr: 0x100026B50, symSize: 0x78 }
  - { offset: 0x54933, size: 0x8, addend: 0x0, symName: __ZNSt3__16__moveB8ne180100INS_17_ClassicAlgPolicyENS_16reverse_iteratorIP14OPT_token_dataEES5_S5_EENS_4pairIT0_T2_EES7_T1_S8_, symObjAddr: 0x137CC, symBinAddr: 0x100026BC8, symSize: 0x64 }
  - { offset: 0x5499F, size: 0x8, addend: 0x0, symName: __ZNSt3__123__dispatch_copy_or_moveB8ne180100INS_17_ClassicAlgPolicyENS_11__move_loopIS1_EENS_14__move_trivialENS_16reverse_iteratorIP14OPT_token_dataEES8_S8_EENS_4pairIT2_T4_EESA_T3_SB_, symObjAddr: 0x13830, symBinAddr: 0x100026C2C, symSize: 0x64 }
  - { offset: 0x54A1D, size: 0x8, addend: 0x0, symName: __ZNSt3__121__unwrap_and_dispatchB8ne180100INS_10__overloadINS_11__move_loopINS_17_ClassicAlgPolicyEEENS_14__move_trivialEEENS_16reverse_iteratorIP14OPT_token_dataEESA_SA_TnNS_9enable_ifIXsr12__can_rewrapIT0_T1_T2_EE5valueEiE4typeELi0EEENS_4pairISC_SE_EESC_SD_SE_, symObjAddr: 0x13894, symBinAddr: 0x100026C90, symSize: 0x12C }
  - { offset: 0x54AAD, size: 0x8, addend: 0x0, symName: __ZNSt3__114__unwrap_rangeB8ne180100INS_16reverse_iteratorIP14OPT_token_dataEES4_EENS_4pairIT0_S6_EET_S8_, symObjAddr: 0x139C0, symBinAddr: 0x100026DBC, symSize: 0x84 }
  - { offset: 0x54BCD, size: 0x8, addend: 0x0, symName: __ZNSt3__113__unwrap_iterB8ne180100INS_16reverse_iteratorIP14OPT_token_dataEENS_18__unwrap_iter_implIS4_Lb0EEETnNS_9enable_ifIXsr21is_copy_constructibleIT_EE5valueEiE4typeELi0EEEDTclsrT0_8__unwrapclsr3stdE7declvalIS8_EEEES8_, symObjAddr: 0x13AEC, symBinAddr: 0x100026EE8, symSize: 0x44 }
  - { offset: 0x54C11, size: 0x8, addend: 0x0, symName: __ZNSt3__19make_pairB8ne180100INS_16reverse_iteratorIP14OPT_token_dataEES4_EENS_4pairINS_18__unwrap_ref_decayIT_E4typeENS6_IT0_E4typeEEEOS7_OSA_, symObjAddr: 0x13B30, symBinAddr: 0x100026F2C, symSize: 0x38 }
  - { offset: 0x54C60, size: 0x8, addend: 0x0, symName: __ZNSt3__114__rewrap_rangeB8ne180100INS_16reverse_iteratorIP14OPT_token_dataEES4_EET_S5_T0_, symObjAddr: 0x13B68, symBinAddr: 0x100026F64, symSize: 0x5C }
  - { offset: 0x54CAC, size: 0x8, addend: 0x0, symName: __ZNSt3__113__rewrap_iterB8ne180100INS_16reverse_iteratorIP14OPT_token_dataEES4_NS_18__unwrap_iter_implIS4_Lb0EEEEET_S7_T0_, symObjAddr: 0x13BC4, symBinAddr: 0x100026FC0, symSize: 0x74 }
  - { offset: 0x54D01, size: 0x8, addend: 0x0, symName: __ZNSt3__1neB8ne180100IP14OPT_token_dataS2_EEbRKNS_16reverse_iteratorIT_EERKNS3_IT0_EE, symObjAddr: 0x13C38, symBinAddr: 0x100027034, symSize: 0x44 }
  - { offset: 0x54D95, size: 0x8, addend: 0x0, symName: __ZNSt3__16__copyB8ne180100INS_17_ClassicAlgPolicyENS_11__wrap_iterIP14OPT_token_dataEES5_S4_EENS_4pairIT0_T2_EES7_T1_S8_, symObjAddr: 0x1403C, symBinAddr: 0x100027438, symSize: 0x54 }
  - { offset: 0x54E01, size: 0x8, addend: 0x0, symName: __ZNSt3__123__dispatch_copy_or_moveB8ne180100INS_17_ClassicAlgPolicyENS_11__copy_loopIS1_EENS_14__copy_trivialENS_11__wrap_iterIP14OPT_token_dataEES8_S7_EENS_4pairIT2_T4_EESA_T3_SB_, symObjAddr: 0x14090, symBinAddr: 0x10002748C, symSize: 0x54 }
  - { offset: 0x54E7F, size: 0x8, addend: 0x0, symName: __ZNSt3__121__unwrap_and_dispatchB8ne180100INS_10__overloadINS_11__copy_loopINS_17_ClassicAlgPolicyEEENS_14__copy_trivialEEENS_11__wrap_iterIP14OPT_token_dataEESA_S9_TnNS_9enable_ifIXsr12__can_rewrapIT0_T1_T2_EE5valueEiE4typeELi0EEENS_4pairISC_SE_EESC_SD_SE_, symObjAddr: 0x140E4, symBinAddr: 0x1000274E0, symSize: 0xCC }
  - { offset: 0x54F0D, size: 0x8, addend: 0x0, symName: __ZNSt3__114__unwrap_rangeB8ne180100INS_11__wrap_iterIP14OPT_token_dataEES3_EENS_4pairIT0_S6_EET_S8_, symObjAddr: 0x141B0, symBinAddr: 0x1000275AC, symSize: 0x70 }
  - { offset: 0x550A2, size: 0x8, addend: 0x0, symName: __ZNSt3__19make_pairB8ne180100INS_11__wrap_iterIP14OPT_token_dataEES3_EENS_4pairINS_18__unwrap_ref_decayIT_E4typeENS6_IT0_E4typeEEEOS7_OSA_, symObjAddr: 0x14268, symBinAddr: 0x100027664, symSize: 0x38 }
  - { offset: 0x550F1, size: 0x8, addend: 0x0, symName: __ZNSt3__114__rewrap_rangeB8ne180100INS_11__wrap_iterIP14OPT_token_dataEES3_EET_S5_T0_, symObjAddr: 0x142A0, symBinAddr: 0x10002769C, symSize: 0x3C }
  - { offset: 0x5513D, size: 0x8, addend: 0x0, symName: __ZNSt3__113__rewrap_iterB8ne180100IP14OPT_token_dataS2_NS_18__unwrap_iter_implIS2_Lb1EEEEET_S5_T0_, symObjAddr: 0x142DC, symBinAddr: 0x1000276D8, symSize: 0x3C }
  - { offset: 0x55192, size: 0x8, addend: 0x0, symName: __ZNSt3__19make_pairB8ne180100IP14OPT_token_dataS2_EENS_4pairINS_18__unwrap_ref_decayIT_E4typeENS4_IT0_E4typeEEEOS5_OS8_, symObjAddr: 0x14318, symBinAddr: 0x100027714, symSize: 0x38 }
  - { offset: 0x551E1, size: 0x8, addend: 0x0, symName: __ZNSt3__113__unwrap_iterB8ne180100INS_11__wrap_iterIP14OPT_token_dataEENS_18__unwrap_iter_implIS4_Lb1EEETnNS_9enable_ifIXsr21is_copy_constructibleIT_EE5valueEiE4typeELi0EEEDTclsrT0_8__unwrapclsr3stdE7declvalIS8_EEEES8_, symObjAddr: 0x14350, symBinAddr: 0x10002774C, symSize: 0x2C }
  - { offset: 0x55278, size: 0x8, addend: 0x0, symName: __ZNSt3__112__to_addressB8ne180100INS_11__wrap_iterIP14OPT_token_dataEEvEEu7__decayIDTclsr19__to_address_helperIT_EE6__callclsr3stdE7declvalIRKS5_EEEEES7_, symObjAddr: 0x14414, symBinAddr: 0x100027810, symSize: 0x24 }
  - { offset: 0x55353, size: 0x8, addend: 0x0, symName: __ZNSt3__119__copy_trivial_implB8ne180100I14OPT_token_dataS1_EENS_4pairIPT_PT0_EES4_S4_S6_, symObjAddr: 0x144AC, symBinAddr: 0x1000278A8, symSize: 0x88 }
  - { offset: 0x553BB, size: 0x8, addend: 0x0, symName: __ZNSt3__119__constexpr_memmoveB8ne180100I14OPT_token_dataS1_TnNS_9enable_ifIXsr23__is_always_bitcastableIT0_T_EE5valueEiE4typeELi0EEEPS4_S7_PS3_NS_15__element_countE, symObjAddr: 0x14534, symBinAddr: 0x100027930, symSize: 0x64 }
  - { offset: 0x55429, size: 0x8, addend: 0x0, symName: __ZNSt3__19make_pairB8ne180100IRP14OPT_token_dataS2_EENS_4pairINS_18__unwrap_ref_decayIT_E4typeENS5_IT0_E4typeEEEOS6_OS9_, symObjAddr: 0x14598, symBinAddr: 0x100027994, symSize: 0x38 }
  - { offset: 0x5554C, size: 0x8, addend: 0x0, symName: __ZNSt3__113__rewrap_iterB8ne180100INS_11__wrap_iterIP14OPT_token_dataEES3_NS_18__unwrap_iter_implIS4_Lb1EEEEET_S7_T0_, symObjAddr: 0x146B0, symBinAddr: 0x100027AAC, symSize: 0x4C }
  - { offset: 0x5BA52, size: 0x8, addend: 0x0, symName: __ZNSt3__16vectorIfNS_9allocatorIfEEE26__swap_out_circular_bufferERNS_14__split_bufferIfRS2_EE, symObjAddr: 0x83EC, symBinAddr: 0x10001B974, symSize: 0x110 }
  - { offset: 0x5BB06, size: 0x8, addend: 0x0, symName: __ZNSt3__16vectorIdNS_9allocatorIdEEE26__swap_out_circular_bufferERNS_14__split_bufferIdRS2_EE, symObjAddr: 0xB47C, symBinAddr: 0x10001E88C, symSize: 0x110 }
  - { offset: 0x5BE42, size: 0x8, addend: 0x0, symName: __ZNSt3__16vectorI14OPT_token_dataNS_9allocatorIS1_EEE26__swap_out_circular_bufferERNS_14__split_bufferIS1_RS3_EE, symObjAddr: 0x13124, symBinAddr: 0x100026520, symSize: 0x110 }
  - { offset: 0x5BE99, size: 0x8, addend: 0x0, symName: __Z25sample_repetition_penaltyP20OPT_token_data_arrayPKimf, symObjAddr: 0xA8, symBinAddr: 0x100013BF0, symSize: 0x15C }
  - { offset: 0x5BF23, size: 0x8, addend: 0x0, symName: __Z39sample_frequency_and_presence_penaltiesP20OPT_token_data_arrayPKimff, symObjAddr: 0x264, symBinAddr: 0x100013DAC, symSize: 0x1FC }
  - { offset: 0x5C0A6, size: 0x8, addend: 0x0, symName: __ZNSt3__113unordered_mapIiiNS_4hashIiEENS_8equal_toIiEENS_9allocatorINS_4pairIKiiEEEEEC1B8ne180100Ev, symObjAddr: 0x460, symBinAddr: 0x100013FA8, symSize: 0x2C }
  - { offset: 0x5C0D0, size: 0x8, addend: 0x0, symName: __ZNSt3__113unordered_mapIiiNS_4hashIiEENS_8equal_toIiEENS_9allocatorINS_4pairIKiiEEEEEixERS7_, symObjAddr: 0x48C, symBinAddr: 0x100013FD4, symSize: 0x80 }
  - { offset: 0x5C107, size: 0x8, addend: 0x0, symName: __ZNSt3__113unordered_mapIiiNS_4hashIiEENS_8equal_toIiEENS_9allocatorINS_4pairIKiiEEEEE4findB8ne180100ERS7_, symObjAddr: 0x50C, symBinAddr: 0x100014054, symSize: 0x40 }
  - { offset: 0x5C13C, size: 0x8, addend: 0x0, symName: __ZNSt3__113unordered_mapIiiNS_4hashIiEENS_8equal_toIiEENS_9allocatorINS_4pairIKiiEEEEE3endB8ne180100Ev, symObjAddr: 0x578, symBinAddr: 0x1000140C0, symSize: 0x38 }
  - { offset: 0x5C162, size: 0x8, addend: 0x0, symName: __ZNKSt3__119__hash_map_iteratorINS_15__hash_iteratorIPNS_11__hash_nodeINS_17__hash_value_typeIiiEEPvEEEEEptB8ne180100Ev, symObjAddr: 0x5B0, symBinAddr: 0x1000140F8, symSize: 0x2C }
  - { offset: 0x5C188, size: 0x8, addend: 0x0, symName: __ZNSt3__113unordered_mapIiiNS_4hashIiEENS_8equal_toIiEENS_9allocatorINS_4pairIKiiEEEEED1B8ne180100Ev, symObjAddr: 0x5DC, symBinAddr: 0x100014124, symSize: 0x2C }
  - { offset: 0x5C1B1, size: 0x8, addend: 0x0, symName: __Z19sample_token_greedyP20OPT_token_data_array, symObjAddr: 0x608, symBinAddr: 0x100014150, symSize: 0x58 }
  - { offset: 0x5C21D, size: 0x8, addend: 0x0, symName: __Z18sample_temperatureP20OPT_token_data_arrayf, symObjAddr: 0x690, symBinAddr: 0x1000141D8, symSize: 0x70 }
  - { offset: 0x5C26F, size: 0x8, addend: 0x0, symName: __Z14sample_softmaxP20OPT_token_data_array, symObjAddr: 0x700, symBinAddr: 0x100014248, symSize: 0x1A4 }
  - { offset: 0x5C32B, size: 0x8, addend: 0x0, symName: __Z12sample_tokenP20OPT_token_data_array, symObjAddr: 0x8D4, symBinAddr: 0x10001441C, symSize: 0x170 }
  - { offset: 0x5C3BB, size: 0x8, addend: 0x0, symName: __ZNSt3__16vectorIfNS_9allocatorIfEEEC1B8ne180100Ev, symObjAddr: 0xA44, symBinAddr: 0x10001458C, symSize: 0x2C }
  - { offset: 0x5C3E5, size: 0x8, addend: 0x0, symName: __ZNSt3__16vectorIfNS_9allocatorIfEEE7reserveEm, symObjAddr: 0xA70, symBinAddr: 0x1000145B8, symSize: 0xE0 }
  - { offset: 0x5C441, size: 0x8, addend: 0x0, symName: __ZNSt3__16vectorIfNS_9allocatorIfEEE9push_backB8ne180100ERKf, symObjAddr: 0xB50, symBinAddr: 0x100014698, symSize: 0x8C }
  - { offset: 0x5C487, size: 0x8, addend: 0x0, symName: __ZNSt3__16vectorIfNS_9allocatorIfEEE5beginB8ne180100Ev, symObjAddr: 0xBDC, symBinAddr: 0x100014724, symSize: 0x30 }
  - { offset: 0x5C4AF, size: 0x8, addend: 0x0, symName: __ZNSt3__16vectorIfNS_9allocatorIfEEE3endB8ne180100Ev, symObjAddr: 0xC0C, symBinAddr: 0x100014754, symSize: 0x30 }
  - { offset: 0x5C4FB, size: 0x8, addend: 0x0, symName: __ZNSt3__121discrete_distributionIiEC1B8ne180100INS_11__wrap_iterIPfEEEET_S6_, symObjAddr: 0xC3C, symBinAddr: 0x100014784, symSize: 0x3C }
  - { offset: 0x5C550, size: 0x8, addend: 0x0, symName: __ZNSt3__121discrete_distributionIiEclB8ne180100INS_23mersenne_twister_engineIjLm32ELm624ELm397ELm31ELj2567483615ELm11ELj4294967295ELm7ELj2636928640ELm15ELj4022730752ELm18ELj1812433253EEEEEiRT_, symObjAddr: 0xC78, symBinAddr: 0x1000147C0, symSize: 0x30 }
  - { offset: 0x5C58D, size: 0x8, addend: 0x0, symName: __ZNSt3__121discrete_distributionIiED1Ev, symObjAddr: 0xCA8, symBinAddr: 0x1000147F0, symSize: 0x2C }
  - { offset: 0x5C5B9, size: 0x8, addend: 0x0, symName: __ZNSt3__16vectorIfNS_9allocatorIfEEED1B8ne180100Ev, symObjAddr: 0xCD4, symBinAddr: 0x10001481C, symSize: 0x2C }
  - { offset: 0x5C5E2, size: 0x8, addend: 0x0, symName: __Z12sample_top_kP20OPT_token_data_arrayim, symObjAddr: 0xD00, symBinAddr: 0x100014848, symSize: 0x118 }
  - { offset: 0x5C666, size: 0x8, addend: 0x0, symName: __Z21sample_token_mirostatiP20OPT_token_data_arrayffiPf, symObjAddr: 0xED8, symBinAddr: 0x100014A20, symSize: 0x298 }
  - { offset: 0x5C7DB, size: 0x8, addend: 0x0, symName: __Z24sample_token_mirostat_v2P20OPT_token_data_arrayffPf, symObjAddr: 0x1208, symBinAddr: 0x100014D50, symSize: 0x14C }
  - { offset: 0x5C8BF, size: 0x8, addend: 0x0, symName: __Z16sample_tail_freeP20OPT_token_data_arrayfm, symObjAddr: 0x142C, symBinAddr: 0x100014F74, symSize: 0x3B8 }
  - { offset: 0x5CA17, size: 0x8, addend: 0x0, symName: __ZNSt3__16vectorIfNS_9allocatorIfEEEC1Em, symObjAddr: 0x17E4, symBinAddr: 0x10001532C, symSize: 0x34 }
  - { offset: 0x5CA52, size: 0x8, addend: 0x0, symName: __ZNKSt3__16vectorIfNS_9allocatorIfEEE4sizeB8ne180100Ev, symObjAddr: 0x1818, symBinAddr: 0x100015360, symSize: 0x28 }
  - { offset: 0x5CA78, size: 0x8, addend: 0x0, symName: __ZNSt3__16vectorIfNS_9allocatorIfEEEixB8ne180100Em, symObjAddr: 0x1840, symBinAddr: 0x100015388, symSize: 0x24 }
  - { offset: 0x5CAAE, size: 0x8, addend: 0x0, symName: __Z3absB8ne180100f, symObjAddr: 0x1864, symBinAddr: 0x1000153AC, symSize: 0x18 }
  - { offset: 0x5CADB, size: 0x8, addend: 0x0, symName: __ZNKSt3__111__wrap_iterIPfEdeB8ne180100Ev, symObjAddr: 0x191C, symBinAddr: 0x100015464, symSize: 0x18 }
  - { offset: 0x5CB01, size: 0x8, addend: 0x0, symName: __ZNSt3__111__wrap_iterIPfEppB8ne180100Ev, symObjAddr: 0x1934, symBinAddr: 0x10001547C, symSize: 0x20 }
  - { offset: 0x5CB26, size: 0x8, addend: 0x0, symName: __Z14sample_typicalP20OPT_token_data_arrayfm, symObjAddr: 0x1954, symBinAddr: 0x10001549C, symSize: 0x3D4 }
  - { offset: 0x5CCAC, size: 0x8, addend: 0x0, symName: __ZNSt3__16vectorImNS_9allocatorImEEEC1Em, symObjAddr: 0x1D28, symBinAddr: 0x100015870, symSize: 0x34 }
  - { offset: 0x5CCE7, size: 0x8, addend: 0x0, symName: __ZNSt3__16vectorImNS_9allocatorImEEE5beginB8ne180100Ev, symObjAddr: 0x1DCC, symBinAddr: 0x100015914, symSize: 0x30 }
  - { offset: 0x5CD0F, size: 0x8, addend: 0x0, symName: __ZNSt3__16vectorImNS_9allocatorImEEE3endB8ne180100Ev, symObjAddr: 0x1DFC, symBinAddr: 0x100015944, symSize: 0x30 }
  - { offset: 0x5CD37, size: 0x8, addend: 0x0, symName: __ZNKSt3__16vectorImNS_9allocatorImEEE4sizeB8ne180100Ev, symObjAddr: 0x1E74, symBinAddr: 0x1000159BC, symSize: 0x28 }
  - { offset: 0x5CD5D, size: 0x8, addend: 0x0, symName: __ZNSt3__16vectorImNS_9allocatorImEEEixB8ne180100Em, symObjAddr: 0x1E9C, symBinAddr: 0x1000159E4, symSize: 0x24 }
  - { offset: 0x5CD94, size: 0x8, addend: 0x0, symName: __ZNSt3__16vectorI14OPT_token_dataNS_9allocatorIS1_EEEC1B8ne180100Ev, symObjAddr: 0x1EC0, symBinAddr: 0x100015A08, symSize: 0x2C }
  - { offset: 0x5CDBE, size: 0x8, addend: 0x0, symName: __ZNSt3__16vectorI14OPT_token_dataNS_9allocatorIS1_EEE9push_backB8ne180100ERKS1_, symObjAddr: 0x1EEC, symBinAddr: 0x100015A34, symSize: 0x8C }
  - { offset: 0x5CE04, size: 0x8, addend: 0x0, symName: __ZNSt3__16vectorI14OPT_token_dataNS_9allocatorIS1_EEE5beginB8ne180100Ev, symObjAddr: 0x1FC8, symBinAddr: 0x100015B10, symSize: 0x30 }
  - { offset: 0x5CE2C, size: 0x8, addend: 0x0, symName: __ZNSt3__16vectorI14OPT_token_dataNS_9allocatorIS1_EEE3endB8ne180100Ev, symObjAddr: 0x1FF8, symBinAddr: 0x100015B40, symSize: 0x30 }
  - { offset: 0x5CE54, size: 0x8, addend: 0x0, symName: __ZNKSt3__16vectorI14OPT_token_dataNS_9allocatorIS1_EEE4sizeB8ne180100Ev, symObjAddr: 0x2028, symBinAddr: 0x100015B70, symSize: 0x28 }
  - { offset: 0x5CE7A, size: 0x8, addend: 0x0, symName: __ZNSt3__16vectorI14OPT_token_dataNS_9allocatorIS1_EEED1B8ne180100Ev, symObjAddr: 0x2050, symBinAddr: 0x100015B98, symSize: 0x2C }
  - { offset: 0x5CEA4, size: 0x8, addend: 0x0, symName: __ZNSt3__16vectorImNS_9allocatorImEEED1B8ne180100Ev, symObjAddr: 0x207C, symBinAddr: 0x100015BC4, symSize: 0x2C }
  - { offset: 0x5CECD, size: 0x8, addend: 0x0, symName: __Z12sample_top_pP20OPT_token_data_arrayfm, symObjAddr: 0x20A8, symBinAddr: 0x100015BF0, symSize: 0xF8 }
  - { offset: 0x5CF51, size: 0x8, addend: 0x0, symName: __ZNSt3__121discrete_distributionIiED2Ev, symObjAddr: 0x2218, symBinAddr: 0x100015CE8, symSize: 0x2C }
  - { offset: 0x5CF7D, size: 0x8, addend: 0x0, symName: __ZNSt3__121discrete_distributionIiE10param_typeD1Ev, symObjAddr: 0x2244, symBinAddr: 0x100015D14, symSize: 0x2C }
  - { offset: 0x5CFA9, size: 0x8, addend: 0x0, symName: __ZNSt3__121discrete_distributionIiE10param_typeD2Ev, symObjAddr: 0x2270, symBinAddr: 0x100015D40, symSize: 0x2C }
  - { offset: 0x5CFD5, size: 0x8, addend: 0x0, symName: __ZNSt3__16vectorIdNS_9allocatorIdEEED1B8ne180100Ev, symObjAddr: 0x229C, symBinAddr: 0x100015D6C, symSize: 0x2C }
  - { offset: 0x5CFFF, size: 0x8, addend: 0x0, symName: __ZNSt3__16vectorIdNS_9allocatorIdEEED2B8ne180100Ev, symObjAddr: 0x22C8, symBinAddr: 0x100015D98, symSize: 0x44 }
  - { offset: 0x5D029, size: 0x8, addend: 0x0, symName: __ZNSt3__16vectorIdNS_9allocatorIdEEE16__destroy_vectorC1B8ne180100ERS3_, symObjAddr: 0x230C, symBinAddr: 0x100015DDC, symSize: 0x34 }
  - { offset: 0x5D062, size: 0x8, addend: 0x0, symName: __ZNSt3__16vectorIdNS_9allocatorIdEEE16__destroy_vectorclB8ne180100Ev, symObjAddr: 0x2350, symBinAddr: 0x100015E10, symSize: 0x88 }
  - { offset: 0x5D088, size: 0x8, addend: 0x0, symName: __ZNSt3__16vectorIdNS_9allocatorIdEEE16__destroy_vectorC2B8ne180100ERS3_, symObjAddr: 0x23D8, symBinAddr: 0x100015E98, symSize: 0x20 }
  - { offset: 0x5D0C1, size: 0x8, addend: 0x0, symName: __ZNSt3__16vectorIdNS_9allocatorIdEEE7__clearB8ne180100Ev, symObjAddr: 0x23F8, symBinAddr: 0x100015EB8, symSize: 0x28 }
  - { offset: 0x5D0E7, size: 0x8, addend: 0x0, symName: __ZNKSt3__16vectorIdNS_9allocatorIdEEE17__annotate_deleteB8ne180100Ev, symObjAddr: 0x2420, symBinAddr: 0x100015EE0, symSize: 0x10 }
  - { offset: 0x5D10D, size: 0x8, addend: 0x0, symName: __ZNSt3__116allocator_traitsINS_9allocatorIdEEE10deallocateB8ne180100ERS2_Pdm, symObjAddr: 0x2430, symBinAddr: 0x100015EF0, symSize: 0x34 }
  - { offset: 0x5D14F, size: 0x8, addend: 0x0, symName: __ZNSt3__16vectorIdNS_9allocatorIdEEE7__allocB8ne180100Ev, symObjAddr: 0x2464, symBinAddr: 0x100015F24, symSize: 0x28 }
  - { offset: 0x5D175, size: 0x8, addend: 0x0, symName: __ZNKSt3__16vectorIdNS_9allocatorIdEEE8capacityB8ne180100Ev, symObjAddr: 0x248C, symBinAddr: 0x100015F4C, symSize: 0x40 }
  - { offset: 0x5D19B, size: 0x8, addend: 0x0, symName: __ZNSt3__16vectorIdNS_9allocatorIdEEE22__base_destruct_at_endB8ne180100EPd, symObjAddr: 0x24CC, symBinAddr: 0x100015F8C, symSize: 0x88 }
  - { offset: 0x5D1DF, size: 0x8, addend: 0x0, symName: __ZNSt3__116allocator_traitsINS_9allocatorIdEEE7destroyB8ne180100IdvEEvRS2_PT_, symObjAddr: 0x2554, symBinAddr: 0x100016014, symSize: 0x2C }
  - { offset: 0x5D21C, size: 0x8, addend: 0x0, symName: __ZNSt3__19allocatorIdE7destroyB8ne180100EPd, symObjAddr: 0x2594, symBinAddr: 0x100016054, symSize: 0x14 }
  - { offset: 0x5D250, size: 0x8, addend: 0x0, symName: __ZNSt3__19allocatorIdE10deallocateB8ne180100EPdm, symObjAddr: 0x25A8, symBinAddr: 0x100016068, symSize: 0x40 }
  - { offset: 0x5D292, size: 0x8, addend: 0x0, symName: __ZNSt3__117__compressed_pairIPdNS_9allocatorIdEEE6secondB8ne180100Ev, symObjAddr: 0x2664, symBinAddr: 0x1000160A8, symSize: 0x24 }
  - { offset: 0x5D2B8, size: 0x8, addend: 0x0, symName: __ZNSt3__122__compressed_pair_elemINS_9allocatorIdEELi1ELb1EE5__getB8ne180100Ev, symObjAddr: 0x2688, symBinAddr: 0x1000160CC, symSize: 0x14 }
  - { offset: 0x5D2DE, size: 0x8, addend: 0x0, symName: __ZNKSt3__16vectorIdNS_9allocatorIdEEE9__end_capB8ne180100Ev, symObjAddr: 0x269C, symBinAddr: 0x1000160E0, symSize: 0x28 }
  - { offset: 0x5D304, size: 0x8, addend: 0x0, symName: __ZNKSt3__117__compressed_pairIPdNS_9allocatorIdEEE5firstB8ne180100Ev, symObjAddr: 0x26C4, symBinAddr: 0x100016108, symSize: 0x24 }
  - { offset: 0x5D32A, size: 0x8, addend: 0x0, symName: __ZNKSt3__122__compressed_pair_elemIPdLi0ELb0EE5__getB8ne180100Ev, symObjAddr: 0x26E8, symBinAddr: 0x10001612C, symSize: 0x14 }
  - { offset: 0x5D350, size: 0x8, addend: 0x0, symName: __ZNKSt3__111__wrap_iterIPfE4baseB8ne180100Ev, symObjAddr: 0x2740, symBinAddr: 0x100016184, symSize: 0x18 }
  - { offset: 0x5D376, size: 0x8, addend: 0x0, symName: __ZNSt3__118__unwrap_iter_implIPKiLb1EE8__rewrapB8ne180100ES2_S2_, symObjAddr: 0x2974, symBinAddr: 0x100016274, symSize: 0x50 }
  - { offset: 0x5D3A7, size: 0x8, addend: 0x0, symName: __ZNSt3__118__unwrap_iter_implIPKiLb1EE8__unwrapB8ne180100ES2_, symObjAddr: 0x2A18, symBinAddr: 0x100016318, symSize: 0x24 }
  - { offset: 0x5D3CA, size: 0x8, addend: 0x0, symName: __ZNSt3__113unordered_mapIiiNS_4hashIiEENS_8equal_toIiEENS_9allocatorINS_4pairIKiiEEEEEC2B8ne180100Ev, symObjAddr: 0x2A3C, symBinAddr: 0x10001633C, symSize: 0x2C }
  - { offset: 0x5D3F4, size: 0x8, addend: 0x0, symName: __ZNSt3__112__hash_tableINS_17__hash_value_typeIiiEENS_22__unordered_map_hasherIiS2_NS_4hashIiEENS_8equal_toIiEELb1EEENS_21__unordered_map_equalIiS2_S7_S5_Lb1EEENS_9allocatorIS2_EEEC1Ev, symObjAddr: 0x2A68, symBinAddr: 0x100016368, symSize: 0x2C }
  - { offset: 0x5D420, size: 0x8, addend: 0x0, symName: __ZNSt3__112__hash_tableINS_17__hash_value_typeIiiEENS_22__unordered_map_hasherIiS2_NS_4hashIiEENS_8equal_toIiEELb1EEENS_21__unordered_map_equalIiS2_S7_S5_Lb1EEENS_9allocatorIS2_EEEC2Ev, symObjAddr: 0x2A94, symBinAddr: 0x100016394, symSize: 0x7C }
  - { offset: 0x5D44C, size: 0x8, addend: 0x0, symName: __ZNSt3__110unique_ptrIA_PNS_16__hash_node_baseIPNS_11__hash_nodeINS_17__hash_value_typeIiiEEPvEEEENS_25__bucket_list_deallocatorINS_9allocatorIS9_EEEEEC1B8ne180100ILb1EvEEv, symObjAddr: 0x2B10, symBinAddr: 0x100016410, symSize: 0x2C }
  - { offset: 0x5D481, size: 0x8, addend: 0x0, symName: __ZNSt3__117__compressed_pairINS_16__hash_node_baseIPNS_11__hash_nodeINS_17__hash_value_typeIiiEEPvEEEENS_9allocatorIS6_EEEC1B8ne180100ILb1EvEEv, symObjAddr: 0x2B3C, symBinAddr: 0x10001643C, symSize: 0x2C }
  - { offset: 0x5D4C2, size: 0x8, addend: 0x0, symName: __ZNSt3__117__compressed_pairImNS_22__unordered_map_hasherIiNS_17__hash_value_typeIiiEENS_4hashIiEENS_8equal_toIiEELb1EEEEC1B8ne180100IiNS_18__default_init_tagEEEOT_OT0_, symObjAddr: 0x2B68, symBinAddr: 0x100016468, symSize: 0x3C }
  - { offset: 0x5D520, size: 0x8, addend: 0x0, symName: __ZNSt3__117__compressed_pairIfNS_21__unordered_map_equalIiNS_17__hash_value_typeIiiEENS_8equal_toIiEENS_4hashIiEELb1EEEEC1B8ne180100IfNS_18__default_init_tagEEEOT_OT0_, symObjAddr: 0x2BA4, symBinAddr: 0x1000164A4, symSize: 0x3C }
  - { offset: 0x5D578, size: 0x8, addend: 0x0, symName: __ZNSt3__110unique_ptrIA_PNS_16__hash_node_baseIPNS_11__hash_nodeINS_17__hash_value_typeIiiEEPvEEEENS_25__bucket_list_deallocatorINS_9allocatorIS9_EEEEEC2B8ne180100ILb1EvEEv, symObjAddr: 0x2BE0, symBinAddr: 0x1000164E0, symSize: 0x3C }
  - { offset: 0x5D5B3, size: 0x8, addend: 0x0, symName: __ZNSt3__117__compressed_pairIPPNS_16__hash_node_baseIPNS_11__hash_nodeINS_17__hash_value_typeIiiEEPvEEEENS_25__bucket_list_deallocatorINS_9allocatorIS9_EEEEEC1B8ne180100INS_16__value_init_tagESH_EEOT_OT0_, symObjAddr: 0x2C1C, symBinAddr: 0x10001651C, symSize: 0x3C }
  - { offset: 0x5D60B, size: 0x8, addend: 0x0, symName: __ZNSt3__117__compressed_pairIPPNS_16__hash_node_baseIPNS_11__hash_nodeINS_17__hash_value_typeIiiEEPvEEEENS_25__bucket_list_deallocatorINS_9allocatorIS9_EEEEEC2B8ne180100INS_16__value_init_tagESH_EEOT_OT0_, symObjAddr: 0x2C58, symBinAddr: 0x100016558, symSize: 0x40 }
  - { offset: 0x5D663, size: 0x8, addend: 0x0, symName: __ZNSt3__122__compressed_pair_elemIPPNS_16__hash_node_baseIPNS_11__hash_nodeINS_17__hash_value_typeIiiEEPvEEEELi0ELb0EEC2B8ne180100ENS_16__value_init_tagE, symObjAddr: 0x2C98, symBinAddr: 0x100016598, symSize: 0x18 }
  - { offset: 0x5D697, size: 0x8, addend: 0x0, symName: __ZNSt3__122__compressed_pair_elemINS_25__bucket_list_deallocatorINS_9allocatorIPNS_16__hash_node_baseIPNS_11__hash_nodeINS_17__hash_value_typeIiiEEPvEEEEEEEELi1ELb0EEC2B8ne180100ENS_16__value_init_tagE, symObjAddr: 0x2CB0, symBinAddr: 0x1000165B0, symSize: 0x2C }
  - { offset: 0x5D6CB, size: 0x8, addend: 0x0, symName: __ZNSt3__125__bucket_list_deallocatorINS_9allocatorIPNS_16__hash_node_baseIPNS_11__hash_nodeINS_17__hash_value_typeIiiEEPvEEEEEEEC1B8ne180100Ev, symObjAddr: 0x2CDC, symBinAddr: 0x1000165DC, symSize: 0x2C }
  - { offset: 0x5D6F5, size: 0x8, addend: 0x0, symName: __ZNSt3__125__bucket_list_deallocatorINS_9allocatorIPNS_16__hash_node_baseIPNS_11__hash_nodeINS_17__hash_value_typeIiiEEPvEEEEEEEC2B8ne180100Ev, symObjAddr: 0x2D08, symBinAddr: 0x100016608, symSize: 0x40 }
  - { offset: 0x5D71F, size: 0x8, addend: 0x0, symName: __ZNSt3__117__compressed_pairImNS_9allocatorIPNS_16__hash_node_baseIPNS_11__hash_nodeINS_17__hash_value_typeIiiEEPvEEEEEEEC1B8ne180100IiNS_18__default_init_tagEEEOT_OT0_, symObjAddr: 0x2D48, symBinAddr: 0x100016648, symSize: 0x3C }
  - { offset: 0x5D777, size: 0x8, addend: 0x0, symName: __ZNSt3__117__compressed_pairImNS_9allocatorIPNS_16__hash_node_baseIPNS_11__hash_nodeINS_17__hash_value_typeIiiEEPvEEEEEEEC2B8ne180100IiNS_18__default_init_tagEEEOT_OT0_, symObjAddr: 0x2D84, symBinAddr: 0x100016684, symSize: 0x40 }
  - { offset: 0x5D7CF, size: 0x8, addend: 0x0, symName: __ZNSt3__122__compressed_pair_elemINS_9allocatorIPNS_16__hash_node_baseIPNS_11__hash_nodeINS_17__hash_value_typeIiiEEPvEEEEEELi1ELb1EEC2B8ne180100ENS_18__default_init_tagE, symObjAddr: 0x2DE8, symBinAddr: 0x1000166C4, symSize: 0x2C }
  - { offset: 0x5D803, size: 0x8, addend: 0x0, symName: __ZNSt3__19allocatorIPNS_16__hash_node_baseIPNS_11__hash_nodeINS_17__hash_value_typeIiiEEPvEEEEEC2B8ne180100Ev, symObjAddr: 0x2E14, symBinAddr: 0x1000166F0, symSize: 0x2C }
  - { offset: 0x5D82D, size: 0x8, addend: 0x0, symName: __ZNSt3__116__non_trivial_ifILb1ENS_9allocatorIPNS_16__hash_node_baseIPNS_11__hash_nodeINS_17__hash_value_typeIiiEEPvEEEEEEEC2B8ne180100Ev, symObjAddr: 0x2E40, symBinAddr: 0x10001671C, symSize: 0x14 }
  - { offset: 0x5D857, size: 0x8, addend: 0x0, symName: __ZNSt3__117__compressed_pairINS_16__hash_node_baseIPNS_11__hash_nodeINS_17__hash_value_typeIiiEEPvEEEENS_9allocatorIS6_EEEC2B8ne180100ILb1EvEEv, symObjAddr: 0x2E54, symBinAddr: 0x100016730, symSize: 0x34 }
  - { offset: 0x5D88C, size: 0x8, addend: 0x0, symName: __ZNSt3__122__compressed_pair_elemINS_16__hash_node_baseIPNS_11__hash_nodeINS_17__hash_value_typeIiiEEPvEEEELi0ELb0EEC2B8ne180100ENS_16__value_init_tagE, symObjAddr: 0x2E88, symBinAddr: 0x100016764, symSize: 0x2C }
  - { offset: 0x5D8C0, size: 0x8, addend: 0x0, symName: __ZNSt3__122__compressed_pair_elemINS_9allocatorINS_11__hash_nodeINS_17__hash_value_typeIiiEEPvEEEELi1ELb1EEC2B8ne180100ENS_16__value_init_tagE, symObjAddr: 0x2EB4, symBinAddr: 0x100016790, symSize: 0x2C }
  - { offset: 0x5D8F4, size: 0x8, addend: 0x0, symName: __ZNSt3__116__hash_node_baseIPNS_11__hash_nodeINS_17__hash_value_typeIiiEEPvEEEC1B8ne180100Ev, symObjAddr: 0x2EE0, symBinAddr: 0x1000167BC, symSize: 0x2C }
  - { offset: 0x5D91E, size: 0x8, addend: 0x0, symName: __ZNSt3__116__hash_node_baseIPNS_11__hash_nodeINS_17__hash_value_typeIiiEEPvEEEC2B8ne180100Ev, symObjAddr: 0x2F0C, symBinAddr: 0x1000167E8, symSize: 0x18 }
  - { offset: 0x5D948, size: 0x8, addend: 0x0, symName: __ZNSt3__19allocatorINS_11__hash_nodeINS_17__hash_value_typeIiiEEPvEEEC2B8ne180100Ev, symObjAddr: 0x2F24, symBinAddr: 0x100016800, symSize: 0x2C }
  - { offset: 0x5D972, size: 0x8, addend: 0x0, symName: __ZNSt3__116__non_trivial_ifILb1ENS_9allocatorINS_11__hash_nodeINS_17__hash_value_typeIiiEEPvEEEEEC2B8ne180100Ev, symObjAddr: 0x2F50, symBinAddr: 0x10001682C, symSize: 0x14 }
  - { offset: 0x5D99C, size: 0x8, addend: 0x0, symName: __ZNSt3__117__compressed_pairImNS_22__unordered_map_hasherIiNS_17__hash_value_typeIiiEENS_4hashIiEENS_8equal_toIiEELb1EEEEC2B8ne180100IiNS_18__default_init_tagEEEOT_OT0_, symObjAddr: 0x2F64, symBinAddr: 0x100016840, symSize: 0x40 }
  - { offset: 0x5D9F4, size: 0x8, addend: 0x0, symName: __ZNSt3__122__compressed_pair_elemINS_22__unordered_map_hasherIiNS_17__hash_value_typeIiiEENS_4hashIiEENS_8equal_toIiEELb1EEELi1ELb1EEC2B8ne180100ENS_18__default_init_tagE, symObjAddr: 0x2FA4, symBinAddr: 0x100016880, symSize: 0x2C }
  - { offset: 0x5DA28, size: 0x8, addend: 0x0, symName: __ZNSt3__122__unordered_map_hasherIiNS_17__hash_value_typeIiiEENS_4hashIiEENS_8equal_toIiEELb1EEC2B8ne180100Ev, symObjAddr: 0x2FD0, symBinAddr: 0x1000168AC, symSize: 0x14 }
  - { offset: 0x5DA52, size: 0x8, addend: 0x0, symName: __ZNSt3__117__compressed_pairIfNS_21__unordered_map_equalIiNS_17__hash_value_typeIiiEENS_8equal_toIiEENS_4hashIiEELb1EEEEC2B8ne180100IfNS_18__default_init_tagEEEOT_OT0_, symObjAddr: 0x2FE4, symBinAddr: 0x1000168C0, symSize: 0x40 }
  - { offset: 0x5DAAA, size: 0x8, addend: 0x0, symName: __ZNSt3__122__compressed_pair_elemINS_21__unordered_map_equalIiNS_17__hash_value_typeIiiEENS_8equal_toIiEENS_4hashIiEELb1EEELi1ELb1EEC2B8ne180100ENS_18__default_init_tagE, symObjAddr: 0x3048, symBinAddr: 0x100016900, symSize: 0x2C }
  - { offset: 0x5DADE, size: 0x8, addend: 0x0, symName: __ZNSt3__121__unordered_map_equalIiNS_17__hash_value_typeIiiEENS_8equal_toIiEENS_4hashIiEELb1EEC2B8ne180100Ev, symObjAddr: 0x3074, symBinAddr: 0x10001692C, symSize: 0x14 }
  - { offset: 0x5DB08, size: 0x8, addend: 0x0, symName: __ZNSt3__113unordered_mapIiiNS_4hashIiEENS_8equal_toIiEENS_9allocatorINS_4pairIKiiEEEEED2B8ne180100Ev, symObjAddr: 0x3088, symBinAddr: 0x100016940, symSize: 0x2C }
  - { offset: 0x5DB32, size: 0x8, addend: 0x0, symName: __ZNSt3__112__hash_tableINS_17__hash_value_typeIiiEENS_22__unordered_map_hasherIiS2_NS_4hashIiEENS_8equal_toIiEELb1EEENS_21__unordered_map_equalIiS2_S7_S5_Lb1EEENS_9allocatorIS2_EEED1Ev, symObjAddr: 0x30B4, symBinAddr: 0x10001696C, symSize: 0x2C }
  - { offset: 0x5DB5E, size: 0x8, addend: 0x0, symName: __ZNSt3__112__hash_tableINS_17__hash_value_typeIiiEENS_22__unordered_map_hasherIiS2_NS_4hashIiEENS_8equal_toIiEELb1EEENS_21__unordered_map_equalIiS2_S7_S5_Lb1EEENS_9allocatorIS2_EEED2Ev, symObjAddr: 0x30E0, symBinAddr: 0x100016998, symSize: 0x48 }
  - { offset: 0x5DB8A, size: 0x8, addend: 0x0, symName: __ZNSt3__112__hash_tableINS_17__hash_value_typeIiiEENS_22__unordered_map_hasherIiS2_NS_4hashIiEENS_8equal_toIiEELb1EEENS_21__unordered_map_equalIiS2_S7_S5_Lb1EEENS_9allocatorIS2_EEE17__deallocate_nodeEPNS_16__hash_node_baseIPNS_11__hash_nodeIS2_PvEEEE, symObjAddr: 0x3128, symBinAddr: 0x1000169E0, symSize: 0xB8 }
  - { offset: 0x5DBF4, size: 0x8, addend: 0x0, symName: __ZNSt3__117__compressed_pairINS_16__hash_node_baseIPNS_11__hash_nodeINS_17__hash_value_typeIiiEEPvEEEENS_9allocatorIS6_EEE5firstB8ne180100Ev, symObjAddr: 0x31E0, symBinAddr: 0x100016A98, symSize: 0x24 }
  - { offset: 0x5DC1A, size: 0x8, addend: 0x0, symName: __ZNSt3__110unique_ptrIA_PNS_16__hash_node_baseIPNS_11__hash_nodeINS_17__hash_value_typeIiiEEPvEEEENS_25__bucket_list_deallocatorINS_9allocatorIS9_EEEEED1B8ne180100Ev, symObjAddr: 0x3204, symBinAddr: 0x100016ABC, symSize: 0x2C }
  - { offset: 0x5DC44, size: 0x8, addend: 0x0, symName: __ZNSt3__112__hash_tableINS_17__hash_value_typeIiiEENS_22__unordered_map_hasherIiS2_NS_4hashIiEENS_8equal_toIiEELb1EEENS_21__unordered_map_equalIiS2_S7_S5_Lb1EEENS_9allocatorIS2_EEE12__node_allocB8ne180100Ev, symObjAddr: 0x3230, symBinAddr: 0x100016AE8, symSize: 0x28 }
  - { offset: 0x5DC6A, size: 0x8, addend: 0x0, symName: __ZNSt3__116__hash_node_baseIPNS_11__hash_nodeINS_17__hash_value_typeIiiEEPvEEE8__upcastB8ne180100Ev, symObjAddr: 0x3258, symBinAddr: 0x100016B10, symSize: 0x24 }
  - { offset: 0x5DC90, size: 0x8, addend: 0x0, symName: __ZNSt3__116allocator_traitsINS_9allocatorINS_11__hash_nodeINS_17__hash_value_typeIiiEEPvEEEEE7destroyB8ne180100INS_4pairIKiiEEvvEEvRS7_PT_, symObjAddr: 0x327C, symBinAddr: 0x100016B34, symSize: 0x28 }
  - { offset: 0x5DCCA, size: 0x8, addend: 0x0, symName: __ZNSt3__122__hash_key_value_typesINS_17__hash_value_typeIiiEEE9__get_ptrB8ne180100ERS2_, symObjAddr: 0x32A4, symBinAddr: 0x100016B5C, symSize: 0x24 }
  - { offset: 0x5DCED, size: 0x8, addend: 0x0, symName: __ZNSt3__111__hash_nodeINS_17__hash_value_typeIiiEEPvE11__get_valueB8ne180100Ev, symObjAddr: 0x32C8, symBinAddr: 0x100016B80, symSize: 0x18 }
  - { offset: 0x5DD13, size: 0x8, addend: 0x0, symName: __ZNSt3__116allocator_traitsINS_9allocatorINS_11__hash_nodeINS_17__hash_value_typeIiiEEPvEEEEE10deallocateB8ne180100ERS7_PS6_m, symObjAddr: 0x3304, symBinAddr: 0x100016BBC, symSize: 0x34 }
  - { offset: 0x5DD55, size: 0x8, addend: 0x0, symName: __ZNSt3__117__compressed_pairINS_16__hash_node_baseIPNS_11__hash_nodeINS_17__hash_value_typeIiiEEPvEEEENS_9allocatorIS6_EEE6secondB8ne180100Ev, symObjAddr: 0x3338, symBinAddr: 0x100016BF0, symSize: 0x24 }
  - { offset: 0x5DD7B, size: 0x8, addend: 0x0, symName: __ZNSt3__122__compressed_pair_elemINS_9allocatorINS_11__hash_nodeINS_17__hash_value_typeIiiEEPvEEEELi1ELb1EE5__getB8ne180100Ev, symObjAddr: 0x335C, symBinAddr: 0x100016C14, symSize: 0x14 }
  - { offset: 0x5DDA1, size: 0x8, addend: 0x0, symName: __ZNSt3__114pointer_traitsIPNS_16__hash_node_baseIPNS_11__hash_nodeINS_17__hash_value_typeIiiEEPvEEEEE10pointer_toB8ne180100ERS8_, symObjAddr: 0x3370, symBinAddr: 0x100016C28, symSize: 0x14 }
  - { offset: 0x5DDC4, size: 0x8, addend: 0x0, symName: __ZNSt3__117__hash_value_typeIiiE11__get_valueB8ne180100Ev, symObjAddr: 0x3394, symBinAddr: 0x100016C4C, symSize: 0x14 }
  - { offset: 0x5DDEA, size: 0x8, addend: 0x0, symName: __ZNSt3__111__hash_nodeINS_17__hash_value_typeIiiEEPvED1B8ne180100Ev, symObjAddr: 0x33A8, symBinAddr: 0x100016C60, symSize: 0x2C }
  - { offset: 0x5DE14, size: 0x8, addend: 0x0, symName: __ZNSt3__111__hash_nodeINS_17__hash_value_typeIiiEEPvED2B8ne180100Ev, symObjAddr: 0x33D4, symBinAddr: 0x100016C8C, symSize: 0x14 }
  - { offset: 0x5DE3E, size: 0x8, addend: 0x0, symName: __ZNSt3__19allocatorINS_11__hash_nodeINS_17__hash_value_typeIiiEEPvEEE10deallocateB8ne180100EPS5_m, symObjAddr: 0x33E8, symBinAddr: 0x100016CA0, symSize: 0x44 }
  - { offset: 0x5DE80, size: 0x8, addend: 0x0, symName: __ZNSt3__122__compressed_pair_elemINS_16__hash_node_baseIPNS_11__hash_nodeINS_17__hash_value_typeIiiEEPvEEEELi0ELb0EE5__getB8ne180100Ev, symObjAddr: 0x342C, symBinAddr: 0x100016CE4, symSize: 0x14 }
  - { offset: 0x5DEA6, size: 0x8, addend: 0x0, symName: __ZNSt3__110unique_ptrIA_PNS_16__hash_node_baseIPNS_11__hash_nodeINS_17__hash_value_typeIiiEEPvEEEENS_25__bucket_list_deallocatorINS_9allocatorIS9_EEEEED2B8ne180100Ev, symObjAddr: 0x3440, symBinAddr: 0x100016CF8, symSize: 0x30 }
  - { offset: 0x5DED0, size: 0x8, addend: 0x0, symName: __ZNSt3__110unique_ptrIA_PNS_16__hash_node_baseIPNS_11__hash_nodeINS_17__hash_value_typeIiiEEPvEEEENS_25__bucket_list_deallocatorINS_9allocatorIS9_EEEEE5resetB8ne180100EDn, symObjAddr: 0x3470, symBinAddr: 0x100016D28, symSize: 0x64 }
  - { offset: 0x5DF10, size: 0x8, addend: 0x0, symName: __ZNSt3__117__compressed_pairIPPNS_16__hash_node_baseIPNS_11__hash_nodeINS_17__hash_value_typeIiiEEPvEEEENS_25__bucket_list_deallocatorINS_9allocatorIS9_EEEEE5firstB8ne180100Ev, symObjAddr: 0x34D4, symBinAddr: 0x100016D8C, symSize: 0x24 }
  - { offset: 0x5DF36, size: 0x8, addend: 0x0, symName: __ZNSt3__117__compressed_pairIPPNS_16__hash_node_baseIPNS_11__hash_nodeINS_17__hash_value_typeIiiEEPvEEEENS_25__bucket_list_deallocatorINS_9allocatorIS9_EEEEE6secondB8ne180100Ev, symObjAddr: 0x34F8, symBinAddr: 0x100016DB0, symSize: 0x28 }
  - { offset: 0x5DF5C, size: 0x8, addend: 0x0, symName: __ZNSt3__125__bucket_list_deallocatorINS_9allocatorIPNS_16__hash_node_baseIPNS_11__hash_nodeINS_17__hash_value_typeIiiEEPvEEEEEEEclB8ne180100EPSA_, symObjAddr: 0x3520, symBinAddr: 0x100016DD8, symSize: 0x58 }
  - { offset: 0x5DF91, size: 0x8, addend: 0x0, symName: __ZNSt3__122__compressed_pair_elemIPPNS_16__hash_node_baseIPNS_11__hash_nodeINS_17__hash_value_typeIiiEEPvEEEELi0ELb0EE5__getB8ne180100Ev, symObjAddr: 0x3578, symBinAddr: 0x100016E30, symSize: 0x14 }
  - { offset: 0x5DFB7, size: 0x8, addend: 0x0, symName: __ZNSt3__122__compressed_pair_elemINS_25__bucket_list_deallocatorINS_9allocatorIPNS_16__hash_node_baseIPNS_11__hash_nodeINS_17__hash_value_typeIiiEEPvEEEEEEEELi1ELb0EE5__getB8ne180100Ev, symObjAddr: 0x358C, symBinAddr: 0x100016E44, symSize: 0x14 }
  - { offset: 0x5DFDD, size: 0x8, addend: 0x0, symName: __ZNSt3__116allocator_traitsINS_9allocatorIPNS_16__hash_node_baseIPNS_11__hash_nodeINS_17__hash_value_typeIiiEEPvEEEEEEE10deallocateB8ne180100ERSB_PSA_m, symObjAddr: 0x35A0, symBinAddr: 0x100016E58, symSize: 0x34 }
  - { offset: 0x5E01F, size: 0x8, addend: 0x0, symName: __ZNSt3__125__bucket_list_deallocatorINS_9allocatorIPNS_16__hash_node_baseIPNS_11__hash_nodeINS_17__hash_value_typeIiiEEPvEEEEEEE7__allocB8ne180100Ev, symObjAddr: 0x35D4, symBinAddr: 0x100016E8C, symSize: 0x24 }
  - { offset: 0x5E045, size: 0x8, addend: 0x0, symName: __ZNSt3__125__bucket_list_deallocatorINS_9allocatorIPNS_16__hash_node_baseIPNS_11__hash_nodeINS_17__hash_value_typeIiiEEPvEEEEEEE4sizeB8ne180100Ev, symObjAddr: 0x35F8, symBinAddr: 0x100016EB0, symSize: 0x24 }
  - { offset: 0x5E06B, size: 0x8, addend: 0x0, symName: __ZNSt3__19allocatorIPNS_16__hash_node_baseIPNS_11__hash_nodeINS_17__hash_value_typeIiiEEPvEEEEE10deallocateB8ne180100EPS9_m, symObjAddr: 0x361C, symBinAddr: 0x100016ED4, symSize: 0x40 }
  - { offset: 0x5E0AD, size: 0x8, addend: 0x0, symName: __ZNSt3__117__compressed_pairImNS_9allocatorIPNS_16__hash_node_baseIPNS_11__hash_nodeINS_17__hash_value_typeIiiEEPvEEEEEEE6secondB8ne180100Ev, symObjAddr: 0x365C, symBinAddr: 0x100016F14, symSize: 0x24 }
  - { offset: 0x5E0D3, size: 0x8, addend: 0x0, symName: __ZNSt3__122__compressed_pair_elemINS_9allocatorIPNS_16__hash_node_baseIPNS_11__hash_nodeINS_17__hash_value_typeIiiEEPvEEEEEELi1ELb1EE5__getB8ne180100Ev, symObjAddr: 0x3680, symBinAddr: 0x100016F38, symSize: 0x14 }
  - { offset: 0x5E0F9, size: 0x8, addend: 0x0, symName: __ZNSt3__117__compressed_pairImNS_9allocatorIPNS_16__hash_node_baseIPNS_11__hash_nodeINS_17__hash_value_typeIiiEEPvEEEEEEE5firstB8ne180100Ev, symObjAddr: 0x3694, symBinAddr: 0x100016F4C, symSize: 0x24 }
  - { offset: 0x5E131, size: 0x8, addend: 0x0, symName: __ZNSt3__112__hash_tableINS_17__hash_value_typeIiiEENS_22__unordered_map_hasherIiS2_NS_4hashIiEENS_8equal_toIiEELb1EEENS_21__unordered_map_equalIiS2_S7_S5_Lb1EEENS_9allocatorIS2_EEE25__emplace_unique_key_argsIiJRKNS_21piecewise_construct_tENS_5tupleIJRKiEEENSI_IJEEEEEENS_4pairINS_15__hash_iteratorIPNS_11__hash_nodeIS2_PvEEEEbEERKT_DpOT0_, symObjAddr: 0x36CC, symBinAddr: 0x100016F70, symSize: 0x4AC }
  - { offset: 0x5E239, size: 0x8, addend: 0x0, symName: __ZNKSt3__115__hash_iteratorIPNS_11__hash_nodeINS_17__hash_value_typeIiiEEPvEEEptB8ne180100Ev, symObjAddr: 0x3BA8, symBinAddr: 0x100017448, symSize: 0x30 }
  - { offset: 0x5E25F, size: 0x8, addend: 0x0, symName: __ZNSt3__112__hash_tableINS_17__hash_value_typeIiiEENS_22__unordered_map_hasherIiS2_NS_4hashIiEENS_8equal_toIiEELb1EEENS_21__unordered_map_equalIiS2_S7_S5_Lb1EEENS_9allocatorIS2_EEE13hash_functionB8ne180100Ev, symObjAddr: 0x3BD8, symBinAddr: 0x100017478, symSize: 0x28 }
  - { offset: 0x5E285, size: 0x8, addend: 0x0, symName: __ZNKSt3__122__unordered_map_hasherIiNS_17__hash_value_typeIiiEENS_4hashIiEENS_8equal_toIiEELb1EEclB8ne180100ERKi, symObjAddr: 0x3C00, symBinAddr: 0x1000174A0, symSize: 0x30 }
  - { offset: 0x5E2BA, size: 0x8, addend: 0x0, symName: __ZNKSt3__112__hash_tableINS_17__hash_value_typeIiiEENS_22__unordered_map_hasherIiS2_NS_4hashIiEENS_8equal_toIiEELb1EEENS_21__unordered_map_equalIiS2_S7_S5_Lb1EEENS_9allocatorIS2_EEE12bucket_countB8ne180100Ev, symObjAddr: 0x3C30, symBinAddr: 0x1000174D0, symSize: 0x28 }
  - { offset: 0x5E2E0, size: 0x8, addend: 0x0, symName: __ZNKSt3__110unique_ptrIA_PNS_16__hash_node_baseIPNS_11__hash_nodeINS_17__hash_value_typeIiiEEPvEEEENS_25__bucket_list_deallocatorINS_9allocatorIS9_EEEEEixB8ne180100Em, symObjAddr: 0x3CE8, symBinAddr: 0x1000174F8, symSize: 0x34 }
  - { offset: 0x5E315, size: 0x8, addend: 0x0, symName: __ZNKSt3__116__hash_node_baseIPNS_11__hash_nodeINS_17__hash_value_typeIiiEEPvEEE6__hashB8ne180100Ev, symObjAddr: 0x3D1C, symBinAddr: 0x10001752C, symSize: 0x18 }
  - { offset: 0x5E33B, size: 0x8, addend: 0x0, symName: __ZNSt3__112__hash_tableINS_17__hash_value_typeIiiEENS_22__unordered_map_hasherIiS2_NS_4hashIiEENS_8equal_toIiEELb1EEENS_21__unordered_map_equalIiS2_S7_S5_Lb1EEENS_9allocatorIS2_EEE6key_eqB8ne180100Ev, symObjAddr: 0x3D34, symBinAddr: 0x100017544, symSize: 0x28 }
  - { offset: 0x5E361, size: 0x8, addend: 0x0, symName: __ZNKSt3__121__unordered_map_equalIiNS_17__hash_value_typeIiiEENS_8equal_toIiEENS_4hashIiEELb1EEclB8ne180100ERKS2_RKi, symObjAddr: 0x3D5C, symBinAddr: 0x10001756C, symSize: 0x44 }
  - { offset: 0x5E3A5, size: 0x8, addend: 0x0, symName: __ZNSt3__112__hash_tableINS_17__hash_value_typeIiiEENS_22__unordered_map_hasherIiS2_NS_4hashIiEENS_8equal_toIiEELb1EEENS_21__unordered_map_equalIiS2_S7_S5_Lb1EEENS_9allocatorIS2_EEE21__construct_node_hashIRKNS_21piecewise_construct_tEJNS_5tupleIJRKiEEENSI_IJEEEEEENS_10unique_ptrINS_11__hash_nodeIS2_PvEENS_22__hash_node_destructorINSB_ISQ_EEEEEEmOT_DpOT0_, symObjAddr: 0x3DA0, symBinAddr: 0x1000175B0, symSize: 0x14C }
  - { offset: 0x5E43F, size: 0x8, addend: 0x0, symName: __ZNSt3__112__hash_tableINS_17__hash_value_typeIiiEENS_22__unordered_map_hasherIiS2_NS_4hashIiEENS_8equal_toIiEELb1EEENS_21__unordered_map_equalIiS2_S7_S5_Lb1EEENS_9allocatorIS2_EEE4sizeB8ne180100Ev, symObjAddr: 0x3EEC, symBinAddr: 0x1000176FC, symSize: 0x28 }
  - { offset: 0x5E465, size: 0x8, addend: 0x0, symName: __ZNSt3__112__hash_tableINS_17__hash_value_typeIiiEENS_22__unordered_map_hasherIiS2_NS_4hashIiEENS_8equal_toIiEELb1EEENS_21__unordered_map_equalIiS2_S7_S5_Lb1EEENS_9allocatorIS2_EEE15max_load_factorB8ne180100Ev, symObjAddr: 0x3F14, symBinAddr: 0x100017724, symSize: 0x28 }
  - { offset: 0x5E48B, size: 0x8, addend: 0x0, symName: __ZNSt3__112__hash_tableINS_17__hash_value_typeIiiEENS_22__unordered_map_hasherIiS2_NS_4hashIiEENS_8equal_toIiEELb1EEENS_21__unordered_map_equalIiS2_S7_S5_Lb1EEENS_9allocatorIS2_EEE15__rehash_uniqueB8ne180100Em, symObjAddr: 0x3F3C, symBinAddr: 0x10001774C, symSize: 0x2C }
  - { offset: 0x5E4C0, size: 0x8, addend: 0x0, symName: __ZNSt3__116__hash_node_baseIPNS_11__hash_nodeINS_17__hash_value_typeIiiEEPvEEE5__ptrB8ne180100Ev, symObjAddr: 0x3FF8, symBinAddr: 0x100017778, symSize: 0x24 }
  - { offset: 0x5E4E6, size: 0x8, addend: 0x0, symName: __ZNKSt3__110unique_ptrINS_11__hash_nodeINS_17__hash_value_typeIiiEEPvEENS_22__hash_node_destructorINS_9allocatorIS5_EEEEEptB8ne180100Ev, symObjAddr: 0x401C, symBinAddr: 0x10001779C, symSize: 0x28 }
  - { offset: 0x5E50C, size: 0x8, addend: 0x0, symName: __ZNKSt3__110unique_ptrINS_11__hash_nodeINS_17__hash_value_typeIiiEEPvEENS_22__hash_node_destructorINS_9allocatorIS5_EEEEE3getB8ne180100Ev, symObjAddr: 0x4044, symBinAddr: 0x1000177C4, symSize: 0x28 }
  - { offset: 0x5E532, size: 0x8, addend: 0x0, symName: __ZNSt3__110unique_ptrINS_11__hash_nodeINS_17__hash_value_typeIiiEEPvEENS_22__hash_node_destructorINS_9allocatorIS5_EEEEE7releaseB8ne180100Ev, symObjAddr: 0x406C, symBinAddr: 0x1000177EC, symSize: 0x44 }
  - { offset: 0x5E567, size: 0x8, addend: 0x0, symName: __ZNSt3__110unique_ptrINS_11__hash_nodeINS_17__hash_value_typeIiiEEPvEENS_22__hash_node_destructorINS_9allocatorIS5_EEEEED1B8ne180100Ev, symObjAddr: 0x40B0, symBinAddr: 0x100017830, symSize: 0x2C }
  - { offset: 0x5E591, size: 0x8, addend: 0x0, symName: __ZNSt3__115__hash_iteratorIPNS_11__hash_nodeINS_17__hash_value_typeIiiEEPvEEEC1B8ne180100EPNS_16__hash_node_baseIS6_EE, symObjAddr: 0x40DC, symBinAddr: 0x10001785C, symSize: 0x34 }
  - { offset: 0x5E5D6, size: 0x8, addend: 0x0, symName: __ZNSt3__14pairINS_15__hash_iteratorIPNS_11__hash_nodeINS_17__hash_value_typeIiiEEPvEEEEbEC1B8ne180100IS8_RbTnNS_9enable_ifIXclsr10_CheckArgsE17__enable_implicitIT_T0_EEEiE4typeELi0EEEOSD_OSE_, symObjAddr: 0x4110, symBinAddr: 0x100017890, symSize: 0x3C }
  - { offset: 0x5E634, size: 0x8, addend: 0x0, symName: __ZNSt3__117__compressed_pairImNS_22__unordered_map_hasherIiNS_17__hash_value_typeIiiEENS_4hashIiEENS_8equal_toIiEELb1EEEE6secondB8ne180100Ev, symObjAddr: 0x414C, symBinAddr: 0x1000178CC, symSize: 0x24 }
  - { offset: 0x5E65A, size: 0x8, addend: 0x0, symName: __ZNSt3__122__compressed_pair_elemINS_22__unordered_map_hasherIiNS_17__hash_value_typeIiiEENS_4hashIiEENS_8equal_toIiEELb1EEELi1ELb1EE5__getB8ne180100Ev, symObjAddr: 0x4170, symBinAddr: 0x1000178F0, symSize: 0x14 }
  - { offset: 0x5E680, size: 0x8, addend: 0x0, symName: __ZNKSt3__110unique_ptrIA_PNS_16__hash_node_baseIPNS_11__hash_nodeINS_17__hash_value_typeIiiEEPvEEEENS_25__bucket_list_deallocatorINS_9allocatorIS9_EEEEE11get_deleterB8ne180100Ev, symObjAddr: 0x419C, symBinAddr: 0x100017904, symSize: 0x24 }
  - { offset: 0x5E6A6, size: 0x8, addend: 0x0, symName: __ZNKSt3__125__bucket_list_deallocatorINS_9allocatorIPNS_16__hash_node_baseIPNS_11__hash_nodeINS_17__hash_value_typeIiiEEPvEEEEEEE4sizeB8ne180100Ev, symObjAddr: 0x41C0, symBinAddr: 0x100017928, symSize: 0x28 }
  - { offset: 0x5E6CC, size: 0x8, addend: 0x0, symName: __ZNKSt3__117__compressed_pairIPPNS_16__hash_node_baseIPNS_11__hash_nodeINS_17__hash_value_typeIiiEEPvEEEENS_25__bucket_list_deallocatorINS_9allocatorIS9_EEEEE6secondB8ne180100Ev, symObjAddr: 0x41E8, symBinAddr: 0x100017950, symSize: 0x28 }
  - { offset: 0x5E6F2, size: 0x8, addend: 0x0, symName: __ZNKSt3__122__compressed_pair_elemINS_25__bucket_list_deallocatorINS_9allocatorIPNS_16__hash_node_baseIPNS_11__hash_nodeINS_17__hash_value_typeIiiEEPvEEEEEEEELi1ELb0EE5__getB8ne180100Ev, symObjAddr: 0x4210, symBinAddr: 0x100017978, symSize: 0x14 }
  - { offset: 0x5E718, size: 0x8, addend: 0x0, symName: __ZNKSt3__117__compressed_pairImNS_9allocatorIPNS_16__hash_node_baseIPNS_11__hash_nodeINS_17__hash_value_typeIiiEEPvEEEEEEE5firstB8ne180100Ev, symObjAddr: 0x4224, symBinAddr: 0x10001798C, symSize: 0x24 }
  - { offset: 0x5E73E, size: 0x8, addend: 0x0, symName: __ZNKSt3__117__compressed_pairIPPNS_16__hash_node_baseIPNS_11__hash_nodeINS_17__hash_value_typeIiiEEPvEEEENS_25__bucket_list_deallocatorINS_9allocatorIS9_EEEEE5firstB8ne180100Ev, symObjAddr: 0x425C, symBinAddr: 0x1000179B0, symSize: 0x24 }
  - { offset: 0x5E764, size: 0x8, addend: 0x0, symName: __ZNKSt3__122__compressed_pair_elemIPPNS_16__hash_node_baseIPNS_11__hash_nodeINS_17__hash_value_typeIiiEEPvEEEELi0ELb0EE5__getB8ne180100Ev, symObjAddr: 0x4280, symBinAddr: 0x1000179D4, symSize: 0x14 }
  - { offset: 0x5E78A, size: 0x8, addend: 0x0, symName: __ZNSt3__117__compressed_pairIfNS_21__unordered_map_equalIiNS_17__hash_value_typeIiiEENS_8equal_toIiEENS_4hashIiEELb1EEEE6secondB8ne180100Ev, symObjAddr: 0x4294, symBinAddr: 0x1000179E8, symSize: 0x24 }
  - { offset: 0x5E7B0, size: 0x8, addend: 0x0, symName: __ZNSt3__122__compressed_pair_elemINS_21__unordered_map_equalIiNS_17__hash_value_typeIiiEENS_8equal_toIiEENS_4hashIiEELb1EEELi1ELb1EE5__getB8ne180100Ev, symObjAddr: 0x42B8, symBinAddr: 0x100017A0C, symSize: 0x14 }
  - { offset: 0x5E7D6, size: 0x8, addend: 0x0, symName: __ZNKSt3__117__hash_value_typeIiiE11__get_valueB8ne180100Ev, symObjAddr: 0x42FC, symBinAddr: 0x100017A20, symSize: 0x14 }
  - { offset: 0x5E7FC, size: 0x8, addend: 0x0, symName: __ZNSt3__116allocator_traitsINS_9allocatorINS_11__hash_nodeINS_17__hash_value_typeIiiEEPvEEEEE8allocateB8ne180100ERS7_m, symObjAddr: 0x4310, symBinAddr: 0x100017A34, symSize: 0x2C }
  - { offset: 0x5E82F, size: 0x8, addend: 0x0, symName: __ZNSt3__122__hash_node_destructorINS_9allocatorINS_11__hash_nodeINS_17__hash_value_typeIiiEEPvEEEEEC1B8ne180100ERS7_b, symObjAddr: 0x433C, symBinAddr: 0x100017A60, symSize: 0x40 }
  - { offset: 0x5E87D, size: 0x8, addend: 0x0, symName: __ZNSt3__110unique_ptrINS_11__hash_nodeINS_17__hash_value_typeIiiEEPvEENS_22__hash_node_destructorINS_9allocatorIS5_EEEEEC1B8ne180100ILb1EvEEPS5_NS_16__dependent_typeINS_27__unique_ptr_deleter_sfinaeIS9_EEXT_EE20__good_rval_ref_typeE, symObjAddr: 0x437C, symBinAddr: 0x100017AA0, symSize: 0x3C }
  - { offset: 0x5E8CE, size: 0x8, addend: 0x0, symName: __ZNKSt3__110unique_ptrINS_11__hash_nodeINS_17__hash_value_typeIiiEEPvEENS_22__hash_node_destructorINS_9allocatorIS5_EEEEEdeB8ne180100Ev, symObjAddr: 0x4400, symBinAddr: 0x100017B24, symSize: 0x28 }
  - { offset: 0x5E8F4, size: 0x8, addend: 0x0, symName: __ZNSt3__116allocator_traitsINS_9allocatorINS_11__hash_nodeINS_17__hash_value_typeIiiEEPvEEEEE9constructB8ne180100INS_4pairIKiiEEJRKNS_21piecewise_construct_tENS_5tupleIJRSB_EEENSG_IJEEEEvEEvRS7_PT_DpOT0_, symObjAddr: 0x4428, symBinAddr: 0x100017B4C, symSize: 0x44 }
  - { offset: 0x5E973, size: 0x8, addend: 0x0, symName: __ZNSt3__110unique_ptrINS_11__hash_nodeINS_17__hash_value_typeIiiEEPvEENS_22__hash_node_destructorINS_9allocatorIS5_EEEEE11get_deleterB8ne180100Ev, symObjAddr: 0x446C, symBinAddr: 0x100017B90, symSize: 0x24 }
  - { offset: 0x5E999, size: 0x8, addend: 0x0, symName: __ZNSt3__19allocatorINS_11__hash_nodeINS_17__hash_value_typeIiiEEPvEEE8allocateB8ne180100Em, symObjAddr: 0x4490, symBinAddr: 0x100017BB4, symSize: 0x58 }
  - { offset: 0x5E9D8, size: 0x8, addend: 0x0, symName: __ZNSt3__116allocator_traitsINS_9allocatorINS_11__hash_nodeINS_17__hash_value_typeIiiEEPvEEEEE8max_sizeB8ne180100IS7_vEEmRKS7_, symObjAddr: 0x44E8, symBinAddr: 0x100017C0C, symSize: 0x24 }
  - { offset: 0x5EA06, size: 0x8, addend: 0x0, symName: __ZNKSt3__19allocatorINS_11__hash_nodeINS_17__hash_value_typeIiiEEPvEEE8max_sizeB8ne180100Ev, symObjAddr: 0x4568, symBinAddr: 0x100017C30, symSize: 0x18 }
  - { offset: 0x5EA2C, size: 0x8, addend: 0x0, symName: __ZNSt3__122__hash_node_destructorINS_9allocatorINS_11__hash_nodeINS_17__hash_value_typeIiiEEPvEEEEEC2B8ne180100ERS7_b, symObjAddr: 0x45A4, symBinAddr: 0x100017C48, symSize: 0x30 }
  - { offset: 0x5EA74, size: 0x8, addend: 0x0, symName: __ZNSt3__110unique_ptrINS_11__hash_nodeINS_17__hash_value_typeIiiEEPvEENS_22__hash_node_destructorINS_9allocatorIS5_EEEEEC2B8ne180100ILb1EvEEPS5_NS_16__dependent_typeINS_27__unique_ptr_deleter_sfinaeIS9_EEXT_EE20__good_rval_ref_typeE, symObjAddr: 0x45D4, symBinAddr: 0x100017C78, symSize: 0x48 }
  - { offset: 0x5EAC5, size: 0x8, addend: 0x0, symName: __ZNSt3__117__compressed_pairIPNS_11__hash_nodeINS_17__hash_value_typeIiiEEPvEENS_22__hash_node_destructorINS_9allocatorIS5_EEEEEC1B8ne180100IRS6_SA_EEOT_OT0_, symObjAddr: 0x461C, symBinAddr: 0x100017CC0, symSize: 0x3C }
  - { offset: 0x5EB1D, size: 0x8, addend: 0x0, symName: __ZNSt3__117__compressed_pairIPNS_11__hash_nodeINS_17__hash_value_typeIiiEEPvEENS_22__hash_node_destructorINS_9allocatorIS5_EEEEEC2B8ne180100IRS6_SA_EEOT_OT0_, symObjAddr: 0x4658, symBinAddr: 0x100017CFC, symSize: 0x48 }
  - { offset: 0x5EB75, size: 0x8, addend: 0x0, symName: __ZNSt3__122__compressed_pair_elemIPNS_11__hash_nodeINS_17__hash_value_typeIiiEEPvEELi0ELb0EEC2B8ne180100IRS6_vEEOT_, symObjAddr: 0x46A0, symBinAddr: 0x100017D44, symSize: 0x24 }
  - { offset: 0x5EBB7, size: 0x8, addend: 0x0, symName: __ZNSt3__122__compressed_pair_elemINS_22__hash_node_destructorINS_9allocatorINS_11__hash_nodeINS_17__hash_value_typeIiiEEPvEEEEEELi1ELb0EEC2B8ne180100IS9_vEEOT_, symObjAddr: 0x46C4, symBinAddr: 0x100017D68, symSize: 0x24 }
  - { offset: 0x5EBF9, size: 0x8, addend: 0x0, symName: __ZNSt3__111__hash_nodeINS_17__hash_value_typeIiiEEPvEC1B8ne180100EPNS_16__hash_node_baseIPS4_EEm, symObjAddr: 0x46E8, symBinAddr: 0x100017D8C, symSize: 0x3C }
  - { offset: 0x5EC3F, size: 0x8, addend: 0x0, symName: __ZNSt3__111__hash_nodeINS_17__hash_value_typeIiiEEPvEC2B8ne180100EPNS_16__hash_node_baseIPS4_EEm, symObjAddr: 0x4724, symBinAddr: 0x100017DC8, symSize: 0x40 }
  - { offset: 0x5EC85, size: 0x8, addend: 0x0, symName: __ZNSt3__116__hash_node_baseIPNS_11__hash_nodeINS_17__hash_value_typeIiiEEPvEEEC2B8ne180100EPS7_, symObjAddr: 0x4764, symBinAddr: 0x100017E08, symSize: 0x20 }
  - { offset: 0x5ECBD, size: 0x8, addend: 0x0, symName: __ZNKSt3__117__compressed_pairIPNS_11__hash_nodeINS_17__hash_value_typeIiiEEPvEENS_22__hash_node_destructorINS_9allocatorIS5_EEEEE5firstB8ne180100Ev, symObjAddr: 0x4784, symBinAddr: 0x100017E28, symSize: 0x24 }
  - { offset: 0x5ECE3, size: 0x8, addend: 0x0, symName: __ZNKSt3__122__compressed_pair_elemIPNS_11__hash_nodeINS_17__hash_value_typeIiiEEPvEELi0ELb0EE5__getB8ne180100Ev, symObjAddr: 0x47A8, symBinAddr: 0x100017E4C, symSize: 0x14 }
  - { offset: 0x5ED09, size: 0x8, addend: 0x0, symName: __ZNSt3__19allocatorINS_11__hash_nodeINS_17__hash_value_typeIiiEEPvEEE9constructB8ne180100INS_4pairIKiiEEJRKNS_21piecewise_construct_tENS_5tupleIJRS9_EEENSE_IJEEEEEEvPT_DpOT0_, symObjAddr: 0x47BC, symBinAddr: 0x100017E60, symSize: 0x44 }
  - { offset: 0x5ED85, size: 0x8, addend: 0x0, symName: __ZNSt3__14pairIKiiEC1B8ne180100IJRS1_EJEEENS_21piecewise_construct_tENS_5tupleIJDpT_EEENS6_IJDpT0_EEE, symObjAddr: 0x4800, symBinAddr: 0x100017EA4, symSize: 0x44 }
  - { offset: 0x5EDEC, size: 0x8, addend: 0x0, symName: __ZNSt3__14pairIKiiEC1B8ne180100IJRS1_EJEJLm0EETpTnmJEEENS_21piecewise_construct_tERNS_5tupleIJDpT_EEERNS6_IJDpT0_EEENS_15__tuple_indicesIJXspT1_EEEENSF_IJXspT2_EEEE, symObjAddr: 0x4844, symBinAddr: 0x100017EE8, symSize: 0x3C }
  - { offset: 0x5EE76, size: 0x8, addend: 0x0, symName: __ZNSt3__14pairIKiiEC2B8ne180100IJRS1_EJEJLm0EETpTnmJEEENS_21piecewise_construct_tERNS_5tupleIJDpT_EEERNS6_IJDpT0_EEENS_15__tuple_indicesIJXspT1_EEEENSF_IJXspT2_EEEE, symObjAddr: 0x4880, symBinAddr: 0x100017F24, symSize: 0x48 }
  - { offset: 0x5EF00, size: 0x8, addend: 0x0, symName: __ZNSt3__112__tuple_leafILm0ERKiLb0EE3getB8ne180100Ev, symObjAddr: 0x48EC, symBinAddr: 0x100017F90, symSize: 0x18 }
  - { offset: 0x5EF26, size: 0x8, addend: 0x0, symName: __ZNSt3__117__compressed_pairIPNS_11__hash_nodeINS_17__hash_value_typeIiiEEPvEENS_22__hash_node_destructorINS_9allocatorIS5_EEEEE6secondB8ne180100Ev, symObjAddr: 0x4904, symBinAddr: 0x100017FA8, symSize: 0x28 }
  - { offset: 0x5EF4C, size: 0x8, addend: 0x0, symName: __ZNSt3__122__compressed_pair_elemINS_22__hash_node_destructorINS_9allocatorINS_11__hash_nodeINS_17__hash_value_typeIiiEEPvEEEEEELi1ELb0EE5__getB8ne180100Ev, symObjAddr: 0x492C, symBinAddr: 0x100017FD0, symSize: 0x14 }
  - { offset: 0x5EF72, size: 0x8, addend: 0x0, symName: __ZNSt3__117__compressed_pairImNS_22__unordered_map_hasherIiNS_17__hash_value_typeIiiEENS_4hashIiEENS_8equal_toIiEELb1EEEE5firstB8ne180100Ev, symObjAddr: 0x4940, symBinAddr: 0x100017FE4, symSize: 0x24 }
  - { offset: 0x5EF98, size: 0x8, addend: 0x0, symName: __ZNSt3__117__compressed_pairIfNS_21__unordered_map_equalIiNS_17__hash_value_typeIiiEENS_8equal_toIiEENS_4hashIiEELb1EEEE5firstB8ne180100Ev, symObjAddr: 0x4964, symBinAddr: 0x100018008, symSize: 0x24 }
  - { offset: 0x5EFBE, size: 0x8, addend: 0x0, symName: __ZNSt3__112__hash_tableINS_17__hash_value_typeIiiEENS_22__unordered_map_hasherIiS2_NS_4hashIiEENS_8equal_toIiEELb1EEENS_21__unordered_map_equalIiS2_S7_S5_Lb1EEENS_9allocatorIS2_EEE8__rehashILb1EEEvm, symObjAddr: 0x499C, symBinAddr: 0x10001802C, symSize: 0x194 }
  - { offset: 0x5F00C, size: 0x8, addend: 0x0, symName: __ZNSt3__112__hash_tableINS_17__hash_value_typeIiiEENS_22__unordered_map_hasherIiS2_NS_4hashIiEENS_8equal_toIiEELb1EEENS_21__unordered_map_equalIiS2_S7_S5_Lb1EEENS_9allocatorIS2_EEE11__do_rehashILb1EEEvm, symObjAddr: 0x4B30, symBinAddr: 0x1000181C0, symSize: 0x260 }
  - { offset: 0x5F0ED, size: 0x8, addend: 0x0, symName: __ZNSt3__110unique_ptrIA_PNS_16__hash_node_baseIPNS_11__hash_nodeINS_17__hash_value_typeIiiEEPvEEEENS_25__bucket_list_deallocatorINS_9allocatorIS9_EEEEE11get_deleterB8ne180100Ev, symObjAddr: 0x4DF8, symBinAddr: 0x100018420, symSize: 0x24 }
  - { offset: 0x5F113, size: 0x8, addend: 0x0, symName: __ZNSt3__110unique_ptrIA_PNS_16__hash_node_baseIPNS_11__hash_nodeINS_17__hash_value_typeIiiEEPvEEEENS_25__bucket_list_deallocatorINS_9allocatorIS9_EEEEE5resetB8ne180100IPS9_TnNS_9enable_ifIXsr28_CheckArrayPointerConversionIT_EE5valueEiE4typeELi0EEEvSJ_, symObjAddr: 0x4E1C, symBinAddr: 0x100018444, symSize: 0x70 }
  - { offset: 0x5F166, size: 0x8, addend: 0x0, symName: __ZNSt3__116allocator_traitsINS_9allocatorIPNS_16__hash_node_baseIPNS_11__hash_nodeINS_17__hash_value_typeIiiEEPvEEEEEEE8allocateB8ne180100ERSB_m, symObjAddr: 0x4E8C, symBinAddr: 0x1000184B4, symSize: 0x2C }
  - { offset: 0x5F199, size: 0x8, addend: 0x0, symName: __ZNSt3__19allocatorIPNS_16__hash_node_baseIPNS_11__hash_nodeINS_17__hash_value_typeIiiEEPvEEEEE8allocateB8ne180100Em, symObjAddr: 0x4EB8, symBinAddr: 0x1000184E0, symSize: 0x54 }
  - { offset: 0x5F1D8, size: 0x8, addend: 0x0, symName: __ZNSt3__116allocator_traitsINS_9allocatorIPNS_16__hash_node_baseIPNS_11__hash_nodeINS_17__hash_value_typeIiiEEPvEEEEEEE8max_sizeB8ne180100ISB_vEEmRKSB_, symObjAddr: 0x4F0C, symBinAddr: 0x100018534, symSize: 0x24 }
  - { offset: 0x5F206, size: 0x8, addend: 0x0, symName: __ZNKSt3__19allocatorIPNS_16__hash_node_baseIPNS_11__hash_nodeINS_17__hash_value_typeIiiEEPvEEEEE8max_sizeB8ne180100Ev, symObjAddr: 0x4F30, symBinAddr: 0x100018558, symSize: 0x14 }
  - { offset: 0x5F236, size: 0x8, addend: 0x0, symName: __ZNSt3__117__compressed_pairIPNS_11__hash_nodeINS_17__hash_value_typeIiiEEPvEENS_22__hash_node_destructorINS_9allocatorIS5_EEEEE5firstB8ne180100Ev, symObjAddr: 0x4FE4, symBinAddr: 0x10001856C, symSize: 0x24 }
  - { offset: 0x5F25C, size: 0x8, addend: 0x0, symName: __ZNSt3__122__compressed_pair_elemIPNS_11__hash_nodeINS_17__hash_value_typeIiiEEPvEELi0ELb0EE5__getB8ne180100Ev, symObjAddr: 0x5008, symBinAddr: 0x100018590, symSize: 0x14 }
  - { offset: 0x5F282, size: 0x8, addend: 0x0, symName: __ZNSt3__110unique_ptrINS_11__hash_nodeINS_17__hash_value_typeIiiEEPvEENS_22__hash_node_destructorINS_9allocatorIS5_EEEEED2B8ne180100Ev, symObjAddr: 0x501C, symBinAddr: 0x1000185A4, symSize: 0x30 }
  - { offset: 0x5F2AC, size: 0x8, addend: 0x0, symName: __ZNSt3__110unique_ptrINS_11__hash_nodeINS_17__hash_value_typeIiiEEPvEENS_22__hash_node_destructorINS_9allocatorIS5_EEEEE5resetB8ne180100EPS5_, symObjAddr: 0x504C, symBinAddr: 0x1000185D4, symSize: 0x70 }
  - { offset: 0x5F2F0, size: 0x8, addend: 0x0, symName: __ZNSt3__122__hash_node_destructorINS_9allocatorINS_11__hash_nodeINS_17__hash_value_typeIiiEEPvEEEEEclB8ne180100EPS6_, symObjAddr: 0x50BC, symBinAddr: 0x100018644, symSize: 0x98 }
  - { offset: 0x5F325, size: 0x8, addend: 0x0, symName: __ZNSt3__115__hash_iteratorIPNS_11__hash_nodeINS_17__hash_value_typeIiiEEPvEEEC2B8ne180100EPNS_16__hash_node_baseIS6_EE, symObjAddr: 0x5154, symBinAddr: 0x1000186DC, symSize: 0x20 }
  - { offset: 0x5F35E, size: 0x8, addend: 0x0, symName: __ZNSt3__14pairINS_15__hash_iteratorIPNS_11__hash_nodeINS_17__hash_value_typeIiiEEPvEEEEbEC2B8ne180100IS8_RbTnNS_9enable_ifIXclsr10_CheckArgsE17__enable_implicitIT_T0_EEEiE4typeELi0EEEOSD_OSE_, symObjAddr: 0x5174, symBinAddr: 0x1000186FC, symSize: 0x38 }
  - { offset: 0x5F3BC, size: 0x8, addend: 0x0, symName: __ZNSt3__15tupleIJRKiEEC1B8ne180100INS_4_AndETnNS_9enable_ifIXsrT_IJNS_17integral_constantIbLb1EEENS_21is_copy_constructibleIS2_EEEE5valueEiE4typeELi0EEES2_, symObjAddr: 0x51AC, symBinAddr: 0x100018734, symSize: 0x34 }
  - { offset: 0x5F404, size: 0x8, addend: 0x0, symName: __ZNSt3__15tupleIJRKiEEC2B8ne180100INS_4_AndETnNS_9enable_ifIXsrT_IJNS_17integral_constantIbLb1EEENS_21is_copy_constructibleIS2_EEEE5valueEiE4typeELi0EEES2_, symObjAddr: 0x51E0, symBinAddr: 0x100018768, symSize: 0x34 }
  - { offset: 0x5F44C, size: 0x8, addend: 0x0, symName: __ZNSt3__112__tuple_implINS_15__tuple_indicesIJLm0EEEEJRKiEEC1B8ne180100IJLm0EEJS4_ETpTnmJEJEJS4_EEENS1_IJXspT_EEEENS_13__tuple_typesIJDpT0_EEENS1_IJXspT1_EEEENS8_IJDpT2_EEEDpOT3_, symObjAddr: 0x5214, symBinAddr: 0x10001879C, symSize: 0x34 }
  - { offset: 0x5F4DD, size: 0x8, addend: 0x0, symName: __ZNSt3__112__tuple_implINS_15__tuple_indicesIJLm0EEEEJRKiEEC2B8ne180100IJLm0EEJS4_ETpTnmJEJEJS4_EEENS1_IJXspT_EEEENS_13__tuple_typesIJDpT0_EEENS1_IJXspT1_EEEENS8_IJDpT2_EEEDpOT3_, symObjAddr: 0x5248, symBinAddr: 0x1000187D0, symSize: 0x34 }
  - { offset: 0x5F56E, size: 0x8, addend: 0x0, symName: __ZNSt3__112__tuple_leafILm0ERKiLb0EEC2B8ne180100IS2_vEEOT_, symObjAddr: 0x527C, symBinAddr: 0x100018804, symSize: 0x20 }
  - { offset: 0x5F5B1, size: 0x8, addend: 0x0, symName: __ZNSt3__114pointer_traitsIPNS_17__hash_value_typeIiiEEE10pointer_toB8ne180100ERS2_, symObjAddr: 0x529C, symBinAddr: 0x100018824, symSize: 0x14 }
  - { offset: 0x5F5D4, size: 0x8, addend: 0x0, symName: __ZNSt3__112__hash_tableINS_17__hash_value_typeIiiEENS_22__unordered_map_hasherIiS2_NS_4hashIiEENS_8equal_toIiEELb1EEENS_21__unordered_map_equalIiS2_S7_S5_Lb1EEENS_9allocatorIS2_EEE4findIiEENS_15__hash_iteratorIPNS_11__hash_nodeIS2_PvEEEERKT_, symObjAddr: 0x52B0, symBinAddr: 0x100018838, symSize: 0x190 }
  - { offset: 0x5F65C, size: 0x8, addend: 0x0, symName: __ZNSt3__119__hash_map_iteratorINS_15__hash_iteratorIPNS_11__hash_nodeINS_17__hash_value_typeIiiEEPvEEEEEC1B8ne180100ES8_, symObjAddr: 0x5440, symBinAddr: 0x1000189C8, symSize: 0x34 }
  - { offset: 0x5F695, size: 0x8, addend: 0x0, symName: __ZNSt3__112__hash_tableINS_17__hash_value_typeIiiEENS_22__unordered_map_hasherIiS2_NS_4hashIiEENS_8equal_toIiEELb1EEENS_21__unordered_map_equalIiS2_S7_S5_Lb1EEENS_9allocatorIS2_EEE3endEv, symObjAddr: 0x5474, symBinAddr: 0x1000189FC, symSize: 0x2C }
  - { offset: 0x5F6BD, size: 0x8, addend: 0x0, symName: __ZNSt3__119__hash_map_iteratorINS_15__hash_iteratorIPNS_11__hash_nodeINS_17__hash_value_typeIiiEEPvEEEEEC2B8ne180100ES8_, symObjAddr: 0x54A0, symBinAddr: 0x100018A28, symSize: 0x20 }
  - { offset: 0x5F6F6, size: 0x8, addend: 0x0, symName: __ZNSt3__114pointer_traitsIPNS_4pairIKiiEEE10pointer_toB8ne180100ERS3_, symObjAddr: 0x54EC, symBinAddr: 0x100018A74, symSize: 0x14 }
  - { offset: 0x5F739, size: 0x8, addend: 0x0, symName: '__ZZ19sample_token_greedyP20OPT_token_data_arrayENK3$_0clERK14OPT_token_dataS4_', symObjAddr: 0x5594, symBinAddr: 0x100018B1C, symSize: 0x30 }
  - { offset: 0x5F789, size: 0x8, addend: 0x0, symName: '__ZZ14sample_softmaxP20OPT_token_data_arrayENK3$_0clERK14OPT_token_dataS4_', symObjAddr: 0x5BB4, symBinAddr: 0x10001913C, symSize: 0x30 }
  - { offset: 0x5F7CF, size: 0x8, addend: 0x0, symName: __ZNSt3__18_IterOpsINS_17_ClassicAlgPolicyEE9iter_swapB8ne180100IRP14OPT_token_dataS6_EEvOT_OT0_, symObjAddr: 0x5BE4, symBinAddr: 0x10001916C, symSize: 0x34 }
  - { offset: 0x5F818, size: 0x8, addend: 0x0, symName: __ZNSt3__18_IterOpsINS_17_ClassicAlgPolicyEE9iter_swapB8ne180100IRP14OPT_token_dataS5_EEvOT_OT0_, symObjAddr: 0x6144, symBinAddr: 0x1000196CC, symSize: 0x34 }
  - { offset: 0x5F861, size: 0x8, addend: 0x0, symName: __ZNSt3__18_IterOpsINS_17_ClassicAlgPolicyEE11__iter_moveB8ne180100IRP14OPT_token_dataTnNS_9enable_ifIXsr12is_referenceIDTdeclsr3stdE7declvalIRT_EEEEE5valueEiE4typeELi0EEEDTclsr3stdE4movedeclsr3stdE7declvalIS9_EEEEOS8_, symObjAddr: 0x6E00, symBinAddr: 0x10001A388, symSize: 0x28 }
  - { offset: 0x5F893, size: 0x8, addend: 0x0, symName: __ZNSt3__18_IterOpsINS_17_ClassicAlgPolicyEE25__validate_iter_referenceB8ne180100IRP14OPT_token_dataEEvv, symObjAddr: 0x6E28, symBinAddr: 0x10001A3B0, symSize: 0x4 }
  - { offset: 0x5F8B1, size: 0x8, addend: 0x0, symName: __ZNSt3__18_IterOpsINS_17_ClassicAlgPolicyEE4nextB8ne180100IP14OPT_token_dataEET_S6_S6_, symObjAddr: 0x6E2C, symBinAddr: 0x10001A3B4, symSize: 0x18 }
  - { offset: 0x5F8E7, size: 0x8, addend: 0x0, symName: __ZNSt3__18_IterOpsINS_17_ClassicAlgPolicyEE9iter_swapB8ne180100IP14OPT_token_dataS5_EEvOT_OT0_, symObjAddr: 0x7D38, symBinAddr: 0x10001B2C0, symSize: 0x34 }
  - { offset: 0x5F946, size: 0x8, addend: 0x0, symName: __ZNSt3__14pairIP14OPT_token_databEC1B8ne180100IRS2_RbTnNS_9enable_ifIXclsr10_CheckArgsE17__enable_implicitIT_T0_EEEiE4typeELi0EEEOS8_OS9_, symObjAddr: 0x7D88, symBinAddr: 0x10001B310, symSize: 0x3C }
  - { offset: 0x5F9A4, size: 0x8, addend: 0x0, symName: __ZNSt3__14pairIP14OPT_token_databEC2B8ne180100IRS2_RbTnNS_9enable_ifIXclsr10_CheckArgsE17__enable_implicitIT_T0_EEEiE4typeELi0EEEOS8_OS9_, symObjAddr: 0x7DC4, symBinAddr: 0x10001B34C, symSize: 0x38 }
  - { offset: 0x5FA02, size: 0x8, addend: 0x0, symName: __ZNSt3__118__unwrap_iter_implIP14OPT_token_dataLb1EE8__unwrapB8ne180100ES2_, symObjAddr: 0x7DFC, symBinAddr: 0x10001B384, symSize: 0x24 }
  - { offset: 0x5FA25, size: 0x8, addend: 0x0, symName: __ZNSt3__16vectorIfNS_9allocatorIfEEEC2B8ne180100Ev, symObjAddr: 0x7E34, symBinAddr: 0x10001B3BC, symSize: 0x4C }
  - { offset: 0x5FA55, size: 0x8, addend: 0x0, symName: __ZNSt3__117__compressed_pairIPfNS_9allocatorIfEEEC1B8ne180100IDnNS_18__default_init_tagEEEOT_OT0_, symObjAddr: 0x7E80, symBinAddr: 0x10001B408, symSize: 0x3C }
  - { offset: 0x5FAAD, size: 0x8, addend: 0x0, symName: __ZNSt3__117__compressed_pairIPfNS_9allocatorIfEEEC2B8ne180100IDnNS_18__default_init_tagEEEOT_OT0_, symObjAddr: 0x7EBC, symBinAddr: 0x10001B444, symSize: 0x40 }
  - { offset: 0x5FB05, size: 0x8, addend: 0x0, symName: __ZNSt3__122__compressed_pair_elemIPfLi0ELb0EEC2B8ne180100IDnvEEOT_, symObjAddr: 0x7EFC, symBinAddr: 0x10001B484, symSize: 0x1C }
  - { offset: 0x5FB47, size: 0x8, addend: 0x0, symName: __ZNSt3__122__compressed_pair_elemINS_9allocatorIfEELi1ELb1EEC2B8ne180100ENS_18__default_init_tagE, symObjAddr: 0x7F18, symBinAddr: 0x10001B4A0, symSize: 0x2C }
  - { offset: 0x5FB7B, size: 0x8, addend: 0x0, symName: __ZNSt3__19allocatorIfEC2B8ne180100Ev, symObjAddr: 0x7F44, symBinAddr: 0x10001B4CC, symSize: 0x2C }
  - { offset: 0x5FBA5, size: 0x8, addend: 0x0, symName: __ZNSt3__116__non_trivial_ifILb1ENS_9allocatorIfEEEC2B8ne180100Ev, symObjAddr: 0x7F70, symBinAddr: 0x10001B4F8, symSize: 0x14 }
  - { offset: 0x5FBCF, size: 0x8, addend: 0x0, symName: __ZNSt3__16vectorIfNS_9allocatorIfEEED2B8ne180100Ev, symObjAddr: 0x7F84, symBinAddr: 0x10001B50C, symSize: 0x44 }
  - { offset: 0x5FBF9, size: 0x8, addend: 0x0, symName: __ZNSt3__16vectorIfNS_9allocatorIfEEE16__destroy_vectorC1B8ne180100ERS3_, symObjAddr: 0x7FC8, symBinAddr: 0x10001B550, symSize: 0x34 }
  - { offset: 0x5FC32, size: 0x8, addend: 0x0, symName: __ZNSt3__16vectorIfNS_9allocatorIfEEE16__destroy_vectorclB8ne180100Ev, symObjAddr: 0x7FFC, symBinAddr: 0x10001B584, symSize: 0x88 }
  - { offset: 0x5FC58, size: 0x8, addend: 0x0, symName: __ZNSt3__16vectorIfNS_9allocatorIfEEE16__destroy_vectorC2B8ne180100ERS3_, symObjAddr: 0x8084, symBinAddr: 0x10001B60C, symSize: 0x20 }
  - { offset: 0x5FC91, size: 0x8, addend: 0x0, symName: __ZNSt3__16vectorIfNS_9allocatorIfEEE7__clearB8ne180100Ev, symObjAddr: 0x80A4, symBinAddr: 0x10001B62C, symSize: 0x28 }
  - { offset: 0x5FCB7, size: 0x8, addend: 0x0, symName: __ZNKSt3__16vectorIfNS_9allocatorIfEEE17__annotate_deleteB8ne180100Ev, symObjAddr: 0x80CC, symBinAddr: 0x10001B654, symSize: 0x10 }
  - { offset: 0x5FCDD, size: 0x8, addend: 0x0, symName: __ZNSt3__116allocator_traitsINS_9allocatorIfEEE10deallocateB8ne180100ERS2_Pfm, symObjAddr: 0x80DC, symBinAddr: 0x10001B664, symSize: 0x34 }
  - { offset: 0x5FD1F, size: 0x8, addend: 0x0, symName: __ZNSt3__16vectorIfNS_9allocatorIfEEE7__allocB8ne180100Ev, symObjAddr: 0x8110, symBinAddr: 0x10001B698, symSize: 0x28 }
  - { offset: 0x5FD45, size: 0x8, addend: 0x0, symName: __ZNKSt3__16vectorIfNS_9allocatorIfEEE8capacityB8ne180100Ev, symObjAddr: 0x8138, symBinAddr: 0x10001B6C0, symSize: 0x40 }
  - { offset: 0x5FD6B, size: 0x8, addend: 0x0, symName: __ZNSt3__16vectorIfNS_9allocatorIfEEE22__base_destruct_at_endB8ne180100EPf, symObjAddr: 0x8178, symBinAddr: 0x10001B700, symSize: 0x88 }
  - { offset: 0x5FDAF, size: 0x8, addend: 0x0, symName: __ZNSt3__116allocator_traitsINS_9allocatorIfEEE7destroyB8ne180100IfvEEvRS2_PT_, symObjAddr: 0x8200, symBinAddr: 0x10001B788, symSize: 0x2C }
  - { offset: 0x5FDEC, size: 0x8, addend: 0x0, symName: __ZNSt3__19allocatorIfE7destroyB8ne180100EPf, symObjAddr: 0x8240, symBinAddr: 0x10001B7C8, symSize: 0x14 }
  - { offset: 0x5FE20, size: 0x8, addend: 0x0, symName: __ZNSt3__19allocatorIfE10deallocateB8ne180100EPfm, symObjAddr: 0x8254, symBinAddr: 0x10001B7DC, symSize: 0x40 }
  - { offset: 0x5FE62, size: 0x8, addend: 0x0, symName: __ZNSt3__117__compressed_pairIPfNS_9allocatorIfEEE6secondB8ne180100Ev, symObjAddr: 0x8294, symBinAddr: 0x10001B81C, symSize: 0x24 }
  - { offset: 0x5FE88, size: 0x8, addend: 0x0, symName: __ZNSt3__122__compressed_pair_elemINS_9allocatorIfEELi1ELb1EE5__getB8ne180100Ev, symObjAddr: 0x82B8, symBinAddr: 0x10001B840, symSize: 0x14 }
  - { offset: 0x5FEAE, size: 0x8, addend: 0x0, symName: __ZNKSt3__16vectorIfNS_9allocatorIfEEE9__end_capB8ne180100Ev, symObjAddr: 0x82CC, symBinAddr: 0x10001B854, symSize: 0x28 }
  - { offset: 0x5FED4, size: 0x8, addend: 0x0, symName: __ZNKSt3__117__compressed_pairIPfNS_9allocatorIfEEE5firstB8ne180100Ev, symObjAddr: 0x82F4, symBinAddr: 0x10001B87C, symSize: 0x24 }
  - { offset: 0x5FEFA, size: 0x8, addend: 0x0, symName: __ZNKSt3__122__compressed_pair_elemIPfLi0ELb0EE5__getB8ne180100Ev, symObjAddr: 0x8318, symBinAddr: 0x10001B8A0, symSize: 0x14 }
  - { offset: 0x5FF20, size: 0x8, addend: 0x0, symName: __ZNKSt3__16vectorIfNS_9allocatorIfEEE8max_sizeEv, symObjAddr: 0x832C, symBinAddr: 0x10001B8B4, symSize: 0x60 }
  - { offset: 0x5FF48, size: 0x8, addend: 0x0, symName: __ZNKSt3__16vectorIfNS_9allocatorIfEEE20__throw_length_errorB8ne180100Ev, symObjAddr: 0x838C, symBinAddr: 0x10001B914, symSize: 0x1C }
  - { offset: 0x5FF6E, size: 0x8, addend: 0x0, symName: __ZNSt3__114__split_bufferIfRNS_9allocatorIfEEEC1EmmS3_, symObjAddr: 0x83A8, symBinAddr: 0x10001B930, symSize: 0x44 }
  - { offset: 0x5FFC4, size: 0x8, addend: 0x0, symName: __ZNSt3__114__split_bufferIfRNS_9allocatorIfEEED1Ev, symObjAddr: 0x84FC, symBinAddr: 0x10001BA84, symSize: 0x2C }
  - { offset: 0x5FFFB, size: 0x8, addend: 0x0, symName: __ZNSt3__116allocator_traitsINS_9allocatorIfEEE8max_sizeB8ne180100IS2_vEEmRKS2_, symObjAddr: 0x8554, symBinAddr: 0x10001BAB0, symSize: 0x24 }
  - { offset: 0x60029, size: 0x8, addend: 0x0, symName: __ZNKSt3__16vectorIfNS_9allocatorIfEEE7__allocB8ne180100Ev, symObjAddr: 0x8578, symBinAddr: 0x10001BAD4, symSize: 0x28 }
  - { offset: 0x6004F, size: 0x8, addend: 0x0, symName: __ZNKSt3__19allocatorIfE8max_sizeB8ne180100Ev, symObjAddr: 0x8608, symBinAddr: 0x10001BAFC, symSize: 0x14 }
  - { offset: 0x60075, size: 0x8, addend: 0x0, symName: __ZNKSt3__117__compressed_pairIPfNS_9allocatorIfEEE6secondB8ne180100Ev, symObjAddr: 0x861C, symBinAddr: 0x10001BB10, symSize: 0x24 }
  - { offset: 0x6009B, size: 0x8, addend: 0x0, symName: __ZNKSt3__122__compressed_pair_elemINS_9allocatorIfEELi1ELb1EE5__getB8ne180100Ev, symObjAddr: 0x8640, symBinAddr: 0x10001BB34, symSize: 0x14 }
  - { offset: 0x600C1, size: 0x8, addend: 0x0, symName: __ZNSt3__114__split_bufferIfRNS_9allocatorIfEEEC2EmmS3_, symObjAddr: 0x8738, symBinAddr: 0x10001BB48, symSize: 0xCC }
  - { offset: 0x60134, size: 0x8, addend: 0x0, symName: __ZNSt3__117__compressed_pairIPfRNS_9allocatorIfEEEC1B8ne180100IDnS4_EEOT_OT0_, symObjAddr: 0x8804, symBinAddr: 0x10001BC14, symSize: 0x3C }
  - { offset: 0x6018C, size: 0x8, addend: 0x0, symName: __ZNSt3__114__split_bufferIfRNS_9allocatorIfEEE7__allocB8ne180100Ev, symObjAddr: 0x8880, symBinAddr: 0x10001BC90, symSize: 0x28 }
  - { offset: 0x601B2, size: 0x8, addend: 0x0, symName: __ZNSt3__114__split_bufferIfRNS_9allocatorIfEEE9__end_capB8ne180100Ev, symObjAddr: 0x88A8, symBinAddr: 0x10001BCB8, symSize: 0x28 }
  - { offset: 0x601D8, size: 0x8, addend: 0x0, symName: __ZNSt3__117__compressed_pairIPfRNS_9allocatorIfEEEC2B8ne180100IDnS4_EEOT_OT0_, symObjAddr: 0x88D0, symBinAddr: 0x10001BCE0, symSize: 0x48 }
  - { offset: 0x60230, size: 0x8, addend: 0x0, symName: __ZNSt3__122__compressed_pair_elemIRNS_9allocatorIfEELi1ELb0EEC2B8ne180100IS3_vEEOT_, symObjAddr: 0x8918, symBinAddr: 0x10001BD28, symSize: 0x20 }
  - { offset: 0x60272, size: 0x8, addend: 0x0, symName: __ZNSt3__19allocatorIfE8allocateB8ne180100Em, symObjAddr: 0x8938, symBinAddr: 0x10001BD48, symSize: 0x54 }
  - { offset: 0x602A6, size: 0x8, addend: 0x0, symName: __ZNSt3__117__compressed_pairIPfRNS_9allocatorIfEEE6secondB8ne180100Ev, symObjAddr: 0x898C, symBinAddr: 0x10001BD9C, symSize: 0x28 }
  - { offset: 0x602CC, size: 0x8, addend: 0x0, symName: __ZNSt3__122__compressed_pair_elemIRNS_9allocatorIfEELi1ELb0EE5__getB8ne180100Ev, symObjAddr: 0x89B4, symBinAddr: 0x10001BDC4, symSize: 0x18 }
  - { offset: 0x602F2, size: 0x8, addend: 0x0, symName: __ZNSt3__117__compressed_pairIPfRNS_9allocatorIfEEE5firstB8ne180100Ev, symObjAddr: 0x89CC, symBinAddr: 0x10001BDDC, symSize: 0x24 }
  - { offset: 0x60318, size: 0x8, addend: 0x0, symName: __ZNSt3__122__compressed_pair_elemIPfLi0ELb0EE5__getB8ne180100Ev, symObjAddr: 0x89F0, symBinAddr: 0x10001BE00, symSize: 0x14 }
  - { offset: 0x6033E, size: 0x8, addend: 0x0, symName: __ZNSt3__116reverse_iteratorIPfEC1B8ne180100ES1_, symObjAddr: 0x8A7C, symBinAddr: 0x10001BE8C, symSize: 0x34 }
  - { offset: 0x60376, size: 0x8, addend: 0x0, symName: __ZNKSt3__116reverse_iteratorIPfE4baseB8ne180100Ev, symObjAddr: 0x8AB0, symBinAddr: 0x10001BEC0, symSize: 0x18 }
  - { offset: 0x6039C, size: 0x8, addend: 0x0, symName: __ZNSt3__16vectorIfNS_9allocatorIfEEE9__end_capB8ne180100Ev, symObjAddr: 0x8B04, symBinAddr: 0x10001BF14, symSize: 0x28 }
  - { offset: 0x603C2, size: 0x8, addend: 0x0, symName: __ZNKSt3__16vectorIfNS_9allocatorIfEEE14__annotate_newB8ne180100Em, symObjAddr: 0x8B2C, symBinAddr: 0x10001BF3C, symSize: 0x14 }
  - { offset: 0x6041D, size: 0x8, addend: 0x0, symName: __ZNKSt3__111__move_loopINS_17_ClassicAlgPolicyEEclB8ne180100INS_16reverse_iteratorIPfEES6_S6_EENS_4pairIT_T1_EES8_T0_S9_, symObjAddr: 0x8E30, symBinAddr: 0x10001C240, symSize: 0xA0 }
  - { offset: 0x6048E, size: 0x8, addend: 0x0, symName: __ZNSt3__18_IterOpsINS_17_ClassicAlgPolicyEE11__iter_moveB8ne180100IRNS_16reverse_iteratorIPfEETnNS_9enable_ifIXsr12is_referenceIDTdeclsr3stdE7declvalIRT_EEEEE5valueEiE4typeELi0EEEDTclsr3stdE4movedeclsr3stdE7declvalISA_EEEEOS9_, symObjAddr: 0x9060, symBinAddr: 0x10001C470, symSize: 0x28 }
  - { offset: 0x604C0, size: 0x8, addend: 0x0, symName: __ZNKSt3__116reverse_iteratorIPfEdeB8ne180100Ev, symObjAddr: 0x9088, symBinAddr: 0x10001C498, symSize: 0x28 }
  - { offset: 0x604F4, size: 0x8, addend: 0x0, symName: __ZNSt3__116reverse_iteratorIPfEppB8ne180100Ev, symObjAddr: 0x90B0, symBinAddr: 0x10001C4C0, symSize: 0x20 }
  - { offset: 0x6051A, size: 0x8, addend: 0x0, symName: __ZNSt3__18_IterOpsINS_17_ClassicAlgPolicyEE25__validate_iter_referenceB8ne180100IRNS_16reverse_iteratorIPfEEEEvv, symObjAddr: 0x90D0, symBinAddr: 0x10001C4E0, symSize: 0x4 }
  - { offset: 0x60538, size: 0x8, addend: 0x0, symName: __ZNSt3__118__unwrap_iter_implINS_16reverse_iteratorIPfEELb0EE8__unwrapB8ne180100ES3_, symObjAddr: 0x90D4, symBinAddr: 0x10001C4E4, symSize: 0x24 }
  - { offset: 0x60561, size: 0x8, addend: 0x0, symName: __ZNSt3__14pairINS_16reverse_iteratorIPfEES3_EC1B8ne180100IS3_S3_TnNS_9enable_ifIXclsr10_CheckArgsE17__enable_implicitIT_T0_EEEiE4typeELi0EEEOS7_OS8_, symObjAddr: 0x90F8, symBinAddr: 0x10001C508, symSize: 0x3C }
  - { offset: 0x605BF, size: 0x8, addend: 0x0, symName: __ZNSt3__14pairINS_16reverse_iteratorIPfEES3_EC2B8ne180100IS3_S3_TnNS_9enable_ifIXclsr10_CheckArgsE17__enable_implicitIT_T0_EEEiE4typeELi0EEEOS7_OS8_, symObjAddr: 0x9134, symBinAddr: 0x10001C544, symSize: 0x34 }
  - { offset: 0x6061D, size: 0x8, addend: 0x0, symName: __ZNSt3__118__unwrap_iter_implINS_16reverse_iteratorIPfEELb0EE8__rewrapB8ne180100ES3_S3_, symObjAddr: 0x9168, symBinAddr: 0x10001C578, symSize: 0x2C }
  - { offset: 0x6064A, size: 0x8, addend: 0x0, symName: __ZNSt3__116reverse_iteratorIPfEC2B8ne180100ES1_, symObjAddr: 0x9194, symBinAddr: 0x10001C5A4, symSize: 0x28 }
  - { offset: 0x60682, size: 0x8, addend: 0x0, symName: __ZNSt3__117__compressed_pairIPfNS_9allocatorIfEEE5firstB8ne180100Ev, symObjAddr: 0x91BC, symBinAddr: 0x10001C5CC, symSize: 0x24 }
  - { offset: 0x606A8, size: 0x8, addend: 0x0, symName: __ZNSt3__114__split_bufferIfRNS_9allocatorIfEEED2Ev, symObjAddr: 0x91E0, symBinAddr: 0x10001C5F0, symSize: 0x84 }
  - { offset: 0x606D4, size: 0x8, addend: 0x0, symName: __ZNSt3__114__split_bufferIfRNS_9allocatorIfEEE5clearB8ne180100Ev, symObjAddr: 0x9264, symBinAddr: 0x10001C674, symSize: 0x28 }
  - { offset: 0x606FA, size: 0x8, addend: 0x0, symName: __ZNKSt3__114__split_bufferIfRNS_9allocatorIfEEE8capacityB8ne180100Ev, symObjAddr: 0x928C, symBinAddr: 0x10001C69C, symSize: 0x40 }
  - { offset: 0x60720, size: 0x8, addend: 0x0, symName: __ZNSt3__114__split_bufferIfRNS_9allocatorIfEEE17__destruct_at_endB8ne180100EPf, symObjAddr: 0x92CC, symBinAddr: 0x10001C6DC, symSize: 0x2C }
  - { offset: 0x60754, size: 0x8, addend: 0x0, symName: __ZNSt3__114__split_bufferIfRNS_9allocatorIfEEE17__destruct_at_endB8ne180100EPfNS_17integral_constantIbLb0EEE, symObjAddr: 0x92F8, symBinAddr: 0x10001C708, symSize: 0x7C }
  - { offset: 0x60794, size: 0x8, addend: 0x0, symName: __ZNKSt3__114__split_bufferIfRNS_9allocatorIfEEE9__end_capB8ne180100Ev, symObjAddr: 0x9374, symBinAddr: 0x10001C784, symSize: 0x28 }
  - { offset: 0x607BA, size: 0x8, addend: 0x0, symName: __ZNKSt3__117__compressed_pairIPfRNS_9allocatorIfEEE5firstB8ne180100Ev, symObjAddr: 0x939C, symBinAddr: 0x10001C7AC, symSize: 0x24 }
  - { offset: 0x607E0, size: 0x8, addend: 0x0, symName: __ZNSt3__16vectorIfNS_9allocatorIfEEE22__construct_one_at_endB8ne180100IJRKfEEEvDpOT_, symObjAddr: 0x93C0, symBinAddr: 0x10001C7D0, symSize: 0x90 }
  - { offset: 0x6082F, size: 0x8, addend: 0x0, symName: __ZNSt3__16vectorIfNS_9allocatorIfEEE21__push_back_slow_pathIRKfEEPfOT_, symObjAddr: 0x9450, symBinAddr: 0x10001C860, symSize: 0xE8 }
  - { offset: 0x608A6, size: 0x8, addend: 0x0, symName: __ZNSt3__16vectorIfNS_9allocatorIfEEE21_ConstructTransactionC1B8ne180100ERS3_m, symObjAddr: 0x9538, symBinAddr: 0x10001C948, symSize: 0x3C }
  - { offset: 0x608EE, size: 0x8, addend: 0x0, symName: __ZNSt3__116allocator_traitsINS_9allocatorIfEEE9constructB8ne180100IfJRKfEvEEvRS2_PT_DpOT0_, symObjAddr: 0x9574, symBinAddr: 0x10001C984, symSize: 0x34 }
  - { offset: 0x60945, size: 0x8, addend: 0x0, symName: __ZNSt3__16vectorIfNS_9allocatorIfEEE21_ConstructTransactionD1B8ne180100Ev, symObjAddr: 0x95A8, symBinAddr: 0x10001C9B8, symSize: 0x2C }
  - { offset: 0x6096F, size: 0x8, addend: 0x0, symName: __ZNSt3__16vectorIfNS_9allocatorIfEEE21_ConstructTransactionC2B8ne180100ERS3_m, symObjAddr: 0x95D4, symBinAddr: 0x10001C9E4, symSize: 0x44 }
  - { offset: 0x609B7, size: 0x8, addend: 0x0, symName: __ZNSt3__19allocatorIfE9constructB8ne180100IfJRKfEEEvPT_DpOT0_, symObjAddr: 0x9618, symBinAddr: 0x10001CA28, symSize: 0x28 }
  - { offset: 0x60A0D, size: 0x8, addend: 0x0, symName: __ZNSt3__16vectorIfNS_9allocatorIfEEE21_ConstructTransactionD2B8ne180100Ev, symObjAddr: 0x9640, symBinAddr: 0x10001CA50, symSize: 0x20 }
  - { offset: 0x60A37, size: 0x8, addend: 0x0, symName: __ZNKSt3__16vectorIfNS_9allocatorIfEEE11__recommendB8ne180100Em, symObjAddr: 0x9660, symBinAddr: 0x10001CA70, symSize: 0xAC }
  - { offset: 0x60A8C, size: 0x8, addend: 0x0, symName: __ZNSt3__16vectorIfNS_9allocatorIfEEE11__make_iterB8ne180100EPf, symObjAddr: 0x970C, symBinAddr: 0x10001CB1C, symSize: 0x30 }
  - { offset: 0x60AC1, size: 0x8, addend: 0x0, symName: __ZNSt3__111__wrap_iterIPfEC1B8ne180100ES1_, symObjAddr: 0x973C, symBinAddr: 0x10001CB4C, symSize: 0x34 }
  - { offset: 0x60AF9, size: 0x8, addend: 0x0, symName: __ZNSt3__111__wrap_iterIPfEC2B8ne180100ES1_, symObjAddr: 0x9770, symBinAddr: 0x10001CB80, symSize: 0x20 }
  - { offset: 0x60B31, size: 0x8, addend: 0x0, symName: __ZNSt3__121discrete_distributionIiEC2B8ne180100INS_11__wrap_iterIPfEEEET_S6_, symObjAddr: 0x9790, symBinAddr: 0x10001CBA0, symSize: 0x4C }
  - { offset: 0x60B80, size: 0x8, addend: 0x0, symName: __ZNSt3__121discrete_distributionIiE10param_typeC1B8ne180100INS_11__wrap_iterIPfEEEET_S7_, symObjAddr: 0x97DC, symBinAddr: 0x10001CBEC, symSize: 0x3C }
  - { offset: 0x60BCF, size: 0x8, addend: 0x0, symName: __ZNSt3__121discrete_distributionIiE10param_typeC2B8ne180100INS_11__wrap_iterIPfEEEET_S7_, symObjAddr: 0x9818, symBinAddr: 0x10001CC28, symSize: 0x7C }
  - { offset: 0x60C1E, size: 0x8, addend: 0x0, symName: __ZNSt3__16vectorIdNS_9allocatorIdEEEC1INS_11__wrap_iterIPfEETnNS_9enable_ifIXaasr31__has_forward_iterator_categoryIT_EE5valuesr16is_constructibleIdNS_15iterator_traitsIS9_E9referenceEEE5valueEiE4typeELi0EEES9_S9_, symObjAddr: 0x9894, symBinAddr: 0x10001CCA4, symSize: 0x3C }
  - { offset: 0x60C75, size: 0x8, addend: 0x0, symName: __ZNSt3__121discrete_distributionIiE10param_type6__initEv, symObjAddr: 0x98D0, symBinAddr: 0x10001CCE0, symSize: 0x1AC }
  - { offset: 0x60CE9, size: 0x8, addend: 0x0, symName: __ZNSt3__16vectorIdNS_9allocatorIdEEEC2INS_11__wrap_iterIPfEETnNS_9enable_ifIXaasr31__has_forward_iterator_categoryIT_EE5valuesr16is_constructibleIdNS_15iterator_traitsIS9_E9referenceEEE5valueEiE4typeELi0EEES9_S9_, symObjAddr: 0x9A7C, symBinAddr: 0x10001CE8C, symSize: 0x94 }
  - { offset: 0x60D5D, size: 0x8, addend: 0x0, symName: __ZNSt3__117__compressed_pairIPdNS_9allocatorIdEEEC1B8ne180100IDnNS_18__default_init_tagEEEOT_OT0_, symObjAddr: 0x9B10, symBinAddr: 0x10001CF20, symSize: 0x3C }
  - { offset: 0x60DB5, size: 0x8, addend: 0x0, symName: __ZNSt3__16vectorIdNS_9allocatorIdEEE16__init_with_sizeB8ne180100INS_11__wrap_iterIPfEES7_EEvT_T0_m, symObjAddr: 0x9B88, symBinAddr: 0x10001CF98, symSize: 0xC4 }
  - { offset: 0x60E29, size: 0x8, addend: 0x0, symName: __ZNSt3__117__compressed_pairIPdNS_9allocatorIdEEEC2B8ne180100IDnNS_18__default_init_tagEEEOT_OT0_, symObjAddr: 0x9C4C, symBinAddr: 0x10001D05C, symSize: 0x40 }
  - { offset: 0x60E81, size: 0x8, addend: 0x0, symName: __ZNSt3__122__compressed_pair_elemIPdLi0ELb0EEC2B8ne180100IDnvEEOT_, symObjAddr: 0x9C8C, symBinAddr: 0x10001D09C, symSize: 0x1C }
  - { offset: 0x60EC3, size: 0x8, addend: 0x0, symName: __ZNSt3__122__compressed_pair_elemINS_9allocatorIdEELi1ELb1EEC2B8ne180100ENS_18__default_init_tagE, symObjAddr: 0x9CA8, symBinAddr: 0x10001D0B8, symSize: 0x2C }
  - { offset: 0x60EF7, size: 0x8, addend: 0x0, symName: __ZNSt3__19allocatorIdEC2B8ne180100Ev, symObjAddr: 0x9CD4, symBinAddr: 0x10001D0E4, symSize: 0x2C }
  - { offset: 0x60F21, size: 0x8, addend: 0x0, symName: __ZNSt3__116__non_trivial_ifILb1ENS_9allocatorIdEEEC2B8ne180100Ev, symObjAddr: 0x9D00, symBinAddr: 0x10001D110, symSize: 0x14 }
  - { offset: 0x60F4B, size: 0x8, addend: 0x0, symName: __ZNSt3__16vectorIdNS_9allocatorIdEEE11__vallocateB8ne180100Em, symObjAddr: 0x9DCC, symBinAddr: 0x10001D1DC, symSize: 0xA8 }
  - { offset: 0x60F8F, size: 0x8, addend: 0x0, symName: __ZNSt3__16vectorIdNS_9allocatorIdEEE18__construct_at_endINS_11__wrap_iterIPfEES7_EEvT_T0_m, symObjAddr: 0x9E74, symBinAddr: 0x10001D284, symSize: 0x9C }
  - { offset: 0x61003, size: 0x8, addend: 0x0, symName: __ZNSt3__128__exception_guard_exceptionsINS_6vectorIdNS_9allocatorIdEEE16__destroy_vectorEE10__completeB8ne180100Ev, symObjAddr: 0x9F10, symBinAddr: 0x10001D320, symSize: 0x1C }
  - { offset: 0x61029, size: 0x8, addend: 0x0, symName: __ZNSt3__128__exception_guard_exceptionsINS_6vectorIdNS_9allocatorIdEEE16__destroy_vectorEED1B8ne180100Ev, symObjAddr: 0x9F2C, symBinAddr: 0x10001D33C, symSize: 0x2C }
  - { offset: 0x61053, size: 0x8, addend: 0x0, symName: __ZNSt3__128__exception_guard_exceptionsINS_6vectorIdNS_9allocatorIdEEE16__destroy_vectorEEC1B8ne180100ES5_, symObjAddr: 0x9F58, symBinAddr: 0x10001D368, symSize: 0x34 }
  - { offset: 0x6108B, size: 0x8, addend: 0x0, symName: __ZNSt3__128__exception_guard_exceptionsINS_6vectorIdNS_9allocatorIdEEE16__destroy_vectorEEC2B8ne180100ES5_, symObjAddr: 0x9F8C, symBinAddr: 0x10001D39C, symSize: 0x24 }
  - { offset: 0x610C3, size: 0x8, addend: 0x0, symName: __ZNKSt3__16vectorIdNS_9allocatorIdEEE8max_sizeEv, symObjAddr: 0x9FB0, symBinAddr: 0x10001D3C0, symSize: 0x60 }
  - { offset: 0x610EB, size: 0x8, addend: 0x0, symName: __ZNKSt3__16vectorIdNS_9allocatorIdEEE20__throw_length_errorB8ne180100Ev, symObjAddr: 0xA010, symBinAddr: 0x10001D420, symSize: 0x1C }
  - { offset: 0x61111, size: 0x8, addend: 0x0, symName: __ZNSt3__16vectorIdNS_9allocatorIdEEE9__end_capB8ne180100Ev, symObjAddr: 0xA06C, symBinAddr: 0x10001D47C, symSize: 0x28 }
  - { offset: 0x61137, size: 0x8, addend: 0x0, symName: __ZNKSt3__16vectorIdNS_9allocatorIdEEE14__annotate_newB8ne180100Em, symObjAddr: 0xA094, symBinAddr: 0x10001D4A4, symSize: 0x14 }
  - { offset: 0x61177, size: 0x8, addend: 0x0, symName: __ZNSt3__116allocator_traitsINS_9allocatorIdEEE8max_sizeB8ne180100IS2_vEEmRKS2_, symObjAddr: 0xA0A8, symBinAddr: 0x10001D4B8, symSize: 0x24 }
  - { offset: 0x611A5, size: 0x8, addend: 0x0, symName: __ZNKSt3__16vectorIdNS_9allocatorIdEEE7__allocB8ne180100Ev, symObjAddr: 0xA0CC, symBinAddr: 0x10001D4DC, symSize: 0x28 }
  - { offset: 0x611CB, size: 0x8, addend: 0x0, symName: __ZNKSt3__19allocatorIdE8max_sizeB8ne180100Ev, symObjAddr: 0xA0F4, symBinAddr: 0x10001D504, symSize: 0x14 }
  - { offset: 0x611F1, size: 0x8, addend: 0x0, symName: __ZNKSt3__117__compressed_pairIPdNS_9allocatorIdEEE6secondB8ne180100Ev, symObjAddr: 0xA108, symBinAddr: 0x10001D518, symSize: 0x24 }
  - { offset: 0x61217, size: 0x8, addend: 0x0, symName: __ZNKSt3__122__compressed_pair_elemINS_9allocatorIdEELi1ELb1EE5__getB8ne180100Ev, symObjAddr: 0xA12C, symBinAddr: 0x10001D53C, symSize: 0x14 }
  - { offset: 0x6123D, size: 0x8, addend: 0x0, symName: __ZNSt3__19allocatorIdE8allocateB8ne180100Em, symObjAddr: 0xA140, symBinAddr: 0x10001D550, symSize: 0x54 }
  - { offset: 0x61271, size: 0x8, addend: 0x0, symName: __ZNSt3__117__compressed_pairIPdNS_9allocatorIdEEE5firstB8ne180100Ev, symObjAddr: 0xA194, symBinAddr: 0x10001D5A4, symSize: 0x24 }
  - { offset: 0x61297, size: 0x8, addend: 0x0, symName: __ZNSt3__122__compressed_pair_elemIPdLi0ELb0EE5__getB8ne180100Ev, symObjAddr: 0xA1B8, symBinAddr: 0x10001D5C8, symSize: 0x14 }
  - { offset: 0x612D8, size: 0x8, addend: 0x0, symName: __ZNSt3__16vectorIdNS_9allocatorIdEEE21_ConstructTransactionC1B8ne180100ERS3_m, symObjAddr: 0xA1CC, symBinAddr: 0x10001D5DC, symSize: 0x3C }
  - { offset: 0x61320, size: 0x8, addend: 0x0, symName: __ZNSt3__16vectorIdNS_9allocatorIdEEE21_ConstructTransactionD1B8ne180100Ev, symObjAddr: 0xA298, symBinAddr: 0x10001D6A8, symSize: 0x2C }
  - { offset: 0x6134A, size: 0x8, addend: 0x0, symName: __ZNSt3__16vectorIdNS_9allocatorIdEEE21_ConstructTransactionC2B8ne180100ERS3_m, symObjAddr: 0xA2C4, symBinAddr: 0x10001D6D4, symSize: 0x44 }
  - { offset: 0x613B4, size: 0x8, addend: 0x0, symName: __ZNSt3__14pairIPfS1_EC1B8ne180100IS1_S1_TnNS_9enable_ifIXclsr10_CheckArgsE17__enable_implicitIT_T0_EEEiE4typeELi0EEEOS5_OS6_, symObjAddr: 0xA52C, symBinAddr: 0x10001D93C, symSize: 0x3C }
  - { offset: 0x61412, size: 0x8, addend: 0x0, symName: __ZNSt3__14pairIPfS1_EC2B8ne180100IS1_S1_TnNS_9enable_ifIXclsr10_CheckArgsE17__enable_implicitIT_T0_EEEiE4typeELi0EEEOS5_OS6_, symObjAddr: 0xA568, symBinAddr: 0x10001D978, symSize: 0x34 }
  - { offset: 0x61470, size: 0x8, addend: 0x0, symName: __ZNSt3__118__unwrap_iter_implINS_11__wrap_iterIPfEELb1EE8__unwrapB8ne180100ES3_, symObjAddr: 0xA59C, symBinAddr: 0x10001D9AC, symSize: 0x28 }
  - { offset: 0x6149E, size: 0x8, addend: 0x0, symName: __ZNSt3__119__to_address_helperINS_11__wrap_iterIPfEEvE6__callB8ne180100ERKS3_, symObjAddr: 0xA5E8, symBinAddr: 0x10001D9F8, symSize: 0x30 }
  - { offset: 0x614C1, size: 0x8, addend: 0x0, symName: __ZNSt3__114pointer_traitsINS_11__wrap_iterIPfEEE10to_addressB8ne180100ES3_, symObjAddr: 0xA618, symBinAddr: 0x10001DA28, symSize: 0x2C }
  - { offset: 0x614E4, size: 0x8, addend: 0x0, symName: __ZNSt3__129_AllocatorDestroyRangeReverseINS_9allocatorIdEEPdEC1B8ne180100ERS2_RS3_S6_, symObjAddr: 0xA690, symBinAddr: 0x10001DAA0, symSize: 0x44 }
  - { offset: 0x6153B, size: 0x8, addend: 0x0, symName: __ZNSt3__116allocator_traitsINS_9allocatorIdEEE9constructB8ne180100IdJRfEvEEvRS2_PT_DpOT0_, symObjAddr: 0xA6D4, symBinAddr: 0x10001DAE4, symSize: 0x34 }
  - { offset: 0x61592, size: 0x8, addend: 0x0, symName: __ZNSt3__128__exception_guard_exceptionsINS_29_AllocatorDestroyRangeReverseINS_9allocatorIdEEPdEEE10__completeB8ne180100Ev, symObjAddr: 0xA708, symBinAddr: 0x10001DB18, symSize: 0x1C }
  - { offset: 0x615B8, size: 0x8, addend: 0x0, symName: __ZNSt3__128__exception_guard_exceptionsINS_29_AllocatorDestroyRangeReverseINS_9allocatorIdEEPdEEED1B8ne180100Ev, symObjAddr: 0xA724, symBinAddr: 0x10001DB34, symSize: 0x2C }
  - { offset: 0x615E2, size: 0x8, addend: 0x0, symName: __ZNSt3__128__exception_guard_exceptionsINS_29_AllocatorDestroyRangeReverseINS_9allocatorIdEEPdEEEC1B8ne180100ES5_, symObjAddr: 0xA750, symBinAddr: 0x10001DB60, symSize: 0x34 }
  - { offset: 0x6161B, size: 0x8, addend: 0x0, symName: __ZNSt3__128__exception_guard_exceptionsINS_29_AllocatorDestroyRangeReverseINS_9allocatorIdEEPdEEEC2B8ne180100ES5_, symObjAddr: 0xA784, symBinAddr: 0x10001DB94, symSize: 0x30 }
  - { offset: 0x61654, size: 0x8, addend: 0x0, symName: __ZNSt3__129_AllocatorDestroyRangeReverseINS_9allocatorIdEEPdEC2B8ne180100ERS2_RS3_S6_, symObjAddr: 0xA7B4, symBinAddr: 0x10001DBC4, symSize: 0x38 }
  - { offset: 0x616AB, size: 0x8, addend: 0x0, symName: __ZNSt3__19allocatorIdE9constructB8ne180100IdJRfEEEvPT_DpOT0_, symObjAddr: 0xA7EC, symBinAddr: 0x10001DBFC, symSize: 0x2C }
  - { offset: 0x61701, size: 0x8, addend: 0x0, symName: __ZNSt3__128__exception_guard_exceptionsINS_29_AllocatorDestroyRangeReverseINS_9allocatorIdEEPdEEED2B8ne180100Ev, symObjAddr: 0xA818, symBinAddr: 0x10001DC28, symSize: 0x50 }
  - { offset: 0x6172B, size: 0x8, addend: 0x0, symName: __ZNKSt3__129_AllocatorDestroyRangeReverseINS_9allocatorIdEEPdEclB8ne180100Ev, symObjAddr: 0xA868, symBinAddr: 0x10001DC78, symSize: 0x68 }
  - { offset: 0x61751, size: 0x8, addend: 0x0, symName: __ZNSt3__116reverse_iteratorIPdEC1B8ne180100ES1_, symObjAddr: 0xA940, symBinAddr: 0x10001DD50, symSize: 0x34 }
  - { offset: 0x61789, size: 0x8, addend: 0x0, symName: __ZNSt3__116reverse_iteratorIPdEppB8ne180100Ev, symObjAddr: 0xA9DC, symBinAddr: 0x10001DDEC, symSize: 0x20 }
  - { offset: 0x617AF, size: 0x8, addend: 0x0, symName: __ZNKSt3__116reverse_iteratorIPdE4baseB8ne180100Ev, symObjAddr: 0xA9FC, symBinAddr: 0x10001DE0C, symSize: 0x18 }
  - { offset: 0x617DB, size: 0x8, addend: 0x0, symName: __ZNSt3__119__to_address_helperINS_16reverse_iteratorIPdEEvE6__callB8ne180100ERKS3_, symObjAddr: 0xAA14, symBinAddr: 0x10001DE24, symSize: 0x38 }
  - { offset: 0x617FE, size: 0x8, addend: 0x0, symName: __ZNKSt3__116reverse_iteratorIPdEptB8ne180100Ev, symObjAddr: 0xAA4C, symBinAddr: 0x10001DE5C, symSize: 0x24 }
  - { offset: 0x61824, size: 0x8, addend: 0x0, symName: __ZNKSt3__116reverse_iteratorIPdEdeB8ne180100Ev, symObjAddr: 0xAA70, symBinAddr: 0x10001DE80, symSize: 0x28 }
  - { offset: 0x61858, size: 0x8, addend: 0x0, symName: __ZNSt3__116reverse_iteratorIPdEC2B8ne180100ES1_, symObjAddr: 0xAA98, symBinAddr: 0x10001DEA8, symSize: 0x28 }
  - { offset: 0x61890, size: 0x8, addend: 0x0, symName: __ZNSt3__118__unwrap_iter_implIPdLb1EE8__unwrapB8ne180100ES1_, symObjAddr: 0xAAC0, symBinAddr: 0x10001DED0, symSize: 0x24 }
  - { offset: 0x618B3, size: 0x8, addend: 0x0, symName: __ZNSt3__118__unwrap_iter_implIPdLb1EE8__rewrapB8ne180100ES1_S1_, symObjAddr: 0xAAE4, symBinAddr: 0x10001DEF4, symSize: 0x50 }
  - { offset: 0x618E4, size: 0x8, addend: 0x0, symName: __ZNSt3__16vectorIdNS_9allocatorIdEEE21_ConstructTransactionD2B8ne180100Ev, symObjAddr: 0xAB34, symBinAddr: 0x10001DF44, symSize: 0x20 }
  - { offset: 0x6190E, size: 0x8, addend: 0x0, symName: __ZNSt3__128__exception_guard_exceptionsINS_6vectorIdNS_9allocatorIdEEE16__destroy_vectorEED2B8ne180100Ev, symObjAddr: 0xAB54, symBinAddr: 0x10001DF64, symSize: 0x48 }
  - { offset: 0x61938, size: 0x8, addend: 0x0, symName: __ZNKSt3__16vectorIdNS_9allocatorIdEEE5emptyB8ne180100Ev, symObjAddr: 0xAB9C, symBinAddr: 0x10001DFAC, symSize: 0x24 }
  - { offset: 0x6195E, size: 0x8, addend: 0x0, symName: __ZNKSt3__16vectorIdNS_9allocatorIdEEE4sizeB8ne180100Ev, symObjAddr: 0xABC0, symBinAddr: 0x10001DFD0, symSize: 0x28 }
  - { offset: 0x61984, size: 0x8, addend: 0x0, symName: __ZNSt3__16vectorIdNS_9allocatorIdEEE5beginB8ne180100Ev, symObjAddr: 0xAC58, symBinAddr: 0x10001E068, symSize: 0x30 }
  - { offset: 0x619AC, size: 0x8, addend: 0x0, symName: __ZNSt3__16vectorIdNS_9allocatorIdEEE3endB8ne180100Ev, symObjAddr: 0xAC88, symBinAddr: 0x10001E098, symSize: 0x30 }
  - { offset: 0x619D4, size: 0x8, addend: 0x0, symName: __ZNKSt3__111__wrap_iterIPdEdeB8ne180100Ev, symObjAddr: 0xACFC, symBinAddr: 0x10001E10C, symSize: 0x18 }
  - { offset: 0x619FA, size: 0x8, addend: 0x0, symName: __ZNSt3__111__wrap_iterIPdEppB8ne180100Ev, symObjAddr: 0xAD14, symBinAddr: 0x10001E124, symSize: 0x20 }
  - { offset: 0x61A20, size: 0x8, addend: 0x0, symName: __ZNSt3__16vectorIdNS_9allocatorIdEEEC1Em, symObjAddr: 0xAD34, symBinAddr: 0x10001E144, symSize: 0x34 }
  - { offset: 0x61A5B, size: 0x8, addend: 0x0, symName: __ZNKSt3__111__wrap_iterIPdEmiB8ne180100El, symObjAddr: 0xAE64, symBinAddr: 0x10001E274, symSize: 0x3C }
  - { offset: 0x61A8F, size: 0x8, addend: 0x0, symName: __ZNSt3__16vectorIdNS_9allocatorIdEEE5clearB8ne180100Ev, symObjAddr: 0xAECC, symBinAddr: 0x10001E2DC, symSize: 0x44 }
  - { offset: 0x61AC4, size: 0x8, addend: 0x0, symName: __ZNSt3__16vectorIdNS_9allocatorIdEEE13shrink_to_fitEv, symObjAddr: 0xAF10, symBinAddr: 0x10001E320, symSize: 0xEC }
  - { offset: 0x61B10, size: 0x8, addend: 0x0, symName: __ZNKSt3__111__wrap_iterIPdE4baseB8ne180100Ev, symObjAddr: 0xB070, symBinAddr: 0x10001E480, symSize: 0x18 }
  - { offset: 0x61B36, size: 0x8, addend: 0x0, symName: __ZNSt3__16vectorIdNS_9allocatorIdEEE11__make_iterB8ne180100EPd, symObjAddr: 0xB088, symBinAddr: 0x10001E498, symSize: 0x30 }
  - { offset: 0x61B6B, size: 0x8, addend: 0x0, symName: __ZNSt3__111__wrap_iterIPdEC1B8ne180100ES1_, symObjAddr: 0xB0B8, symBinAddr: 0x10001E4C8, symSize: 0x34 }
  - { offset: 0x61BA3, size: 0x8, addend: 0x0, symName: __ZNSt3__111__wrap_iterIPdEC2B8ne180100ES1_, symObjAddr: 0xB0EC, symBinAddr: 0x10001E4FC, symSize: 0x20 }
  - { offset: 0x61BDB, size: 0x8, addend: 0x0, symName: __ZNSt3__16vectorIdNS_9allocatorIdEEEC2Em, symObjAddr: 0xB10C, symBinAddr: 0x10001E51C, symSize: 0xD0 }
  - { offset: 0x61C2B, size: 0x8, addend: 0x0, symName: __ZNSt3__16vectorIdNS_9allocatorIdEEE18__construct_at_endEm, symObjAddr: 0xB1DC, symBinAddr: 0x10001E5EC, symSize: 0xC4 }
  - { offset: 0x61C9D, size: 0x8, addend: 0x0, symName: __ZNSt3__116allocator_traitsINS_9allocatorIdEEE9constructB8ne180100IdJEvEEvRS2_PT_DpOT0_, symObjAddr: 0xB2A0, symBinAddr: 0x10001E6B0, symSize: 0x2C }
  - { offset: 0x61CDF, size: 0x8, addend: 0x0, symName: __ZNSt3__19allocatorIdE9constructB8ne180100IdJEEEvPT_DpOT0_, symObjAddr: 0xB2CC, symBinAddr: 0x10001E6DC, symSize: 0x20 }
  - { offset: 0x61D21, size: 0x8, addend: 0x0, symName: __ZNKSt3__111__wrap_iterIPdEplB8ne180100El, symObjAddr: 0xB2EC, symBinAddr: 0x10001E6FC, symSize: 0x3C }
  - { offset: 0x61D63, size: 0x8, addend: 0x0, symName: __ZNSt3__111__wrap_iterIPdEpLB8ne180100El, symObjAddr: 0xB328, symBinAddr: 0x10001E738, symSize: 0x28 }
  - { offset: 0x61D97, size: 0x8, addend: 0x0, symName: __ZNSt3__16vectorIdNS_9allocatorIdEEE4swapERS3_, symObjAddr: 0xB350, symBinAddr: 0x10001E760, symSize: 0x84 }
  - { offset: 0x61DCE, size: 0x8, addend: 0x0, symName: __ZNKSt3__16vectorIdNS_9allocatorIdEEE17__annotate_shrinkB8ne180100Em, symObjAddr: 0xB424, symBinAddr: 0x10001E834, symSize: 0x14 }
  - { offset: 0x61E03, size: 0x8, addend: 0x0, symName: __ZNSt3__114__split_bufferIdRNS_9allocatorIdEEEC1EmmS3_, symObjAddr: 0xB438, symBinAddr: 0x10001E848, symSize: 0x44 }
  - { offset: 0x61E59, size: 0x8, addend: 0x0, symName: __ZNSt3__114__split_bufferIdRNS_9allocatorIdEEED1Ev, symObjAddr: 0xB58C, symBinAddr: 0x10001E99C, symSize: 0x2C }
  - { offset: 0x61E85, size: 0x8, addend: 0x0, symName: __ZNSt3__114__split_bufferIdRNS_9allocatorIdEEEC2EmmS3_, symObjAddr: 0xB5B8, symBinAddr: 0x10001E9C8, symSize: 0xCC }
  - { offset: 0x61EF8, size: 0x8, addend: 0x0, symName: __ZNSt3__117__compressed_pairIPdRNS_9allocatorIdEEEC1B8ne180100IDnS4_EEOT_OT0_, symObjAddr: 0xB684, symBinAddr: 0x10001EA94, symSize: 0x3C }
  - { offset: 0x61F50, size: 0x8, addend: 0x0, symName: __ZNSt3__114__split_bufferIdRNS_9allocatorIdEEE7__allocB8ne180100Ev, symObjAddr: 0xB6C0, symBinAddr: 0x10001EAD0, symSize: 0x28 }
  - { offset: 0x61F76, size: 0x8, addend: 0x0, symName: __ZNSt3__114__split_bufferIdRNS_9allocatorIdEEE9__end_capB8ne180100Ev, symObjAddr: 0xB6E8, symBinAddr: 0x10001EAF8, symSize: 0x28 }
  - { offset: 0x61F9C, size: 0x8, addend: 0x0, symName: __ZNSt3__117__compressed_pairIPdRNS_9allocatorIdEEEC2B8ne180100IDnS4_EEOT_OT0_, symObjAddr: 0xB710, symBinAddr: 0x10001EB20, symSize: 0x48 }
  - { offset: 0x61FF4, size: 0x8, addend: 0x0, symName: __ZNSt3__122__compressed_pair_elemIRNS_9allocatorIdEELi1ELb0EEC2B8ne180100IS3_vEEOT_, symObjAddr: 0xB758, symBinAddr: 0x10001EB68, symSize: 0x20 }
  - { offset: 0x62036, size: 0x8, addend: 0x0, symName: __ZNSt3__117__compressed_pairIPdRNS_9allocatorIdEEE6secondB8ne180100Ev, symObjAddr: 0xB778, symBinAddr: 0x10001EB88, symSize: 0x28 }
  - { offset: 0x6205C, size: 0x8, addend: 0x0, symName: __ZNSt3__122__compressed_pair_elemIRNS_9allocatorIdEELi1ELb0EE5__getB8ne180100Ev, symObjAddr: 0xB7A0, symBinAddr: 0x10001EBB0, symSize: 0x18 }
  - { offset: 0x62082, size: 0x8, addend: 0x0, symName: __ZNSt3__117__compressed_pairIPdRNS_9allocatorIdEEE5firstB8ne180100Ev, symObjAddr: 0xB7B8, symBinAddr: 0x10001EBC8, symSize: 0x24 }
  - { offset: 0x620C4, size: 0x8, addend: 0x0, symName: __ZNKSt3__111__move_loopINS_17_ClassicAlgPolicyEEclB8ne180100INS_16reverse_iteratorIPdEES6_S6_EENS_4pairIT_T1_EES8_T0_S9_, symObjAddr: 0xBB44, symBinAddr: 0x10001EF54, symSize: 0xA0 }
  - { offset: 0x62135, size: 0x8, addend: 0x0, symName: __ZNSt3__18_IterOpsINS_17_ClassicAlgPolicyEE11__iter_moveB8ne180100IRNS_16reverse_iteratorIPdEETnNS_9enable_ifIXsr12is_referenceIDTdeclsr3stdE7declvalIRT_EEEEE5valueEiE4typeELi0EEEDTclsr3stdE4movedeclsr3stdE7declvalISA_EEEEOS9_, symObjAddr: 0xBD30, symBinAddr: 0x10001F140, symSize: 0x28 }
  - { offset: 0x62167, size: 0x8, addend: 0x0, symName: __ZNSt3__18_IterOpsINS_17_ClassicAlgPolicyEE25__validate_iter_referenceB8ne180100IRNS_16reverse_iteratorIPdEEEEvv, symObjAddr: 0xBD58, symBinAddr: 0x10001F168, symSize: 0x4 }
  - { offset: 0x62185, size: 0x8, addend: 0x0, symName: __ZNSt3__118__unwrap_iter_implINS_16reverse_iteratorIPdEELb0EE8__unwrapB8ne180100ES3_, symObjAddr: 0xBD5C, symBinAddr: 0x10001F16C, symSize: 0x24 }
  - { offset: 0x621AE, size: 0x8, addend: 0x0, symName: __ZNSt3__14pairINS_16reverse_iteratorIPdEES3_EC1B8ne180100IS3_S3_TnNS_9enable_ifIXclsr10_CheckArgsE17__enable_implicitIT_T0_EEEiE4typeELi0EEEOS7_OS8_, symObjAddr: 0xBD80, symBinAddr: 0x10001F190, symSize: 0x3C }
  - { offset: 0x6220C, size: 0x8, addend: 0x0, symName: __ZNSt3__14pairINS_16reverse_iteratorIPdEES3_EC2B8ne180100IS3_S3_TnNS_9enable_ifIXclsr10_CheckArgsE17__enable_implicitIT_T0_EEEiE4typeELi0EEEOS7_OS8_, symObjAddr: 0xBDBC, symBinAddr: 0x10001F1CC, symSize: 0x34 }
  - { offset: 0x6226A, size: 0x8, addend: 0x0, symName: __ZNSt3__118__unwrap_iter_implINS_16reverse_iteratorIPdEELb0EE8__rewrapB8ne180100ES3_S3_, symObjAddr: 0xBDF0, symBinAddr: 0x10001F200, symSize: 0x2C }
  - { offset: 0x62297, size: 0x8, addend: 0x0, symName: __ZNSt3__114__split_bufferIdRNS_9allocatorIdEEED2Ev, symObjAddr: 0xBE1C, symBinAddr: 0x10001F22C, symSize: 0x84 }
  - { offset: 0x622C3, size: 0x8, addend: 0x0, symName: __ZNSt3__114__split_bufferIdRNS_9allocatorIdEEE5clearB8ne180100Ev, symObjAddr: 0xBEA0, symBinAddr: 0x10001F2B0, symSize: 0x28 }
  - { offset: 0x622E9, size: 0x8, addend: 0x0, symName: __ZNKSt3__114__split_bufferIdRNS_9allocatorIdEEE8capacityB8ne180100Ev, symObjAddr: 0xBEC8, symBinAddr: 0x10001F2D8, symSize: 0x40 }
  - { offset: 0x6230F, size: 0x8, addend: 0x0, symName: __ZNSt3__114__split_bufferIdRNS_9allocatorIdEEE17__destruct_at_endB8ne180100EPd, symObjAddr: 0xBF08, symBinAddr: 0x10001F318, symSize: 0x2C }
  - { offset: 0x62343, size: 0x8, addend: 0x0, symName: __ZNSt3__114__split_bufferIdRNS_9allocatorIdEEE17__destruct_at_endB8ne180100EPdNS_17integral_constantIbLb0EEE, symObjAddr: 0xBF34, symBinAddr: 0x10001F344, symSize: 0x7C }
  - { offset: 0x62383, size: 0x8, addend: 0x0, symName: __ZNKSt3__114__split_bufferIdRNS_9allocatorIdEEE9__end_capB8ne180100Ev, symObjAddr: 0xBFB0, symBinAddr: 0x10001F3C0, symSize: 0x28 }
  - { offset: 0x623A9, size: 0x8, addend: 0x0, symName: __ZNKSt3__117__compressed_pairIPdRNS_9allocatorIdEEE5firstB8ne180100Ev, symObjAddr: 0xBFD8, symBinAddr: 0x10001F3E8, symSize: 0x24 }
  - { offset: 0x623CF, size: 0x8, addend: 0x0, symName: __ZNSt3__121discrete_distributionIiEclINS_23mersenne_twister_engineIjLm32ELm624ELm397ELm31ELj2567483615ELm11ELj4294967295ELm7ELj2636928640ELm15ELj4022730752ELm18ELj1812433253EEEEEiRT_RKNS1_10param_typeE, symObjAddr: 0xBFFC, symBinAddr: 0x10001F40C, symSize: 0x94 }
  - { offset: 0x6244C, size: 0x8, addend: 0x0, symName: __ZNSt3__125uniform_real_distributionIdEC1B8ne180100Ev, symObjAddr: 0xC090, symBinAddr: 0x10001F4A0, symSize: 0x34 }
  - { offset: 0x62476, size: 0x8, addend: 0x0, symName: __ZNKSt3__16vectorIdNS_9allocatorIdEEE5beginB8ne180100Ev, symObjAddr: 0xC158, symBinAddr: 0x10001F568, symSize: 0x30 }
  - { offset: 0x6249E, size: 0x8, addend: 0x0, symName: __ZNKSt3__16vectorIdNS_9allocatorIdEEE3endB8ne180100Ev, symObjAddr: 0xC188, symBinAddr: 0x10001F598, symSize: 0x30 }
  - { offset: 0x624C6, size: 0x8, addend: 0x0, symName: __ZNSt3__125uniform_real_distributionIdEclB8ne180100INS_23mersenne_twister_engineIjLm32ELm624ELm397ELm31ELj2567483615ELm11ELj4294967295ELm7ELj2636928640ELm15ELj4022730752ELm18ELj1812433253EEEEEdRT_, symObjAddr: 0xC1B8, symBinAddr: 0x10001F5C8, symSize: 0x30 }
  - { offset: 0x62503, size: 0x8, addend: 0x0, symName: __ZNSt3__125uniform_real_distributionIdEC1B8ne180100Edd, symObjAddr: 0xC1E8, symBinAddr: 0x10001F5F8, symSize: 0x3C }
  - { offset: 0x62549, size: 0x8, addend: 0x0, symName: __ZNSt3__125uniform_real_distributionIdEC2B8ne180100Edd, symObjAddr: 0xC224, symBinAddr: 0x10001F634, symSize: 0x3C }
  - { offset: 0x6258F, size: 0x8, addend: 0x0, symName: __ZNSt3__125uniform_real_distributionIdE10param_typeC1B8ne180100Edd, symObjAddr: 0xC260, symBinAddr: 0x10001F670, symSize: 0x3C }
  - { offset: 0x625D5, size: 0x8, addend: 0x0, symName: __ZNSt3__125uniform_real_distributionIdE10param_typeC2B8ne180100Edd, symObjAddr: 0xC29C, symBinAddr: 0x10001F6AC, symSize: 0x2C }
  - { offset: 0x6261B, size: 0x8, addend: 0x0, symName: __ZNKSt3__111__wrap_iterIPKdE4baseB8ne180100Ev, symObjAddr: 0xC2C8, symBinAddr: 0x10001F6D8, symSize: 0x18 }
  - { offset: 0x62641, size: 0x8, addend: 0x0, symName: __ZNSt3__18_IterOpsINS_17_ClassicAlgPolicyEE8distanceB8ne180100INS_11__wrap_iterIPKdEEEENS_15iterator_traitsIT_E15difference_typeES9_S9_, symObjAddr: 0xC438, symBinAddr: 0x10001F848, symSize: 0x3C }
  - { offset: 0x6267B, size: 0x8, addend: 0x0, symName: __ZNSt3__18_IterOpsINS_17_ClassicAlgPolicyEE4nextB8ne180100IRNS_11__wrap_iterIPKdEEEEu14__remove_cvrefIT_EOS9_NS_15iterator_traitsISA_E15difference_typeE, symObjAddr: 0xC490, symBinAddr: 0x10001F8A0, symSize: 0x40 }
  - { offset: 0x626B5, size: 0x8, addend: 0x0, symName: __ZNKSt3__111__wrap_iterIPKdEdeB8ne180100Ev, symObjAddr: 0xC530, symBinAddr: 0x10001F940, symSize: 0x18 }
  - { offset: 0x626DB, size: 0x8, addend: 0x0, symName: __ZNSt3__111__wrap_iterIPKdEppB8ne180100Ev, symObjAddr: 0xC548, symBinAddr: 0x10001F958, symSize: 0x20 }
  - { offset: 0x62701, size: 0x8, addend: 0x0, symName: __ZNSt3__111__wrap_iterIPKdEpLB8ne180100El, symObjAddr: 0xC688, symBinAddr: 0x10001FA84, symSize: 0x28 }
  - { offset: 0x62735, size: 0x8, addend: 0x0, symName: __ZNKSt3__16__lessIvvEclB8ne180100IddEEbRKT_RKT0_, symObjAddr: 0xC6B0, symBinAddr: 0x10001FAAC, symSize: 0x30 }
  - { offset: 0x62793, size: 0x8, addend: 0x0, symName: __ZNKSt3__110__identityclB8ne180100IRKdEEOT_S5_, symObjAddr: 0xC6E0, symBinAddr: 0x10001FADC, symSize: 0x18 }
  - { offset: 0x627D0, size: 0x8, addend: 0x0, symName: __ZNKSt3__16vectorIdNS_9allocatorIdEEE11__make_iterB8ne180100EPKd, symObjAddr: 0xC6F8, symBinAddr: 0x10001FAF4, symSize: 0x30 }
  - { offset: 0x62805, size: 0x8, addend: 0x0, symName: __ZNSt3__111__wrap_iterIPKdEC1B8ne180100ES2_, symObjAddr: 0xC728, symBinAddr: 0x10001FB24, symSize: 0x34 }
  - { offset: 0x6283D, size: 0x8, addend: 0x0, symName: __ZNSt3__111__wrap_iterIPKdEC2B8ne180100ES2_, symObjAddr: 0xC75C, symBinAddr: 0x10001FB58, symSize: 0x20 }
  - { offset: 0x62875, size: 0x8, addend: 0x0, symName: __ZNSt3__125uniform_real_distributionIdEclINS_23mersenne_twister_engineIjLm32ELm624ELm397ELm31ELj2567483615ELm11ELj4294967295ELm7ELj2636928640ELm15ELj4022730752ELm18ELj1812433253EEEEEdRT_RKNS1_10param_typeE, symObjAddr: 0xC77C, symBinAddr: 0x10001FB78, symSize: 0x6C }
  - { offset: 0x628C0, size: 0x8, addend: 0x0, symName: __ZNKSt3__125uniform_real_distributionIdE10param_type1bB8ne180100Ev, symObjAddr: 0xC7E8, symBinAddr: 0x10001FBE4, symSize: 0x18 }
  - { offset: 0x628E6, size: 0x8, addend: 0x0, symName: __ZNKSt3__125uniform_real_distributionIdE10param_type1aB8ne180100Ev, symObjAddr: 0xC800, symBinAddr: 0x10001FBFC, symSize: 0x18 }
  - { offset: 0x6290C, size: 0x8, addend: 0x0, symName: __ZNSt3__123mersenne_twister_engineIjLm32ELm624ELm397ELm31ELj2567483615ELm11ELj4294967295ELm7ELj2636928640ELm15ELj4022730752ELm18ELj1812433253EE3maxB8ne180100Ev, symObjAddr: 0xC928, symBinAddr: 0x10001FD24, symSize: 0x8 }
  - { offset: 0x62920, size: 0x8, addend: 0x0, symName: __ZNSt3__123mersenne_twister_engineIjLm32ELm624ELm397ELm31ELj2567483615ELm11ELj4294967295ELm7ELj2636928640ELm15ELj4022730752ELm18ELj1812433253EE3minB8ne180100Ev, symObjAddr: 0xC930, symBinAddr: 0x10001FD2C, symSize: 0x8 }
  - { offset: 0x62934, size: 0x8, addend: 0x0, symName: __ZNSt3__123mersenne_twister_engineIjLm32ELm624ELm397ELm31ELj2567483615ELm11ELj4294967295ELm7ELj2636928640ELm15ELj4022730752ELm18ELj1812433253EEclEv, symObjAddr: 0xC938, symBinAddr: 0x10001FD34, symSize: 0x14C }
  - { offset: 0x629A7, size: 0x8, addend: 0x0, symName: __ZNSt3__123mersenne_twister_engineIjLm32ELm624ELm397ELm31ELj2567483615ELm11ELj4294967295ELm7ELj2636928640ELm15ELj4022730752ELm18ELj1812433253EE8__rshiftB8ne180100ILm1ETnNS_9enable_ifIXltT_L_ZNS1_3_DtEEEiE4typeELi0EEEjj, symObjAddr: 0xCA84, symBinAddr: 0x10001FE80, symSize: 0x18 }
  - { offset: 0x629DB, size: 0x8, addend: 0x0, symName: __ZNSt3__123mersenne_twister_engineIjLm32ELm624ELm397ELm31ELj2567483615ELm11ELj4294967295ELm7ELj2636928640ELm15ELj4022730752ELm18ELj1812433253EE8__rshiftB8ne180100ILm11ETnNS_9enable_ifIXltT_L_ZNS1_3_DtEEEiE4typeELi0EEEjj, symObjAddr: 0xCA9C, symBinAddr: 0x10001FE98, symSize: 0x18 }
  - { offset: 0x62A0F, size: 0x8, addend: 0x0, symName: __ZNSt3__123mersenne_twister_engineIjLm32ELm624ELm397ELm31ELj2567483615ELm11ELj4294967295ELm7ELj2636928640ELm15ELj4022730752ELm18ELj1812433253EE8__lshiftB8ne180100ILm7ETnNS_9enable_ifIXltT_Lm32EEiE4typeELi0EEEjj, symObjAddr: 0xCAB4, symBinAddr: 0x10001FEB0, symSize: 0x1C }
  - { offset: 0x62A43, size: 0x8, addend: 0x0, symName: __ZNSt3__123mersenne_twister_engineIjLm32ELm624ELm397ELm31ELj2567483615ELm11ELj4294967295ELm7ELj2636928640ELm15ELj4022730752ELm18ELj1812433253EE8__lshiftB8ne180100ILm15ETnNS_9enable_ifIXltT_Lm32EEiE4typeELi0EEEjj, symObjAddr: 0xCAD0, symBinAddr: 0x10001FECC, symSize: 0x1C }
  - { offset: 0x62A77, size: 0x8, addend: 0x0, symName: __ZNSt3__123mersenne_twister_engineIjLm32ELm624ELm397ELm31ELj2567483615ELm11ELj4294967295ELm7ELj2636928640ELm15ELj4022730752ELm18ELj1812433253EE8__rshiftB8ne180100ILm18ETnNS_9enable_ifIXltT_L_ZNS1_3_DtEEEiE4typeELi0EEEjj, symObjAddr: 0xCAEC, symBinAddr: 0x10001FEE8, symSize: 0x18 }
  - { offset: 0x62AAB, size: 0x8, addend: 0x0, symName: __ZNKSt3__16__lessIvvEclB8ne180100IiiEEbRKT_RKT0_, symObjAddr: 0xCB58, symBinAddr: 0x10001FF54, symSize: 0x30 }
  - { offset: 0x62B09, size: 0x8, addend: 0x0, symName: '__ZZ12sample_top_kP20OPT_token_data_arrayimENK3$_0clERK14OPT_token_dataS4_', symObjAddr: 0xD148, symBinAddr: 0x100020544, symSize: 0x30 }
  - { offset: 0x62B5F, size: 0x8, addend: 0x0, symName: '__ZZ21sample_token_mirostatiP20OPT_token_data_arrayffiPfENK3$_0clERK14OPT_token_data', symObjAddr: 0xEEF0, symBinAddr: 0x1000222EC, symSize: 0x30 }
  - { offset: 0x62BA1, size: 0x8, addend: 0x0, symName: '__ZZ24sample_token_mirostat_v2P20OPT_token_data_arrayffPfENK3$_0clERK14OPT_token_data', symObjAddr: 0xEF48, symBinAddr: 0x100022344, symSize: 0x50 }
  - { offset: 0x62BE3, size: 0x8, addend: 0x0, symName: '__ZZ24sample_token_mirostat_v2P20OPT_token_data_arrayffPfENK3$_1clERK14OPT_token_data', symObjAddr: 0xEF98, symBinAddr: 0x100022394, symSize: 0x30 }
  - { offset: 0x62C1B, size: 0x8, addend: 0x0, symName: __ZNSt3__16vectorIfNS_9allocatorIfEEEC2Em, symObjAddr: 0xEFC8, symBinAddr: 0x1000223C4, symSize: 0xD0 }
  - { offset: 0x62C6B, size: 0x8, addend: 0x0, symName: __ZNSt3__16vectorIfNS_9allocatorIfEEE11__vallocateB8ne180100Em, symObjAddr: 0xF0D8, symBinAddr: 0x1000224D4, symSize: 0xA8 }
  - { offset: 0x62CAF, size: 0x8, addend: 0x0, symName: __ZNSt3__16vectorIfNS_9allocatorIfEEE18__construct_at_endEm, symObjAddr: 0xF180, symBinAddr: 0x10002257C, symSize: 0xC4 }
  - { offset: 0x62D21, size: 0x8, addend: 0x0, symName: __ZNSt3__128__exception_guard_exceptionsINS_6vectorIfNS_9allocatorIfEEE16__destroy_vectorEE10__completeB8ne180100Ev, symObjAddr: 0xF244, symBinAddr: 0x100022640, symSize: 0x1C }
  - { offset: 0x62D47, size: 0x8, addend: 0x0, symName: __ZNSt3__128__exception_guard_exceptionsINS_6vectorIfNS_9allocatorIfEEE16__destroy_vectorEED1B8ne180100Ev, symObjAddr: 0xF260, symBinAddr: 0x10002265C, symSize: 0x2C }
  - { offset: 0x62D71, size: 0x8, addend: 0x0, symName: __ZNSt3__128__exception_guard_exceptionsINS_6vectorIfNS_9allocatorIfEEE16__destroy_vectorEEC1B8ne180100ES5_, symObjAddr: 0xF28C, symBinAddr: 0x100022688, symSize: 0x34 }
  - { offset: 0x62DA9, size: 0x8, addend: 0x0, symName: __ZNSt3__128__exception_guard_exceptionsINS_6vectorIfNS_9allocatorIfEEE16__destroy_vectorEEC2B8ne180100ES5_, symObjAddr: 0xF2C0, symBinAddr: 0x1000226BC, symSize: 0x24 }
  - { offset: 0x62DE1, size: 0x8, addend: 0x0, symName: __ZNSt3__116allocator_traitsINS_9allocatorIfEEE9constructB8ne180100IfJEvEEvRS2_PT_DpOT0_, symObjAddr: 0xF2E4, symBinAddr: 0x1000226E0, symSize: 0x2C }
  - { offset: 0x62E23, size: 0x8, addend: 0x0, symName: __ZNSt3__19allocatorIfE9constructB8ne180100IfJEEEvPT_DpOT0_, symObjAddr: 0xF310, symBinAddr: 0x10002270C, symSize: 0x20 }
  - { offset: 0x62E65, size: 0x8, addend: 0x0, symName: __ZNSt3__128__exception_guard_exceptionsINS_6vectorIfNS_9allocatorIfEEE16__destroy_vectorEED2B8ne180100Ev, symObjAddr: 0xF330, symBinAddr: 0x10002272C, symSize: 0x48 }
  - { offset: 0x62E8F, size: 0x8, addend: 0x0, symName: __ZNSt3__16vectorImNS_9allocatorImEEEC2Em, symObjAddr: 0xF378, symBinAddr: 0x100022774, symSize: 0xD0 }
  - { offset: 0x62EDF, size: 0x8, addend: 0x0, symName: __ZNSt3__117__compressed_pairIPmNS_9allocatorImEEEC1B8ne180100IDnNS_18__default_init_tagEEEOT_OT0_, symObjAddr: 0xF448, symBinAddr: 0x100022844, symSize: 0x3C }
  - { offset: 0x62F37, size: 0x8, addend: 0x0, symName: __ZNSt3__16vectorImNS_9allocatorImEEE16__destroy_vectorC1B8ne180100ERS3_, symObjAddr: 0xF4C4, symBinAddr: 0x1000228C0, symSize: 0x34 }
  - { offset: 0x62F70, size: 0x8, addend: 0x0, symName: __ZNSt3__16vectorImNS_9allocatorImEEE11__vallocateB8ne180100Em, symObjAddr: 0xF4F8, symBinAddr: 0x1000228F4, symSize: 0xA8 }
  - { offset: 0x62FB4, size: 0x8, addend: 0x0, symName: __ZNSt3__16vectorImNS_9allocatorImEEE18__construct_at_endEm, symObjAddr: 0xF5A0, symBinAddr: 0x10002299C, symSize: 0xC4 }
  - { offset: 0x63026, size: 0x8, addend: 0x0, symName: __ZNSt3__128__exception_guard_exceptionsINS_6vectorImNS_9allocatorImEEE16__destroy_vectorEE10__completeB8ne180100Ev, symObjAddr: 0xF664, symBinAddr: 0x100022A60, symSize: 0x1C }
  - { offset: 0x6304C, size: 0x8, addend: 0x0, symName: __ZNSt3__128__exception_guard_exceptionsINS_6vectorImNS_9allocatorImEEE16__destroy_vectorEED1B8ne180100Ev, symObjAddr: 0xF680, symBinAddr: 0x100022A7C, symSize: 0x2C }
  - { offset: 0x63076, size: 0x8, addend: 0x0, symName: __ZNSt3__117__compressed_pairIPmNS_9allocatorImEEEC2B8ne180100IDnNS_18__default_init_tagEEEOT_OT0_, symObjAddr: 0xF6AC, symBinAddr: 0x100022AA8, symSize: 0x40 }
  - { offset: 0x630CE, size: 0x8, addend: 0x0, symName: __ZNSt3__122__compressed_pair_elemIPmLi0ELb0EEC2B8ne180100IDnvEEOT_, symObjAddr: 0xF6EC, symBinAddr: 0x100022AE8, symSize: 0x1C }
  - { offset: 0x63110, size: 0x8, addend: 0x0, symName: __ZNSt3__122__compressed_pair_elemINS_9allocatorImEELi1ELb1EEC2B8ne180100ENS_18__default_init_tagE, symObjAddr: 0xF708, symBinAddr: 0x100022B04, symSize: 0x2C }
  - { offset: 0x63144, size: 0x8, addend: 0x0, symName: __ZNSt3__19allocatorImEC2B8ne180100Ev, symObjAddr: 0xF734, symBinAddr: 0x100022B30, symSize: 0x2C }
  - { offset: 0x6316E, size: 0x8, addend: 0x0, symName: __ZNSt3__116__non_trivial_ifILb1ENS_9allocatorImEEEC2B8ne180100Ev, symObjAddr: 0xF760, symBinAddr: 0x100022B5C, symSize: 0x14 }
  - { offset: 0x63198, size: 0x8, addend: 0x0, symName: __ZNSt3__128__exception_guard_exceptionsINS_6vectorImNS_9allocatorImEEE16__destroy_vectorEEC1B8ne180100ES5_, symObjAddr: 0xF774, symBinAddr: 0x100022B70, symSize: 0x34 }
  - { offset: 0x631D0, size: 0x8, addend: 0x0, symName: __ZNSt3__128__exception_guard_exceptionsINS_6vectorImNS_9allocatorImEEE16__destroy_vectorEEC2B8ne180100ES5_, symObjAddr: 0xF7A8, symBinAddr: 0x100022BA4, symSize: 0x24 }
  - { offset: 0x63208, size: 0x8, addend: 0x0, symName: __ZNSt3__16vectorImNS_9allocatorImEEE16__destroy_vectorC2B8ne180100ERS3_, symObjAddr: 0xF7CC, symBinAddr: 0x100022BC8, symSize: 0x20 }
  - { offset: 0x63241, size: 0x8, addend: 0x0, symName: __ZNKSt3__16vectorImNS_9allocatorImEEE8max_sizeEv, symObjAddr: 0xF7EC, symBinAddr: 0x100022BE8, symSize: 0x60 }
  - { offset: 0x63269, size: 0x8, addend: 0x0, symName: __ZNKSt3__16vectorImNS_9allocatorImEEE20__throw_length_errorB8ne180100Ev, symObjAddr: 0xF84C, symBinAddr: 0x100022C48, symSize: 0x1C }
  - { offset: 0x6328F, size: 0x8, addend: 0x0, symName: __ZNSt3__16vectorImNS_9allocatorImEEE7__allocB8ne180100Ev, symObjAddr: 0xF8A8, symBinAddr: 0x100022CA4, symSize: 0x28 }
  - { offset: 0x632B5, size: 0x8, addend: 0x0, symName: __ZNSt3__16vectorImNS_9allocatorImEEE9__end_capB8ne180100Ev, symObjAddr: 0xF8D0, symBinAddr: 0x100022CCC, symSize: 0x28 }
  - { offset: 0x632DB, size: 0x8, addend: 0x0, symName: __ZNKSt3__16vectorImNS_9allocatorImEEE14__annotate_newB8ne180100Em, symObjAddr: 0xF8F8, symBinAddr: 0x100022CF4, symSize: 0x14 }
  - { offset: 0x6331B, size: 0x8, addend: 0x0, symName: __ZNSt3__116allocator_traitsINS_9allocatorImEEE8max_sizeB8ne180100IS2_vEEmRKS2_, symObjAddr: 0xF90C, symBinAddr: 0x100022D08, symSize: 0x24 }
  - { offset: 0x63349, size: 0x8, addend: 0x0, symName: __ZNKSt3__16vectorImNS_9allocatorImEEE7__allocB8ne180100Ev, symObjAddr: 0xF930, symBinAddr: 0x100022D2C, symSize: 0x28 }
  - { offset: 0x6336F, size: 0x8, addend: 0x0, symName: __ZNKSt3__19allocatorImE8max_sizeB8ne180100Ev, symObjAddr: 0xF958, symBinAddr: 0x100022D54, symSize: 0x14 }
  - { offset: 0x63395, size: 0x8, addend: 0x0, symName: __ZNKSt3__117__compressed_pairIPmNS_9allocatorImEEE6secondB8ne180100Ev, symObjAddr: 0xF96C, symBinAddr: 0x100022D68, symSize: 0x24 }
  - { offset: 0x633BB, size: 0x8, addend: 0x0, symName: __ZNKSt3__122__compressed_pair_elemINS_9allocatorImEELi1ELb1EE5__getB8ne180100Ev, symObjAddr: 0xF990, symBinAddr: 0x100022D8C, symSize: 0x14 }
  - { offset: 0x633E1, size: 0x8, addend: 0x0, symName: __ZNSt3__19allocatorImE8allocateB8ne180100Em, symObjAddr: 0xF9A4, symBinAddr: 0x100022DA0, symSize: 0x54 }
  - { offset: 0x63415, size: 0x8, addend: 0x0, symName: __ZNSt3__117__compressed_pairIPmNS_9allocatorImEEE6secondB8ne180100Ev, symObjAddr: 0xF9F8, symBinAddr: 0x100022DF4, symSize: 0x24 }
  - { offset: 0x6343B, size: 0x8, addend: 0x0, symName: __ZNSt3__122__compressed_pair_elemINS_9allocatorImEELi1ELb1EE5__getB8ne180100Ev, symObjAddr: 0xFA1C, symBinAddr: 0x100022E18, symSize: 0x14 }
  - { offset: 0x63461, size: 0x8, addend: 0x0, symName: __ZNSt3__117__compressed_pairIPmNS_9allocatorImEEE5firstB8ne180100Ev, symObjAddr: 0xFA30, symBinAddr: 0x100022E2C, symSize: 0x24 }
  - { offset: 0x63487, size: 0x8, addend: 0x0, symName: __ZNSt3__122__compressed_pair_elemIPmLi0ELb0EE5__getB8ne180100Ev, symObjAddr: 0xFA54, symBinAddr: 0x100022E50, symSize: 0x14 }
  - { offset: 0x634C8, size: 0x8, addend: 0x0, symName: __ZNSt3__16vectorImNS_9allocatorImEEE21_ConstructTransactionC1B8ne180100ERS3_m, symObjAddr: 0xFA68, symBinAddr: 0x100022E64, symSize: 0x3C }
  - { offset: 0x63510, size: 0x8, addend: 0x0, symName: __ZNSt3__116allocator_traitsINS_9allocatorImEEE9constructB8ne180100ImJEvEEvRS2_PT_DpOT0_, symObjAddr: 0xFAA4, symBinAddr: 0x100022EA0, symSize: 0x2C }
  - { offset: 0x63552, size: 0x8, addend: 0x0, symName: __ZNSt3__16vectorImNS_9allocatorImEEE21_ConstructTransactionD1B8ne180100Ev, symObjAddr: 0xFAE4, symBinAddr: 0x100022EE0, symSize: 0x2C }
  - { offset: 0x6357C, size: 0x8, addend: 0x0, symName: __ZNSt3__16vectorImNS_9allocatorImEEE21_ConstructTransactionC2B8ne180100ERS3_m, symObjAddr: 0xFB10, symBinAddr: 0x100022F0C, symSize: 0x44 }
  - { offset: 0x635C4, size: 0x8, addend: 0x0, symName: __ZNSt3__19allocatorImE9constructB8ne180100ImJEEEvPT_DpOT0_, symObjAddr: 0xFB54, symBinAddr: 0x100022F50, symSize: 0x1C }
  - { offset: 0x63606, size: 0x8, addend: 0x0, symName: __ZNSt3__16vectorImNS_9allocatorImEEE21_ConstructTransactionD2B8ne180100Ev, symObjAddr: 0xFB70, symBinAddr: 0x100022F6C, symSize: 0x20 }
  - { offset: 0x63630, size: 0x8, addend: 0x0, symName: __ZNSt3__128__exception_guard_exceptionsINS_6vectorImNS_9allocatorImEEE16__destroy_vectorEED2B8ne180100Ev, symObjAddr: 0xFB90, symBinAddr: 0x100022F8C, symSize: 0x50 }
  - { offset: 0x6365A, size: 0x8, addend: 0x0, symName: __ZNSt3__16vectorImNS_9allocatorImEEE16__destroy_vectorclB8ne180100Ev, symObjAddr: 0xFBE0, symBinAddr: 0x100022FDC, symSize: 0x88 }
  - { offset: 0x63680, size: 0x8, addend: 0x0, symName: __ZNSt3__16vectorImNS_9allocatorImEEE7__clearB8ne180100Ev, symObjAddr: 0xFC68, symBinAddr: 0x100023064, symSize: 0x28 }
  - { offset: 0x636A6, size: 0x8, addend: 0x0, symName: __ZNKSt3__16vectorImNS_9allocatorImEEE17__annotate_deleteB8ne180100Ev, symObjAddr: 0xFC90, symBinAddr: 0x10002308C, symSize: 0x10 }
  - { offset: 0x636CC, size: 0x8, addend: 0x0, symName: __ZNSt3__116allocator_traitsINS_9allocatorImEEE10deallocateB8ne180100ERS2_Pmm, symObjAddr: 0xFCA0, symBinAddr: 0x10002309C, symSize: 0x34 }
  - { offset: 0x6370E, size: 0x8, addend: 0x0, symName: __ZNKSt3__16vectorImNS_9allocatorImEEE8capacityB8ne180100Ev, symObjAddr: 0xFCD4, symBinAddr: 0x1000230D0, symSize: 0x40 }
  - { offset: 0x63734, size: 0x8, addend: 0x0, symName: __ZNSt3__16vectorImNS_9allocatorImEEE22__base_destruct_at_endB8ne180100EPm, symObjAddr: 0xFD14, symBinAddr: 0x100023110, symSize: 0x88 }
  - { offset: 0x63778, size: 0x8, addend: 0x0, symName: __ZNSt3__116allocator_traitsINS_9allocatorImEEE7destroyB8ne180100ImvEEvRS2_PT_, symObjAddr: 0xFD9C, symBinAddr: 0x100023198, symSize: 0x2C }
  - { offset: 0x637B5, size: 0x8, addend: 0x0, symName: __ZNSt3__19allocatorImE7destroyB8ne180100EPm, symObjAddr: 0xFDC8, symBinAddr: 0x1000231C4, symSize: 0x14 }
  - { offset: 0x637E9, size: 0x8, addend: 0x0, symName: __ZNSt3__19allocatorImE10deallocateB8ne180100EPmm, symObjAddr: 0xFDDC, symBinAddr: 0x1000231D8, symSize: 0x40 }
  - { offset: 0x6382B, size: 0x8, addend: 0x0, symName: __ZNKSt3__16vectorImNS_9allocatorImEEE9__end_capB8ne180100Ev, symObjAddr: 0xFE1C, symBinAddr: 0x100023218, symSize: 0x28 }
  - { offset: 0x63851, size: 0x8, addend: 0x0, symName: __ZNKSt3__117__compressed_pairIPmNS_9allocatorImEEE5firstB8ne180100Ev, symObjAddr: 0xFE44, symBinAddr: 0x100023240, symSize: 0x24 }
  - { offset: 0x63877, size: 0x8, addend: 0x0, symName: __ZNKSt3__122__compressed_pair_elemIPmLi0ELb0EE5__getB8ne180100Ev, symObjAddr: 0xFE68, symBinAddr: 0x100023264, symSize: 0x14 }
  - { offset: 0x6389D, size: 0x8, addend: 0x0, symName: __ZNSt3__16vectorImNS_9allocatorImEEED2B8ne180100Ev, symObjAddr: 0xFE7C, symBinAddr: 0x100023278, symSize: 0x40 }
  - { offset: 0x638C7, size: 0x8, addend: 0x0, symName: __ZNSt3__16vectorImNS_9allocatorImEEE11__make_iterB8ne180100EPm, symObjAddr: 0xFEBC, symBinAddr: 0x1000232B8, symSize: 0x30 }
  - { offset: 0x638FC, size: 0x8, addend: 0x0, symName: __ZNSt3__111__wrap_iterIPmEC1B8ne180100ES1_, symObjAddr: 0xFEEC, symBinAddr: 0x1000232E8, symSize: 0x34 }
  - { offset: 0x63934, size: 0x8, addend: 0x0, symName: __ZNSt3__111__wrap_iterIPmEC2B8ne180100ES1_, symObjAddr: 0xFF20, symBinAddr: 0x10002331C, symSize: 0x20 }
  - { offset: 0x6396C, size: 0x8, addend: 0x0, symName: __ZNKSt3__111__wrap_iterIPmEdeB8ne180100Ev, symObjAddr: 0xFF70, symBinAddr: 0x10002336C, symSize: 0x18 }
  - { offset: 0x63992, size: 0x8, addend: 0x0, symName: __ZNSt3__111__wrap_iterIPmEppB8ne180100Ev, symObjAddr: 0xFF88, symBinAddr: 0x100023384, symSize: 0x20 }
  - { offset: 0x639B8, size: 0x8, addend: 0x0, symName: __ZNKSt3__111__wrap_iterIPmE4baseB8ne180100Ev, symObjAddr: 0xFFEC, symBinAddr: 0x1000233E8, symSize: 0x18 }
  - { offset: 0x639E8, size: 0x8, addend: 0x0, symName: '__ZZ14sample_typicalP20OPT_token_data_arrayfmENK3$_0clEmm', symObjAddr: 0x105B0, symBinAddr: 0x1000239AC, symSize: 0x60 }
  - { offset: 0x63A30, size: 0x8, addend: 0x0, symName: __ZNSt3__18_IterOpsINS_17_ClassicAlgPolicyEE9iter_swapB8ne180100IRPmS5_EEvOT_OT0_, symObjAddr: 0x10610, symBinAddr: 0x100023A0C, symSize: 0x34 }
  - { offset: 0x63A79, size: 0x8, addend: 0x0, symName: __ZNSt3__18_IterOpsINS_17_ClassicAlgPolicyEE9iter_swapB8ne180100IRPmS4_EEvOT_OT0_, symObjAddr: 0x10B80, symBinAddr: 0x100023F7C, symSize: 0x34 }
  - { offset: 0x63AC2, size: 0x8, addend: 0x0, symName: __ZNSt3__18_IterOpsINS_17_ClassicAlgPolicyEE11__iter_moveB8ne180100IRPmTnNS_9enable_ifIXsr12is_referenceIDTdeclsr3stdE7declvalIRT_EEEEE5valueEiE4typeELi0EEEDTclsr3stdE4movedeclsr3stdE7declvalIS8_EEEEOS7_, symObjAddr: 0x1183C, symBinAddr: 0x100024C38, symSize: 0x28 }
  - { offset: 0x63AF4, size: 0x8, addend: 0x0, symName: __ZNSt3__18_IterOpsINS_17_ClassicAlgPolicyEE25__validate_iter_referenceB8ne180100IRPmEEvv, symObjAddr: 0x11864, symBinAddr: 0x100024C60, symSize: 0x4 }
  - { offset: 0x63B12, size: 0x8, addend: 0x0, symName: __ZNSt3__18_IterOpsINS_17_ClassicAlgPolicyEE4nextB8ne180100IPmEET_S5_S5_, symObjAddr: 0x11868, symBinAddr: 0x100024C64, symSize: 0x18 }
  - { offset: 0x63B48, size: 0x8, addend: 0x0, symName: __ZNSt3__18_IterOpsINS_17_ClassicAlgPolicyEE9iter_swapB8ne180100IPmS4_EEvOT_OT0_, symObjAddr: 0x126EC, symBinAddr: 0x100025AE8, symSize: 0x34 }
  - { offset: 0x63BA7, size: 0x8, addend: 0x0, symName: __ZNSt3__14pairIPmbEC1B8ne180100IRS1_RbTnNS_9enable_ifIXclsr10_CheckArgsE17__enable_implicitIT_T0_EEEiE4typeELi0EEEOS7_OS8_, symObjAddr: 0x12720, symBinAddr: 0x100025B1C, symSize: 0x3C }
  - { offset: 0x63C05, size: 0x8, addend: 0x0, symName: __ZNSt3__14pairIPmbEC2B8ne180100IRS1_RbTnNS_9enable_ifIXclsr10_CheckArgsE17__enable_implicitIT_T0_EEEiE4typeELi0EEEOS7_OS8_, symObjAddr: 0x1275C, symBinAddr: 0x100025B58, symSize: 0x38 }
  - { offset: 0x63C63, size: 0x8, addend: 0x0, symName: __ZNSt3__118__unwrap_iter_implINS_11__wrap_iterIPmEELb1EE8__unwrapB8ne180100ES3_, symObjAddr: 0x12794, symBinAddr: 0x100025B90, symSize: 0x28 }
  - { offset: 0x63C91, size: 0x8, addend: 0x0, symName: __ZNSt3__119__to_address_helperINS_11__wrap_iterIPmEEvE6__callB8ne180100ERKS3_, symObjAddr: 0x127E0, symBinAddr: 0x100025BDC, symSize: 0x30 }
  - { offset: 0x63CB4, size: 0x8, addend: 0x0, symName: __ZNSt3__114pointer_traitsINS_11__wrap_iterIPmEEE10to_addressB8ne180100ES3_, symObjAddr: 0x12810, symBinAddr: 0x100025C0C, symSize: 0x2C }
  - { offset: 0x63CD7, size: 0x8, addend: 0x0, symName: __ZNSt3__16vectorI14OPT_token_dataNS_9allocatorIS1_EEEC2B8ne180100Ev, symObjAddr: 0x1283C, symBinAddr: 0x100025C38, symSize: 0x4C }
  - { offset: 0x63D01, size: 0x8, addend: 0x0, symName: __ZNSt3__117__compressed_pairIP14OPT_token_dataNS_9allocatorIS1_EEEC1B8ne180100IDnNS_18__default_init_tagEEEOT_OT0_, symObjAddr: 0x12888, symBinAddr: 0x100025C84, symSize: 0x3C }
  - { offset: 0x63D59, size: 0x8, addend: 0x0, symName: __ZNSt3__117__compressed_pairIP14OPT_token_dataNS_9allocatorIS1_EEEC2B8ne180100IDnNS_18__default_init_tagEEEOT_OT0_, symObjAddr: 0x128C4, symBinAddr: 0x100025CC0, symSize: 0x40 }
  - { offset: 0x63DB1, size: 0x8, addend: 0x0, symName: __ZNSt3__122__compressed_pair_elemIP14OPT_token_dataLi0ELb0EEC2B8ne180100IDnvEEOT_, symObjAddr: 0x12904, symBinAddr: 0x100025D00, symSize: 0x1C }
  - { offset: 0x63DF3, size: 0x8, addend: 0x0, symName: __ZNSt3__122__compressed_pair_elemINS_9allocatorI14OPT_token_dataEELi1ELb1EEC2B8ne180100ENS_18__default_init_tagE, symObjAddr: 0x12920, symBinAddr: 0x100025D1C, symSize: 0x2C }
  - { offset: 0x63E27, size: 0x8, addend: 0x0, symName: __ZNSt3__19allocatorI14OPT_token_dataEC2B8ne180100Ev, symObjAddr: 0x1294C, symBinAddr: 0x100025D48, symSize: 0x2C }
  - { offset: 0x63E51, size: 0x8, addend: 0x0, symName: __ZNSt3__116__non_trivial_ifILb1ENS_9allocatorI14OPT_token_dataEEEC2B8ne180100Ev, symObjAddr: 0x12978, symBinAddr: 0x100025D74, symSize: 0x14 }
  - { offset: 0x63E7B, size: 0x8, addend: 0x0, symName: __ZNSt3__16vectorI14OPT_token_dataNS_9allocatorIS1_EEED2B8ne180100Ev, symObjAddr: 0x1298C, symBinAddr: 0x100025D88, symSize: 0x44 }
  - { offset: 0x63EA5, size: 0x8, addend: 0x0, symName: __ZNSt3__16vectorI14OPT_token_dataNS_9allocatorIS1_EEE16__destroy_vectorC1B8ne180100ERS4_, symObjAddr: 0x129D0, symBinAddr: 0x100025DCC, symSize: 0x34 }
  - { offset: 0x63EDE, size: 0x8, addend: 0x0, symName: __ZNSt3__16vectorI14OPT_token_dataNS_9allocatorIS1_EEE16__destroy_vectorclB8ne180100Ev, symObjAddr: 0x12A04, symBinAddr: 0x100025E00, symSize: 0x88 }
  - { offset: 0x63F04, size: 0x8, addend: 0x0, symName: __ZNSt3__16vectorI14OPT_token_dataNS_9allocatorIS1_EEE16__destroy_vectorC2B8ne180100ERS4_, symObjAddr: 0x12A8C, symBinAddr: 0x100025E88, symSize: 0x20 }
  - { offset: 0x63F3D, size: 0x8, addend: 0x0, symName: __ZNSt3__16vectorI14OPT_token_dataNS_9allocatorIS1_EEE7__clearB8ne180100Ev, symObjAddr: 0x12AAC, symBinAddr: 0x100025EA8, symSize: 0x28 }
  - { offset: 0x63F63, size: 0x8, addend: 0x0, symName: __ZNKSt3__16vectorI14OPT_token_dataNS_9allocatorIS1_EEE17__annotate_deleteB8ne180100Ev, symObjAddr: 0x12AD4, symBinAddr: 0x100025ED0, symSize: 0x10 }
  - { offset: 0x63F89, size: 0x8, addend: 0x0, symName: __ZNSt3__116allocator_traitsINS_9allocatorI14OPT_token_dataEEE10deallocateB8ne180100ERS3_PS2_m, symObjAddr: 0x12AE4, symBinAddr: 0x100025EE0, symSize: 0x34 }
  - { offset: 0x63FCB, size: 0x8, addend: 0x0, symName: __ZNSt3__16vectorI14OPT_token_dataNS_9allocatorIS1_EEE7__allocB8ne180100Ev, symObjAddr: 0x12B18, symBinAddr: 0x100025F14, symSize: 0x28 }
  - { offset: 0x63FF1, size: 0x8, addend: 0x0, symName: __ZNKSt3__16vectorI14OPT_token_dataNS_9allocatorIS1_EEE8capacityB8ne180100Ev, symObjAddr: 0x12B40, symBinAddr: 0x100025F3C, symSize: 0x40 }
  - { offset: 0x64017, size: 0x8, addend: 0x0, symName: __ZNSt3__16vectorI14OPT_token_dataNS_9allocatorIS1_EEE22__base_destruct_at_endB8ne180100EPS1_, symObjAddr: 0x12B80, symBinAddr: 0x100025F7C, symSize: 0x88 }
  - { offset: 0x6405B, size: 0x8, addend: 0x0, symName: __ZNSt3__116allocator_traitsINS_9allocatorI14OPT_token_dataEEE7destroyB8ne180100IS2_vEEvRS3_PT_, symObjAddr: 0x12C08, symBinAddr: 0x100026004, symSize: 0x2C }
  - { offset: 0x64098, size: 0x8, addend: 0x0, symName: __ZNSt3__19allocatorI14OPT_token_dataE7destroyB8ne180100EPS1_, symObjAddr: 0x12C34, symBinAddr: 0x100026030, symSize: 0x14 }
  - { offset: 0x640CC, size: 0x8, addend: 0x0, symName: __ZNSt3__19allocatorI14OPT_token_dataE10deallocateB8ne180100EPS1_m, symObjAddr: 0x12C48, symBinAddr: 0x100026044, symSize: 0x44 }
  - { offset: 0x6410E, size: 0x8, addend: 0x0, symName: __ZNSt3__117__compressed_pairIP14OPT_token_dataNS_9allocatorIS1_EEE6secondB8ne180100Ev, symObjAddr: 0x12C8C, symBinAddr: 0x100026088, symSize: 0x24 }
  - { offset: 0x64134, size: 0x8, addend: 0x0, symName: __ZNSt3__122__compressed_pair_elemINS_9allocatorI14OPT_token_dataEELi1ELb1EE5__getB8ne180100Ev, symObjAddr: 0x12CB0, symBinAddr: 0x1000260AC, symSize: 0x14 }
  - { offset: 0x6415A, size: 0x8, addend: 0x0, symName: __ZNKSt3__16vectorI14OPT_token_dataNS_9allocatorIS1_EEE9__end_capB8ne180100Ev, symObjAddr: 0x12CC4, symBinAddr: 0x1000260C0, symSize: 0x28 }
  - { offset: 0x64180, size: 0x8, addend: 0x0, symName: __ZNKSt3__117__compressed_pairIP14OPT_token_dataNS_9allocatorIS1_EEE5firstB8ne180100Ev, symObjAddr: 0x12CEC, symBinAddr: 0x1000260E8, symSize: 0x24 }
  - { offset: 0x641A6, size: 0x8, addend: 0x0, symName: __ZNKSt3__122__compressed_pair_elemIP14OPT_token_dataLi0ELb0EE5__getB8ne180100Ev, symObjAddr: 0x12D10, symBinAddr: 0x10002610C, symSize: 0x14 }
  - { offset: 0x641CC, size: 0x8, addend: 0x0, symName: __ZNSt3__16vectorI14OPT_token_dataNS_9allocatorIS1_EEE9__end_capB8ne180100Ev, symObjAddr: 0x12D24, symBinAddr: 0x100026120, symSize: 0x28 }
  - { offset: 0x641F2, size: 0x8, addend: 0x0, symName: __ZNSt3__16vectorI14OPT_token_dataNS_9allocatorIS1_EEE22__construct_one_at_endB8ne180100IJRKS1_EEEvDpOT_, symObjAddr: 0x12D4C, symBinAddr: 0x100026148, symSize: 0x90 }
  - { offset: 0x64241, size: 0x8, addend: 0x0, symName: __ZNSt3__16vectorI14OPT_token_dataNS_9allocatorIS1_EEE21__push_back_slow_pathIRKS1_EEPS1_OT_, symObjAddr: 0x12DDC, symBinAddr: 0x1000261D8, symSize: 0xE8 }
  - { offset: 0x6429D, size: 0x8, addend: 0x0, symName: __ZNSt3__117__compressed_pairIP14OPT_token_dataNS_9allocatorIS1_EEE5firstB8ne180100Ev, symObjAddr: 0x12EC4, symBinAddr: 0x1000262C0, symSize: 0x24 }
  - { offset: 0x642C3, size: 0x8, addend: 0x0, symName: __ZNSt3__122__compressed_pair_elemIP14OPT_token_dataLi0ELb0EE5__getB8ne180100Ev, symObjAddr: 0x12EE8, symBinAddr: 0x1000262E4, symSize: 0x14 }
  - { offset: 0x64304, size: 0x8, addend: 0x0, symName: __ZNSt3__16vectorI14OPT_token_dataNS_9allocatorIS1_EEE21_ConstructTransactionC1B8ne180100ERS4_m, symObjAddr: 0x12EFC, symBinAddr: 0x1000262F8, symSize: 0x3C }
  - { offset: 0x6434C, size: 0x8, addend: 0x0, symName: __ZNSt3__116allocator_traitsINS_9allocatorI14OPT_token_dataEEE9constructB8ne180100IS2_JRKS2_EvEEvRS3_PT_DpOT0_, symObjAddr: 0x12F38, symBinAddr: 0x100026334, symSize: 0x34 }
  - { offset: 0x643A3, size: 0x8, addend: 0x0, symName: __ZNSt3__16vectorI14OPT_token_dataNS_9allocatorIS1_EEE21_ConstructTransactionD1B8ne180100Ev, symObjAddr: 0x12F6C, symBinAddr: 0x100026368, symSize: 0x2C }
  - { offset: 0x643CD, size: 0x8, addend: 0x0, symName: __ZNSt3__16vectorI14OPT_token_dataNS_9allocatorIS1_EEE21_ConstructTransactionC2B8ne180100ERS4_m, symObjAddr: 0x12F98, symBinAddr: 0x100026394, symSize: 0x4C }
  - { offset: 0x64415, size: 0x8, addend: 0x0, symName: __ZNSt3__19allocatorI14OPT_token_dataE9constructB8ne180100IS1_JRKS1_EEEvPT_DpOT0_, symObjAddr: 0x12FE4, symBinAddr: 0x1000263E0, symSize: 0x30 }
  - { offset: 0x6446B, size: 0x8, addend: 0x0, symName: __ZNSt3__16vectorI14OPT_token_dataNS_9allocatorIS1_EEE21_ConstructTransactionD2B8ne180100Ev, symObjAddr: 0x13014, symBinAddr: 0x100026410, symSize: 0x20 }
  - { offset: 0x64495, size: 0x8, addend: 0x0, symName: __ZNKSt3__16vectorI14OPT_token_dataNS_9allocatorIS1_EEE11__recommendB8ne180100Em, symObjAddr: 0x13034, symBinAddr: 0x100026430, symSize: 0xAC }
  - { offset: 0x644EA, size: 0x8, addend: 0x0, symName: __ZNSt3__114__split_bufferI14OPT_token_dataRNS_9allocatorIS1_EEEC1EmmS4_, symObjAddr: 0x130E0, symBinAddr: 0x1000264DC, symSize: 0x44 }
  - { offset: 0x64540, size: 0x8, addend: 0x0, symName: __ZNSt3__114__split_bufferI14OPT_token_dataRNS_9allocatorIS1_EEED1Ev, symObjAddr: 0x13234, symBinAddr: 0x100026630, symSize: 0x2C }
  - { offset: 0x6456C, size: 0x8, addend: 0x0, symName: __ZNKSt3__16vectorI14OPT_token_dataNS_9allocatorIS1_EEE8max_sizeEv, symObjAddr: 0x13260, symBinAddr: 0x10002665C, symSize: 0x60 }
  - { offset: 0x64594, size: 0x8, addend: 0x0, symName: __ZNKSt3__16vectorI14OPT_token_dataNS_9allocatorIS1_EEE20__throw_length_errorB8ne180100Ev, symObjAddr: 0x132C0, symBinAddr: 0x1000266BC, symSize: 0x1C }
  - { offset: 0x645C5, size: 0x8, addend: 0x0, symName: __ZNSt3__116allocator_traitsINS_9allocatorI14OPT_token_dataEEE8max_sizeB8ne180100IS3_vEEmRKS3_, symObjAddr: 0x132DC, symBinAddr: 0x1000266D8, symSize: 0x24 }
  - { offset: 0x645F3, size: 0x8, addend: 0x0, symName: __ZNKSt3__16vectorI14OPT_token_dataNS_9allocatorIS1_EEE7__allocB8ne180100Ev, symObjAddr: 0x13300, symBinAddr: 0x1000266FC, symSize: 0x28 }
  - { offset: 0x64619, size: 0x8, addend: 0x0, symName: __ZNKSt3__19allocatorI14OPT_token_dataE8max_sizeB8ne180100Ev, symObjAddr: 0x13328, symBinAddr: 0x100026724, symSize: 0x18 }
  - { offset: 0x6463F, size: 0x8, addend: 0x0, symName: __ZNKSt3__117__compressed_pairIP14OPT_token_dataNS_9allocatorIS1_EEE6secondB8ne180100Ev, symObjAddr: 0x13340, symBinAddr: 0x10002673C, symSize: 0x24 }
  - { offset: 0x64665, size: 0x8, addend: 0x0, symName: __ZNKSt3__122__compressed_pair_elemINS_9allocatorI14OPT_token_dataEELi1ELb1EE5__getB8ne180100Ev, symObjAddr: 0x13364, symBinAddr: 0x100026760, symSize: 0x14 }
  - { offset: 0x6468B, size: 0x8, addend: 0x0, symName: __ZNSt3__114__split_bufferI14OPT_token_dataRNS_9allocatorIS1_EEEC2EmmS4_, symObjAddr: 0x13378, symBinAddr: 0x100026774, symSize: 0xD8 }
  - { offset: 0x646FE, size: 0x8, addend: 0x0, symName: __ZNSt3__117__compressed_pairIP14OPT_token_dataRNS_9allocatorIS1_EEEC1B8ne180100IDnS5_EEOT_OT0_, symObjAddr: 0x13450, symBinAddr: 0x10002684C, symSize: 0x3C }
  - { offset: 0x64756, size: 0x8, addend: 0x0, symName: __ZNSt3__114__split_bufferI14OPT_token_dataRNS_9allocatorIS1_EEE7__allocB8ne180100Ev, symObjAddr: 0x134CC, symBinAddr: 0x1000268C8, symSize: 0x28 }
  - { offset: 0x6477C, size: 0x8, addend: 0x0, symName: __ZNSt3__114__split_bufferI14OPT_token_dataRNS_9allocatorIS1_EEE9__end_capB8ne180100Ev, symObjAddr: 0x134F4, symBinAddr: 0x1000268F0, symSize: 0x28 }
  - { offset: 0x647A2, size: 0x8, addend: 0x0, symName: __ZNSt3__117__compressed_pairIP14OPT_token_dataRNS_9allocatorIS1_EEEC2B8ne180100IDnS5_EEOT_OT0_, symObjAddr: 0x1351C, symBinAddr: 0x100026918, symSize: 0x48 }
  - { offset: 0x647FA, size: 0x8, addend: 0x0, symName: __ZNSt3__122__compressed_pair_elemIRNS_9allocatorI14OPT_token_dataEELi1ELb0EEC2B8ne180100IS4_vEEOT_, symObjAddr: 0x13564, symBinAddr: 0x100026960, symSize: 0x20 }
  - { offset: 0x6483C, size: 0x8, addend: 0x0, symName: __ZNSt3__19allocatorI14OPT_token_dataE8allocateB8ne180100Em, symObjAddr: 0x13584, symBinAddr: 0x100026980, symSize: 0x58 }
  - { offset: 0x64870, size: 0x8, addend: 0x0, symName: __ZNSt3__117__compressed_pairIP14OPT_token_dataRNS_9allocatorIS1_EEE6secondB8ne180100Ev, symObjAddr: 0x135DC, symBinAddr: 0x1000269D8, symSize: 0x28 }
  - { offset: 0x64896, size: 0x8, addend: 0x0, symName: __ZNSt3__122__compressed_pair_elemIRNS_9allocatorI14OPT_token_dataEELi1ELb0EE5__getB8ne180100Ev, symObjAddr: 0x13604, symBinAddr: 0x100026A00, symSize: 0x18 }
  - { offset: 0x648BC, size: 0x8, addend: 0x0, symName: __ZNSt3__117__compressed_pairIP14OPT_token_dataRNS_9allocatorIS1_EEE5firstB8ne180100Ev, symObjAddr: 0x1361C, symBinAddr: 0x100026A18, symSize: 0x24 }
  - { offset: 0x648E2, size: 0x8, addend: 0x0, symName: __ZNSt3__116reverse_iteratorIP14OPT_token_dataEC1B8ne180100ES2_, symObjAddr: 0x136B8, symBinAddr: 0x100026AB4, symSize: 0x34 }
  - { offset: 0x6491A, size: 0x8, addend: 0x0, symName: __ZNKSt3__116reverse_iteratorIP14OPT_token_dataE4baseB8ne180100Ev, symObjAddr: 0x136EC, symBinAddr: 0x100026AE8, symSize: 0x18 }
  - { offset: 0x64940, size: 0x8, addend: 0x0, symName: __ZNKSt3__16vectorI14OPT_token_dataNS_9allocatorIS1_EEE14__annotate_newB8ne180100Em, symObjAddr: 0x13740, symBinAddr: 0x100026B3C, symSize: 0x14 }
  - { offset: 0x64991, size: 0x8, addend: 0x0, symName: __ZNKSt3__111__move_loopINS_17_ClassicAlgPolicyEEclB8ne180100INS_16reverse_iteratorIP14OPT_token_dataEES7_S7_EENS_4pairIT_T1_EES9_T0_SA_, symObjAddr: 0x13A44, symBinAddr: 0x100026E40, symSize: 0xA8 }
  - { offset: 0x649FC, size: 0x8, addend: 0x0, symName: __ZNSt3__18_IterOpsINS_17_ClassicAlgPolicyEE11__iter_moveB8ne180100IRNS_16reverse_iteratorIP14OPT_token_dataEETnNS_9enable_ifIXsr12is_referenceIDTdeclsr3stdE7declvalIRT_EEEEE5valueEiE4typeELi0EEEDTclsr3stdE4movedeclsr3stdE7declvalISB_EEEEOSA_, symObjAddr: 0x13C7C, symBinAddr: 0x100027078, symSize: 0x28 }
  - { offset: 0x64A2E, size: 0x8, addend: 0x0, symName: __ZNKSt3__116reverse_iteratorIP14OPT_token_dataEdeB8ne180100Ev, symObjAddr: 0x13CA4, symBinAddr: 0x1000270A0, symSize: 0x28 }
  - { offset: 0x64A62, size: 0x8, addend: 0x0, symName: __ZNSt3__116reverse_iteratorIP14OPT_token_dataEppB8ne180100Ev, symObjAddr: 0x13CCC, symBinAddr: 0x1000270C8, symSize: 0x20 }
  - { offset: 0x64A88, size: 0x8, addend: 0x0, symName: __ZNSt3__18_IterOpsINS_17_ClassicAlgPolicyEE25__validate_iter_referenceB8ne180100IRNS_16reverse_iteratorIP14OPT_token_dataEEEEvv, symObjAddr: 0x13CEC, symBinAddr: 0x1000270E8, symSize: 0x4 }
  - { offset: 0x64AA6, size: 0x8, addend: 0x0, symName: __ZNSt3__118__unwrap_iter_implINS_16reverse_iteratorIP14OPT_token_dataEELb0EE8__unwrapB8ne180100ES4_, symObjAddr: 0x13CF0, symBinAddr: 0x1000270EC, symSize: 0x24 }
  - { offset: 0x64ACF, size: 0x8, addend: 0x0, symName: __ZNSt3__14pairINS_16reverse_iteratorIP14OPT_token_dataEES4_EC1B8ne180100IS4_S4_TnNS_9enable_ifIXclsr10_CheckArgsE17__enable_implicitIT_T0_EEEiE4typeELi0EEEOS8_OS9_, symObjAddr: 0x13D14, symBinAddr: 0x100027110, symSize: 0x3C }
  - { offset: 0x64B2D, size: 0x8, addend: 0x0, symName: __ZNSt3__14pairINS_16reverse_iteratorIP14OPT_token_dataEES4_EC2B8ne180100IS4_S4_TnNS_9enable_ifIXclsr10_CheckArgsE17__enable_implicitIT_T0_EEEiE4typeELi0EEEOS8_OS9_, symObjAddr: 0x13D50, symBinAddr: 0x10002714C, symSize: 0x34 }
  - { offset: 0x64B8B, size: 0x8, addend: 0x0, symName: __ZNSt3__118__unwrap_iter_implINS_16reverse_iteratorIP14OPT_token_dataEELb0EE8__rewrapB8ne180100ES4_S4_, symObjAddr: 0x13D84, symBinAddr: 0x100027180, symSize: 0x2C }
  - { offset: 0x64BB8, size: 0x8, addend: 0x0, symName: __ZNSt3__116reverse_iteratorIP14OPT_token_dataEC2B8ne180100ES2_, symObjAddr: 0x13DB0, symBinAddr: 0x1000271AC, symSize: 0x28 }
  - { offset: 0x64BF0, size: 0x8, addend: 0x0, symName: __ZNSt3__114__split_bufferI14OPT_token_dataRNS_9allocatorIS1_EEED2Ev, symObjAddr: 0x13DD8, symBinAddr: 0x1000271D4, symSize: 0x84 }
  - { offset: 0x64C1C, size: 0x8, addend: 0x0, symName: __ZNSt3__114__split_bufferI14OPT_token_dataRNS_9allocatorIS1_EEE5clearB8ne180100Ev, symObjAddr: 0x13E5C, symBinAddr: 0x100027258, symSize: 0x28 }
  - { offset: 0x64C42, size: 0x8, addend: 0x0, symName: __ZNKSt3__114__split_bufferI14OPT_token_dataRNS_9allocatorIS1_EEE8capacityB8ne180100Ev, symObjAddr: 0x13E84, symBinAddr: 0x100027280, symSize: 0x40 }
  - { offset: 0x64C68, size: 0x8, addend: 0x0, symName: __ZNSt3__114__split_bufferI14OPT_token_dataRNS_9allocatorIS1_EEE17__destruct_at_endB8ne180100EPS1_, symObjAddr: 0x13EC4, symBinAddr: 0x1000272C0, symSize: 0x2C }
  - { offset: 0x64C9C, size: 0x8, addend: 0x0, symName: __ZNSt3__114__split_bufferI14OPT_token_dataRNS_9allocatorIS1_EEE17__destruct_at_endB8ne180100EPS1_NS_17integral_constantIbLb0EEE, symObjAddr: 0x13EF0, symBinAddr: 0x1000272EC, symSize: 0x7C }
  - { offset: 0x64CDC, size: 0x8, addend: 0x0, symName: __ZNKSt3__114__split_bufferI14OPT_token_dataRNS_9allocatorIS1_EEE9__end_capB8ne180100Ev, symObjAddr: 0x13F6C, symBinAddr: 0x100027368, symSize: 0x28 }
  - { offset: 0x64D02, size: 0x8, addend: 0x0, symName: __ZNKSt3__117__compressed_pairIP14OPT_token_dataRNS_9allocatorIS1_EEE5firstB8ne180100Ev, symObjAddr: 0x13F94, symBinAddr: 0x100027390, symSize: 0x24 }
  - { offset: 0x64D28, size: 0x8, addend: 0x0, symName: __ZNSt3__16vectorI14OPT_token_dataNS_9allocatorIS1_EEE11__make_iterB8ne180100EPS1_, symObjAddr: 0x13FB8, symBinAddr: 0x1000273B4, symSize: 0x30 }
  - { offset: 0x64D5D, size: 0x8, addend: 0x0, symName: __ZNSt3__111__wrap_iterIP14OPT_token_dataEC1B8ne180100ES2_, symObjAddr: 0x13FE8, symBinAddr: 0x1000273E4, symSize: 0x34 }
  - { offset: 0x64D95, size: 0x8, addend: 0x0, symName: __ZNSt3__111__wrap_iterIP14OPT_token_dataEC2B8ne180100ES2_, symObjAddr: 0x1401C, symBinAddr: 0x100027418, symSize: 0x20 }
  - { offset: 0x64DF3, size: 0x8, addend: 0x0, symName: __ZNKSt3__114__copy_trivialclB8ne180100I14OPT_token_dataS2_TnNS_9enable_ifIXsr38__can_lower_copy_assignment_to_memmoveIT_T0_EE5valueEiE4typeELi0EEENS_4pairIPS4_PS5_EES9_S9_SA_, symObjAddr: 0x14220, symBinAddr: 0x10002761C, symSize: 0x48 }
  - { offset: 0x64E5B, size: 0x8, addend: 0x0, symName: __ZNSt3__14pairIP14OPT_token_dataS2_EC1B8ne180100IS2_S2_TnNS_9enable_ifIXclsr10_CheckArgsE17__enable_implicitIT_T0_EEEiE4typeELi0EEEOS6_OS7_, symObjAddr: 0x1437C, symBinAddr: 0x100027778, symSize: 0x3C }
  - { offset: 0x64EB9, size: 0x8, addend: 0x0, symName: __ZNSt3__14pairIP14OPT_token_dataS2_EC2B8ne180100IS2_S2_TnNS_9enable_ifIXclsr10_CheckArgsE17__enable_implicitIT_T0_EEEiE4typeELi0EEEOS6_OS7_, symObjAddr: 0x143B8, symBinAddr: 0x1000277B4, symSize: 0x34 }
  - { offset: 0x64F17, size: 0x8, addend: 0x0, symName: __ZNSt3__118__unwrap_iter_implINS_11__wrap_iterIP14OPT_token_dataEELb1EE8__unwrapB8ne180100ES4_, symObjAddr: 0x143EC, symBinAddr: 0x1000277E8, symSize: 0x28 }
  - { offset: 0x64F45, size: 0x8, addend: 0x0, symName: __ZNSt3__119__to_address_helperINS_11__wrap_iterIP14OPT_token_dataEEvE6__callB8ne180100ERKS4_, symObjAddr: 0x14438, symBinAddr: 0x100027834, symSize: 0x30 }
  - { offset: 0x64F68, size: 0x8, addend: 0x0, symName: __ZNSt3__114pointer_traitsINS_11__wrap_iterIP14OPT_token_dataEEE10to_addressB8ne180100ES4_, symObjAddr: 0x14468, symBinAddr: 0x100027864, symSize: 0x2C }
  - { offset: 0x64F8B, size: 0x8, addend: 0x0, symName: __ZNKSt3__111__wrap_iterIP14OPT_token_dataE4baseB8ne180100Ev, symObjAddr: 0x14494, symBinAddr: 0x100027890, symSize: 0x18 }
  - { offset: 0x64FB1, size: 0x8, addend: 0x0, symName: __ZNSt3__14pairIP14OPT_token_dataS2_EC1B8ne180100IRS2_S2_TnNS_9enable_ifIXclsr10_CheckArgsE17__enable_implicitIT_T0_EEEiE4typeELi0EEEOS7_OS8_, symObjAddr: 0x145D0, symBinAddr: 0x1000279CC, symSize: 0x3C }
  - { offset: 0x6500F, size: 0x8, addend: 0x0, symName: __ZNSt3__14pairIP14OPT_token_dataS2_EC2B8ne180100IRS2_S2_TnNS_9enable_ifIXclsr10_CheckArgsE17__enable_implicitIT_T0_EEEiE4typeELi0EEEOS7_OS8_, symObjAddr: 0x1460C, symBinAddr: 0x100027A08, symSize: 0x34 }
  - { offset: 0x6508F, size: 0x8, addend: 0x0, symName: __ZNSt3__14pairINS_11__wrap_iterIP14OPT_token_dataEES3_EC1B8ne180100IS4_S3_TnNS_9enable_ifIXclsr10_CheckArgsE17__enable_implicitIT_T0_EEEiE4typeELi0EEEOS8_OS9_, symObjAddr: 0x14640, symBinAddr: 0x100027A3C, symSize: 0x3C }
  - { offset: 0x650ED, size: 0x8, addend: 0x0, symName: __ZNSt3__14pairINS_11__wrap_iterIP14OPT_token_dataEES3_EC2B8ne180100IS4_S3_TnNS_9enable_ifIXclsr10_CheckArgsE17__enable_implicitIT_T0_EEEiE4typeELi0EEEOS8_OS9_, symObjAddr: 0x1467C, symBinAddr: 0x100027A78, symSize: 0x34 }
  - { offset: 0x6514B, size: 0x8, addend: 0x0, symName: __ZNSt3__118__unwrap_iter_implINS_11__wrap_iterIP14OPT_token_dataEELb1EE8__rewrapB8ne180100ES4_S3_, symObjAddr: 0x146FC, symBinAddr: 0x100027AF8, symSize: 0x5C }
  - { offset: 0x6517C, size: 0x8, addend: 0x0, symName: __ZNKSt3__111__wrap_iterIP14OPT_token_dataEplB8ne180100El, symObjAddr: 0x14758, symBinAddr: 0x100027B54, symSize: 0x3C }
  - { offset: 0x651BE, size: 0x8, addend: 0x0, symName: __ZNSt3__111__wrap_iterIP14OPT_token_dataEpLB8ne180100El, symObjAddr: 0x14794, symBinAddr: 0x100027B90, symSize: 0x30 }
  - { offset: 0x651F2, size: 0x8, addend: 0x0, symName: __ZNSt3__118__unwrap_iter_implIP14OPT_token_dataLb1EE8__rewrapB8ne180100ES2_S2_, symObjAddr: 0x147C4, symBinAddr: 0x100027BC0, symSize: 0x58 }
  - { offset: 0x67940, size: 0x8, addend: 0x0, symName: __ZL8opt_6_7B, symObjAddr: 0x125880, symBinAddr: 0x1000D4B58, symSize: 0x0 }
  - { offset: 0x67965, size: 0x8, addend: 0x0, symName: __ZL8opt_1_3B, symObjAddr: 0x1258A4, symBinAddr: 0x1000D4B7C, symSize: 0x0 }
  - { offset: 0x6797E, size: 0x8, addend: 0x0, symName: __ZL8opt_125m, symObjAddr: 0x1258C8, symBinAddr: 0x1000D4BA0, symSize: 0x0 }
  - { offset: 0x67997, size: 0x8, addend: 0x0, symName: __ZL8llama_7B, symObjAddr: 0x1258EC, symBinAddr: 0x1000D4BC4, symSize: 0x0 }
  - { offset: 0x6A7A0, size: 0x8, addend: 0x0, symName: __ZNSt3__16chronomiB8ne180100IxNS_5ratioILl1ELl1000000000EEExS3_EENS_11common_typeIJNS0_8durationIT_T0_EENS5_IT1_T2_EEEE4typeERKS8_RKSB_, symObjAddr: 0x6288, symBinAddr: 0x10002C7E4, symSize: 0x6C }
  - { offset: 0x6A84D, size: 0x8, addend: 0x0, symName: __ZNSt3__16chrono13duration_castB8ne180100INS0_8durationIxNS_5ratioILl1ELl1000000EEEEExNS3_ILl1ELl1000000000EEETnNS_9enable_ifIXsr13__is_durationIT_EE5valueEiE4typeELi0EEES8_RKNS2_IT0_T1_EE, symObjAddr: 0x6034, symBinAddr: 0x10002C610, symSize: 0x30 }
  - { offset: 0x6A89A, size: 0x8, addend: 0x0, symName: __ZNSt3__16chronomiB8ne180100INS0_12steady_clockENS0_8durationIxNS_5ratioILl1ELl1000000000EEEEES6_EENS_11common_typeIJT0_T1_EE4typeERKNS0_10time_pointIT_S8_EERKNSC_ISD_S9_EE, symObjAddr: 0x6064, symBinAddr: 0x10002C640, symSize: 0x58 }
  - { offset: 0x706EC, size: 0x8, addend: 0x0, symName: __ZNSt3__1L19piecewise_constructE, symObjAddr: 0x1304A, symBinAddr: 0x1000C9962, symSize: 0x0 }
  - { offset: 0x72EF8, size: 0x8, addend: 0x0, symName: __ZNSt3__16copy_nB8ne180100IPKcmPcTnNS_9enable_ifIXsr37__has_random_access_iterator_categoryIT_EE5valueEiE4typeELi0EEET1_S5_T0_S8_, symObjAddr: 0x903C, symBinAddr: 0x10002E1DC, symSize: 0x44 }
  - { offset: 0x775E1, size: 0x8, addend: 0x0, symName: __ZNSt3__17advanceB8ne180100IP8Matrix3DIfEllvEEvRT_T0_, symObjAddr: 0xF954, symBinAddr: 0x1000320AC, symSize: 0x38 }
  - { offset: 0x78392, size: 0x8, addend: 0x0, symName: __ZNSt3__14fillB8ne180100INS_11__wrap_iterIPiEEiEEvT_S4_RKT0_, symObjAddr: 0x1248, symBinAddr: 0x100028F7C, symSize: 0x44 }
  - { offset: 0x783E8, size: 0x8, addend: 0x0, symName: __ZNSt3__112__to_addressB8ne180100I8Matrix3DIfEEEPT_S4_, symObjAddr: 0x2BFC, symBinAddr: 0x10002A60C, symSize: 0x14 }
  - { offset: 0x7841D, size: 0x8, addend: 0x0, symName: __ZNSt3__112__destroy_atB8ne180100INS_4pairIKNS_12basic_stringIcNS_11char_traitsIcEENS_9allocatorIcEEEExEETnNS_9enable_ifIXntsr8is_arrayIT_EE5valueEiE4typeELi0EEEvPSB_, symObjAddr: 0x3FE0, symBinAddr: 0x10002B254, symSize: 0x24 }
  - { offset: 0x78454, size: 0x8, addend: 0x0, symName: __ZNSt3__112__destroy_atB8ne180100INS_4pairIKNS_12basic_stringIcNS_11char_traitsIcEENS_9allocatorIcEEEENS_6chrono10time_pointINS9_12steady_clockENS9_8durationIxNS_5ratioILl1ELl1000000000EEEEEEEEETnNS_9enable_ifIXntsr8is_arrayIT_EE5valueEiE4typeELi0EEEvPSJ_, symObjAddr: 0x433C, symBinAddr: 0x10002B5B0, symSize: 0x24 }
  - { offset: 0x7852D, size: 0x8, addend: 0x0, symName: __ZNSt3__1neB8ne180100ERKNS_20__map_const_iteratorINS_21__tree_const_iteratorINS_12__value_typeINS_12basic_stringIcNS_11char_traitsIcEENS_9allocatorIcEEEExEEPNS_11__tree_nodeIS9_PvEElEEEESH_, symObjAddr: 0x8034, symBinAddr: 0x10002D834, symSize: 0x2C }
  - { offset: 0x7856A, size: 0x8, addend: 0x0, symName: __ZNSt3__1plB8ne180100IcNS_11char_traitsIcEENS_9allocatorIcEEEENS_12basic_stringIT_T0_T1_EERKS9_PKS6_, symObjAddr: 0x80B4, symBinAddr: 0x10002D888, symSize: 0x11C }
  - { offset: 0x7860B, size: 0x8, addend: 0x0, symName: __ZNSt3__1neB8ne180100ERKNS_21__tree_const_iteratorINS_12__value_typeINS_12basic_stringIcNS_11char_traitsIcEENS_9allocatorIcEEEExEEPNS_11__tree_nodeIS8_PvEElEESF_, symObjAddr: 0x84C4, symBinAddr: 0x10002DC0C, symSize: 0x30 }
  - { offset: 0x78648, size: 0x8, addend: 0x0, symName: __ZNSt3__1eqB8ne180100ERKNS_21__tree_const_iteratorINS_12__value_typeINS_12basic_stringIcNS_11char_traitsIcEENS_9allocatorIcEEEExEEPNS_11__tree_nodeIS8_PvEElEESF_, symObjAddr: 0x84F4, symBinAddr: 0x10002DC3C, symSize: 0x2C }
  - { offset: 0x786B8, size: 0x8, addend: 0x0, symName: __ZNSt3__112__to_addressB8ne180100IcEEPT_S2_, symObjAddr: 0x877C, symBinAddr: 0x10002DD30, symSize: 0x14 }
  - { offset: 0x786ED, size: 0x8, addend: 0x0, symName: __ZNSt3__14copyB8ne180100IPKcPcEET0_T_S5_S4_, symObjAddr: 0x9080, symBinAddr: 0x10002E220, symSize: 0x40 }
  - { offset: 0x78747, size: 0x8, addend: 0x0, symName: __ZNSt3__16__copyB8ne180100INS_17_ClassicAlgPolicyEPKcS3_PcEENS_4pairIT0_T2_EES6_T1_S7_, symObjAddr: 0x90C0, symBinAddr: 0x10002E260, symSize: 0x44 }
  - { offset: 0x787B3, size: 0x8, addend: 0x0, symName: __ZNSt3__123__dispatch_copy_or_moveB8ne180100INS_17_ClassicAlgPolicyENS_11__copy_loopIS1_EENS_14__copy_trivialEPKcS6_PcEENS_4pairIT2_T4_EES9_T3_SA_, symObjAddr: 0x9104, symBinAddr: 0x10002E2A4, symSize: 0x44 }
  - { offset: 0x78831, size: 0x8, addend: 0x0, symName: __ZNSt3__121__unwrap_and_dispatchB8ne180100INS_10__overloadINS_11__copy_loopINS_17_ClassicAlgPolicyEEENS_14__copy_trivialEEEPKcS8_PcTnNS_9enable_ifIXsr12__can_rewrapIT0_T1_T2_EE5valueEiE4typeELi0EEENS_4pairISB_SD_EESB_SC_SD_, symObjAddr: 0x9148, symBinAddr: 0x10002E2E8, symSize: 0xB4 }
  - { offset: 0x788BF, size: 0x8, addend: 0x0, symName: __ZNSt3__114__unwrap_rangeB8ne180100IPKcS2_EENS_4pairIT0_S4_EET_S6_, symObjAddr: 0x91FC, symBinAddr: 0x10002E39C, symSize: 0x60 }
  - { offset: 0x78ACC, size: 0x8, addend: 0x0, symName: __ZNSt3__113__unwrap_iterB8ne180100IPcNS_18__unwrap_iter_implIS1_Lb1EEETnNS_9enable_ifIXsr21is_copy_constructibleIT_EE5valueEiE4typeELi0EEEDTclsrT0_8__unwrapclsr3stdE7declvalIS5_EEEES5_, symObjAddr: 0x92A4, symBinAddr: 0x10002E444, symSize: 0x24 }
  - { offset: 0x78B10, size: 0x8, addend: 0x0, symName: __ZNSt3__19make_pairB8ne180100IPKcPcEENS_4pairINS_18__unwrap_ref_decayIT_E4typeENS5_IT0_E4typeEEEOS6_OS9_, symObjAddr: 0x92C8, symBinAddr: 0x10002E468, symSize: 0x38 }
  - { offset: 0x78B5F, size: 0x8, addend: 0x0, symName: __ZNSt3__114__rewrap_rangeB8ne180100IPKcS2_EET_S3_T0_, symObjAddr: 0x9300, symBinAddr: 0x10002E4A0, symSize: 0x2C }
  - { offset: 0x78BAB, size: 0x8, addend: 0x0, symName: __ZNSt3__113__rewrap_iterB8ne180100IPcS1_NS_18__unwrap_iter_implIS1_Lb1EEEEET_S4_T0_, symObjAddr: 0x932C, symBinAddr: 0x10002E4CC, symSize: 0x3C }
  - { offset: 0x78C00, size: 0x8, addend: 0x0, symName: __ZNSt3__19make_pairB8ne180100IPKcS2_EENS_4pairINS_18__unwrap_ref_decayIT_E4typeENS4_IT0_E4typeEEEOS5_OS8_, symObjAddr: 0x9368, symBinAddr: 0x10002E508, symSize: 0x38 }
  - { offset: 0x78C4F, size: 0x8, addend: 0x0, symName: __ZNSt3__113__unwrap_iterB8ne180100IPKcNS_18__unwrap_iter_implIS2_Lb1EEETnNS_9enable_ifIXsr21is_copy_constructibleIT_EE5valueEiE4typeELi0EEEDTclsrT0_8__unwrapclsr3stdE7declvalIS6_EEEES6_, symObjAddr: 0x93A0, symBinAddr: 0x10002E540, symSize: 0x24 }
  - { offset: 0x78DBA, size: 0x8, addend: 0x0, symName: __ZNSt3__119__copy_trivial_implB8ne180100IKccEENS_4pairIPT_PT0_EES4_S4_S6_, symObjAddr: 0x9458, symBinAddr: 0x10002E5F8, symSize: 0x78 }
  - { offset: 0x78E22, size: 0x8, addend: 0x0, symName: __ZNSt3__119__constexpr_memmoveB8ne180100IcKcTnNS_9enable_ifIXsr23__is_always_bitcastableIT0_T_EE5valueEiE4typeELi0EEEPS4_S7_PS3_NS_15__element_countE, symObjAddr: 0x94D0, symBinAddr: 0x10002E670, symSize: 0x60 }
  - { offset: 0x78E90, size: 0x8, addend: 0x0, symName: __ZNSt3__19make_pairB8ne180100IRPKcPcEENS_4pairINS_18__unwrap_ref_decayIT_E4typeENS6_IT0_E4typeEEEOS7_OSA_, symObjAddr: 0x9530, symBinAddr: 0x10002E6D0, symSize: 0x38 }
  - { offset: 0x78F32, size: 0x8, addend: 0x0, symName: __ZNSt3__113__rewrap_iterB8ne180100IPKcS2_NS_18__unwrap_iter_implIS2_Lb1EEEEET_S5_T0_, symObjAddr: 0x966C, symBinAddr: 0x10002E80C, symSize: 0x3C }
  - { offset: 0x78F87, size: 0x8, addend: 0x0, symName: __ZNSt3__16fill_nB8ne180100IPcmcEET_S2_T0_RKT1_, symObjAddr: 0x9738, symBinAddr: 0x10002E8D8, symSize: 0x44 }
  - { offset: 0x78FEA, size: 0x8, addend: 0x0, symName: __ZNSt3__18__fill_nB8ne180100IPcmcEET_S2_T0_RKT1_, symObjAddr: 0x977C, symBinAddr: 0x10002E91C, symSize: 0x60 }
  - { offset: 0x7904D, size: 0x8, addend: 0x0, symName: __ZNSt3__121__convert_to_integralB8ne180100Em, symObjAddr: 0x97DC, symBinAddr: 0x10002E97C, symSize: 0x14 }
  - { offset: 0x79079, size: 0x8, addend: 0x0, symName: __ZNSt3__120__throw_out_of_rangeB8ne180100EPKc, symObjAddr: 0x99AC, symBinAddr: 0x10002EA10, symSize: 0x64 }
  - { offset: 0x790A1, size: 0x8, addend: 0x0, symName: __ZNSt3__112__to_addressB8ne180100IN11llama_vocab11token_scoreEEEPT_S4_, symObjAddr: 0xAA30, symBinAddr: 0x10002F14C, symSize: 0x14 }
  - { offset: 0x790D6, size: 0x8, addend: 0x0, symName: __ZNSt3__122__make_exception_guardB8ne180100INS_6vectorI8Matrix3DIfENS_9allocatorIS3_EEE16__destroy_vectorEEENS_28__exception_guard_exceptionsIT_EES9_, symObjAddr: 0xB6D4, symBinAddr: 0x10002F778, symSize: 0x40 }
  - { offset: 0x7910B, size: 0x8, addend: 0x0, symName: __ZNSt3__119__allocate_at_leastB8ne180100INS_9allocatorI8Matrix3DIfEEEEENS_19__allocation_resultINS_16allocator_traitsIT_E7pointerEEERS7_m, symObjAddr: 0xB96C, symBinAddr: 0x10002FA10, symSize: 0x40 }
  - { offset: 0x7914E, size: 0x8, addend: 0x0, symName: __ZNSt3__130__uninitialized_allocator_copyB8ne180100INS_9allocatorI8Matrix3DIfEEEPS3_S5_S5_EET2_RT_T0_T1_S6_, symObjAddr: 0xBAAC, symBinAddr: 0x10002FB34, symSize: 0x80 }
  - { offset: 0x791EB, size: 0x8, addend: 0x0, symName: __ZNSt3__114__unwrap_rangeB8ne180100IP8Matrix3DIfES3_EENS_4pairIT0_S5_EET_S7_, symObjAddr: 0xBBA4, symBinAddr: 0x10002FC2C, symSize: 0x60 }
  - { offset: 0x79237, size: 0x8, addend: 0x0, symName: __ZNSt3__135__uninitialized_allocator_copy_implB8ne180100INS_9allocatorI8Matrix3DIfEEES3_S3_S3_TnPNS_9enable_ifIXaaaaaasr31is_trivially_copy_constructibleIT1_EE5valuesr28is_trivially_copy_assignableIS6_EE5valuesr7is_sameIu14__remove_constIT0_Eu14__remove_constIT2_EEE5valuesr38__allocator_has_trivial_copy_constructIT_S6_EE5valueEvE4typeELPv0EEEPS9_RSB_PS7_SI_SG_, symObjAddr: 0xBC04, symBinAddr: 0x10002FC8C, symSize: 0x38 }
  - { offset: 0x792B8, size: 0x8, addend: 0x0, symName: __ZNSt3__113__unwrap_iterB8ne180100IP8Matrix3DIfENS_18__unwrap_iter_implIS3_Lb1EEETnNS_9enable_ifIXsr21is_copy_constructibleIT_EE5valueEiE4typeELi0EEEDTclsrT0_8__unwrapclsr3stdE7declvalIS7_EEEES7_, symObjAddr: 0xBC3C, symBinAddr: 0x10002FCC4, symSize: 0x24 }
  - { offset: 0x792FC, size: 0x8, addend: 0x0, symName: __ZNSt3__113__rewrap_iterB8ne180100IP8Matrix3DIfES3_NS_18__unwrap_iter_implIS3_Lb1EEEEET_S6_T0_, symObjAddr: 0xBC60, symBinAddr: 0x10002FCE8, symSize: 0x3C }
  - { offset: 0x79351, size: 0x8, addend: 0x0, symName: __ZNSt3__19make_pairB8ne180100IP8Matrix3DIfES3_EENS_4pairINS_18__unwrap_ref_decayIT_E4typeENS5_IT0_E4typeEEEOS6_OS9_, symObjAddr: 0xBC9C, symBinAddr: 0x10002FD24, symSize: 0x38 }
  - { offset: 0x794A3, size: 0x8, addend: 0x0, symName: __ZNSt3__14copyB8ne180100IP8Matrix3DIfES3_EET0_T_S5_S4_, symObjAddr: 0xBD44, symBinAddr: 0x10002FDCC, symSize: 0x40 }
  - { offset: 0x794FD, size: 0x8, addend: 0x0, symName: __ZNSt3__16__copyB8ne180100INS_17_ClassicAlgPolicyEP8Matrix3DIfES4_S4_EENS_4pairIT0_T2_EES6_T1_S7_, symObjAddr: 0xBD84, symBinAddr: 0x10002FE0C, symSize: 0x44 }
  - { offset: 0x79569, size: 0x8, addend: 0x0, symName: __ZNSt3__123__dispatch_copy_or_moveB8ne180100INS_17_ClassicAlgPolicyENS_11__copy_loopIS1_EENS_14__copy_trivialEP8Matrix3DIfES7_S7_EENS_4pairIT2_T4_EES9_T3_SA_, symObjAddr: 0xBDC8, symBinAddr: 0x10002FE50, symSize: 0x44 }
  - { offset: 0x795E7, size: 0x8, addend: 0x0, symName: __ZNSt3__121__unwrap_and_dispatchB8ne180100INS_10__overloadINS_11__copy_loopINS_17_ClassicAlgPolicyEEENS_14__copy_trivialEEEP8Matrix3DIfES9_S9_TnNS_9enable_ifIXsr12__can_rewrapIT0_T1_T2_EE5valueEiE4typeELi0EEENS_4pairISB_SD_EESB_SC_SD_, symObjAddr: 0xBE0C, symBinAddr: 0x10002FE94, symSize: 0xB4 }
  - { offset: 0x79675, size: 0x8, addend: 0x0, symName: __ZNSt3__114__rewrap_rangeB8ne180100IP8Matrix3DIfES3_EET_S4_T0_, symObjAddr: 0xBF08, symBinAddr: 0x10002FF90, symSize: 0x2C }
  - { offset: 0x796C1, size: 0x8, addend: 0x0, symName: __ZNSt3__119__copy_trivial_implB8ne180100I8Matrix3DIfES2_EENS_4pairIPT_PT0_EES5_S5_S7_, symObjAddr: 0xBF34, symBinAddr: 0x10002FFBC, symSize: 0x88 }
  - { offset: 0x79729, size: 0x8, addend: 0x0, symName: __ZNSt3__119__constexpr_memmoveB8ne180100I8Matrix3DIfES2_TnNS_9enable_ifIXsr23__is_always_bitcastableIT0_T_EE5valueEiE4typeELi0EEEPS5_S8_PS4_NS_15__element_countE, symObjAddr: 0xBFBC, symBinAddr: 0x100030044, symSize: 0x64 }
  - { offset: 0x79797, size: 0x8, addend: 0x0, symName: __ZNSt3__19make_pairB8ne180100IRP8Matrix3DIfES3_EENS_4pairINS_18__unwrap_ref_decayIT_E4typeENS6_IT0_E4typeEEEOS7_OSA_, symObjAddr: 0xC020, symBinAddr: 0x1000300A8, symSize: 0x38 }
  - { offset: 0x79839, size: 0x8, addend: 0x0, symName: __ZNSt3__16__fillB8ne180100INS_11__wrap_iterIPiEEiEEvT_S4_RKT0_NS_26random_access_iterator_tagE, symObjAddr: 0xCEB8, symBinAddr: 0x10003057C, symSize: 0x50 }
  - { offset: 0x79899, size: 0x8, addend: 0x0, symName: __ZNSt3__16fill_nB8ne180100INS_11__wrap_iterIPiEEliEET_S4_T0_RKT1_, symObjAddr: 0xCF08, symBinAddr: 0x1000305CC, symSize: 0x4C }
  - { offset: 0x798FC, size: 0x8, addend: 0x0, symName: __ZNSt3__1miB8ne180100IPiS1_EEDTmicldtfp_4baseEcldtfp0_4baseEERKNS_11__wrap_iterIT_EERKNS3_IT0_EE, symObjAddr: 0xCF54, symBinAddr: 0x100030618, symSize: 0x48 }
  - { offset: 0x79948, size: 0x8, addend: 0x0, symName: __ZNSt3__18__fill_nB8ne180100INS_11__wrap_iterIPiEEliEET_S4_T0_RKT1_, symObjAddr: 0xCF9C, symBinAddr: 0x100030660, symSize: 0x7C }
  - { offset: 0x799AB, size: 0x8, addend: 0x0, symName: __ZNSt3__142__uninitialized_allocator_move_if_noexceptB8ne180100INS_9allocatorIiEENS_16reverse_iteratorIPiEES5_ivEET1_RT_T0_S9_S6_, symObjAddr: 0xD864, symBinAddr: 0x100030E94, symSize: 0x78 }
  - { offset: 0x79A28, size: 0x8, addend: 0x0, symName: __ZNSt3__14swapB8ne180100IPiEENS_9enable_ifIXaasr21is_move_constructibleIT_EE5valuesr18is_move_assignableIS3_EE5valueEvE4typeERS3_S6_, symObjAddr: 0xD928, symBinAddr: 0x100030F58, symSize: 0x3C }
  - { offset: 0x79A79, size: 0x8, addend: 0x0, symName: __ZNSt3__14moveB8ne180100INS_16reverse_iteratorIPiEES3_EET0_T_S5_S4_, symObjAddr: 0xD964, symBinAddr: 0x100030F94, symSize: 0x78 }
  - { offset: 0x79AD3, size: 0x8, addend: 0x0, symName: __ZNSt3__16__moveB8ne180100INS_17_ClassicAlgPolicyENS_16reverse_iteratorIPiEES4_S4_EENS_4pairIT0_T2_EES6_T1_S7_, symObjAddr: 0xD9DC, symBinAddr: 0x10003100C, symSize: 0x64 }
  - { offset: 0x79B3F, size: 0x8, addend: 0x0, symName: __ZNSt3__123__dispatch_copy_or_moveB8ne180100INS_17_ClassicAlgPolicyENS_11__move_loopIS1_EENS_14__move_trivialENS_16reverse_iteratorIPiEES7_S7_EENS_4pairIT2_T4_EES9_T3_SA_, symObjAddr: 0xDA40, symBinAddr: 0x100031070, symSize: 0x64 }
  - { offset: 0x79BBD, size: 0x8, addend: 0x0, symName: __ZNSt3__121__unwrap_and_dispatchB8ne180100INS_10__overloadINS_11__move_loopINS_17_ClassicAlgPolicyEEENS_14__move_trivialEEENS_16reverse_iteratorIPiEES9_S9_TnNS_9enable_ifIXsr12__can_rewrapIT0_T1_T2_EE5valueEiE4typeELi0EEENS_4pairISB_SD_EESB_SC_SD_, symObjAddr: 0xDAA4, symBinAddr: 0x1000310D4, symSize: 0x12C }
  - { offset: 0x79C4D, size: 0x8, addend: 0x0, symName: __ZNSt3__114__unwrap_rangeB8ne180100INS_16reverse_iteratorIPiEES3_EENS_4pairIT0_S5_EET_S7_, symObjAddr: 0xDBD0, symBinAddr: 0x100031200, symSize: 0x84 }
  - { offset: 0x79DFE, size: 0x8, addend: 0x0, symName: __ZNSt3__113__unwrap_iterB8ne180100INS_16reverse_iteratorIPiEENS_18__unwrap_iter_implIS3_Lb0EEETnNS_9enable_ifIXsr21is_copy_constructibleIT_EE5valueEiE4typeELi0EEEDTclsrT0_8__unwrapclsr3stdE7declvalIS7_EEEES7_, symObjAddr: 0xDCF4, symBinAddr: 0x100031324, symSize: 0x44 }
  - { offset: 0x79E42, size: 0x8, addend: 0x0, symName: __ZNSt3__19make_pairB8ne180100INS_16reverse_iteratorIPiEES3_EENS_4pairINS_18__unwrap_ref_decayIT_E4typeENS5_IT0_E4typeEEEOS6_OS9_, symObjAddr: 0xDD38, symBinAddr: 0x100031368, symSize: 0x38 }
  - { offset: 0x79E91, size: 0x8, addend: 0x0, symName: __ZNSt3__114__rewrap_rangeB8ne180100INS_16reverse_iteratorIPiEES3_EET_S4_T0_, symObjAddr: 0xDD70, symBinAddr: 0x1000313A0, symSize: 0x5C }
  - { offset: 0x79EDD, size: 0x8, addend: 0x0, symName: __ZNSt3__113__rewrap_iterB8ne180100INS_16reverse_iteratorIPiEES3_NS_18__unwrap_iter_implIS3_Lb0EEEEET_S6_T0_, symObjAddr: 0xDDCC, symBinAddr: 0x1000313FC, symSize: 0x74 }
  - { offset: 0x79F32, size: 0x8, addend: 0x0, symName: __ZNSt3__1neB8ne180100IPiS1_EEbRKNS_16reverse_iteratorIT_EERKNS2_IT0_EE, symObjAddr: 0xDE40, symBinAddr: 0x100031470, symSize: 0x44 }
  - { offset: 0x7A06C, size: 0x8, addend: 0x0, symName: __ZNSt3__1miB8ne180100IPKiS2_EEDTmicldtfp_4baseEcldtfp0_4baseEERKNS_11__wrap_iterIT_EERKNS4_IT0_EE, symObjAddr: 0xE3A8, symBinAddr: 0x1000319D8, symSize: 0x48 }
  - { offset: 0x7A0B8, size: 0x8, addend: 0x0, symName: __ZNSt3__14moveB8ne180100IPiS1_EET0_T_S3_S2_, symObjAddr: 0xE41C, symBinAddr: 0x100031A4C, symSize: 0x40 }
  - { offset: 0x7A112, size: 0x8, addend: 0x0, symName: __ZNSt3__16__moveB8ne180100INS_17_ClassicAlgPolicyEPiS2_S2_EENS_4pairIT0_T2_EES4_T1_S5_, symObjAddr: 0xE528, symBinAddr: 0x100031B58, symSize: 0x44 }
  - { offset: 0x7A17E, size: 0x8, addend: 0x0, symName: __ZNSt3__123__dispatch_copy_or_moveB8ne180100INS_17_ClassicAlgPolicyENS_11__move_loopIS1_EENS_14__move_trivialEPiS5_S5_EENS_4pairIT2_T4_EES7_T3_S8_, symObjAddr: 0xE56C, symBinAddr: 0x100031B9C, symSize: 0x44 }
  - { offset: 0x7A1FC, size: 0x8, addend: 0x0, symName: __ZNSt3__121__unwrap_and_dispatchB8ne180100INS_10__overloadINS_11__move_loopINS_17_ClassicAlgPolicyEEENS_14__move_trivialEEEPiS7_S7_TnNS_9enable_ifIXsr12__can_rewrapIT0_T1_T2_EE5valueEiE4typeELi0EEENS_4pairIS9_SB_EES9_SA_SB_, symObjAddr: 0xE5B0, symBinAddr: 0x100031BE0, symSize: 0xB4 }
  - { offset: 0x7A2D0, size: 0x8, addend: 0x0, symName: __ZNSt3__18distanceB8ne180100IP8Matrix3DIfEEENS_15iterator_traitsIT_E15difference_typeES5_S5_, symObjAddr: 0xF7FC, symBinAddr: 0x100031F54, symSize: 0x2C }
  - { offset: 0x7A313, size: 0x8, addend: 0x0, symName: __ZNSt3__14nextB8ne180100IP8Matrix3DIfETnNS_9enable_ifIXsr29__has_input_iterator_categoryIT_EE5valueEiE4typeELi0EEES5_S5_NS_15iterator_traitsIS5_E15difference_typeE, symObjAddr: 0xF828, symBinAddr: 0x100031F80, symSize: 0x34 }
  - { offset: 0x7A35C, size: 0x8, addend: 0x0, symName: __ZNSt3__19__advanceB8ne180100IP8Matrix3DIfEEEvRT_NS_15iterator_traitsIS4_E15difference_typeENS_26random_access_iterator_tagE, symObjAddr: 0xF98C, symBinAddr: 0x1000320E4, symSize: 0x30 }
  - { offset: 0x7A3A5, size: 0x8, addend: 0x0, symName: __ZNSt3__110__distanceB8ne180100IP8Matrix3DIfEEENS_15iterator_traitsIT_E15difference_typeES5_S5_NS_26random_access_iterator_tagE, symObjAddr: 0xF9BC, symBinAddr: 0x100032114, symSize: 0x28 }
  - { offset: 0x7A3F2, size: 0x8, addend: 0x0, symName: __ZNSt3__130__uninitialized_allocator_copyB8ne180100INS_9allocatorIiEEPKiS4_PiEET2_RT_T0_T1_S6_, symObjAddr: 0x113F0, symBinAddr: 0x100032510, symSize: 0x80 }
  - { offset: 0x7A48F, size: 0x8, addend: 0x0, symName: __ZNSt3__114__unwrap_rangeB8ne180100IPKiS2_EENS_4pairIT0_S4_EET_S6_, symObjAddr: 0x11470, symBinAddr: 0x100032590, symSize: 0x60 }
  - { offset: 0x7A4DB, size: 0x8, addend: 0x0, symName: __ZNSt3__135__uninitialized_allocator_copy_implB8ne180100INS_9allocatorIiEEKiiiTnPNS_9enable_ifIXaaaaaasr31is_trivially_copy_constructibleIT1_EE5valuesr28is_trivially_copy_assignableIS5_EE5valuesr7is_sameIu14__remove_constIT0_Eu14__remove_constIT2_EEE5valuesr38__allocator_has_trivial_copy_constructIT_S5_EE5valueEvE4typeELPv0EEEPS8_RSA_PS6_SH_SF_, symObjAddr: 0x114D0, symBinAddr: 0x1000325F0, symSize: 0x38 }
  - { offset: 0x7A55C, size: 0x8, addend: 0x0, symName: __ZNSt3__19make_pairB8ne180100IPKiS2_EENS_4pairINS_18__unwrap_ref_decayIT_E4typeENS4_IT0_E4typeEEEOS5_OS8_, symObjAddr: 0x11508, symBinAddr: 0x100032628, symSize: 0x38 }
  - { offset: 0x7A67F, size: 0x8, addend: 0x0, symName: __ZNSt3__14copyB8ne180100IPKiPiEET0_T_S5_S4_, symObjAddr: 0x1160C, symBinAddr: 0x1000326D0, symSize: 0x40 }
  - { offset: 0x7A6D9, size: 0x8, addend: 0x0, symName: __ZNSt3__16__copyB8ne180100INS_17_ClassicAlgPolicyEPKiS3_PiEENS_4pairIT0_T2_EES6_T1_S7_, symObjAddr: 0x1164C, symBinAddr: 0x100032710, symSize: 0x44 }
  - { offset: 0x7A745, size: 0x8, addend: 0x0, symName: __ZNSt3__123__dispatch_copy_or_moveB8ne180100INS_17_ClassicAlgPolicyENS_11__copy_loopIS1_EENS_14__copy_trivialEPKiS6_PiEENS_4pairIT2_T4_EES9_T3_SA_, symObjAddr: 0x11690, symBinAddr: 0x100032754, symSize: 0x44 }
  - { offset: 0x7A7C3, size: 0x8, addend: 0x0, symName: __ZNSt3__121__unwrap_and_dispatchB8ne180100INS_10__overloadINS_11__copy_loopINS_17_ClassicAlgPolicyEEENS_14__copy_trivialEEEPKiS8_PiTnNS_9enable_ifIXsr12__can_rewrapIT0_T1_T2_EE5valueEiE4typeELi0EEENS_4pairISB_SD_EESB_SC_SD_, symObjAddr: 0x116D4, symBinAddr: 0x100032798, symSize: 0xB4 }
  - { offset: 0x7A954, size: 0x8, addend: 0x0, symName: __ZNSt3__19make_pairB8ne180100IPKiPiEENS_4pairINS_18__unwrap_ref_decayIT_E4typeENS5_IT0_E4typeEEEOS6_OS9_, symObjAddr: 0x117D0, symBinAddr: 0x100032894, symSize: 0x38 }
  - { offset: 0x7A9A3, size: 0x8, addend: 0x0, symName: __ZNSt3__114__rewrap_rangeB8ne180100IPKiS2_EET_S3_T0_, symObjAddr: 0x11808, symBinAddr: 0x1000328CC, symSize: 0x2C }
  - { offset: 0x7A9EF, size: 0x8, addend: 0x0, symName: __ZNSt3__119__copy_trivial_implB8ne180100IKiiEENS_4pairIPT_PT0_EES4_S4_S6_, symObjAddr: 0x11834, symBinAddr: 0x1000328F8, symSize: 0x80 }
  - { offset: 0x7AA57, size: 0x8, addend: 0x0, symName: __ZNSt3__119__constexpr_memmoveB8ne180100IiKiTnNS_9enable_ifIXsr23__is_always_bitcastableIT0_T_EE5valueEiE4typeELi0EEEPS4_S7_PS3_NS_15__element_countE, symObjAddr: 0x118B4, symBinAddr: 0x100032978, symSize: 0x60 }
  - { offset: 0x7AAC5, size: 0x8, addend: 0x0, symName: __ZNSt3__19make_pairB8ne180100IRPKiPiEENS_4pairINS_18__unwrap_ref_decayIT_E4typeENS6_IT0_E4typeEEEOS7_OSA_, symObjAddr: 0x11914, symBinAddr: 0x1000329D8, symSize: 0x38 }
  - { offset: 0x7FE64, size: 0x8, addend: 0x0, symName: __Z13LLaMAGeneratePviNSt3__112basic_stringIcNS0_11char_traitsIcEENS0_9allocatorIcEEEE10opt_paramsS6_b, symObjAddr: 0xA8, symBinAddr: 0x100027DDC, symSize: 0x116C }
  - { offset: 0x7FE8E, size: 0x8, addend: 0x0, symName: __ZZ13LLaMAGeneratePviNSt3__112basic_stringIcNS0_11char_traitsIcEENS0_9allocatorIcEEEE10opt_paramsS6_bE11mirostat_mu, symObjAddr: 0x125910, symBinAddr: 0x1000D4BE8, symSize: 0x0 }
  - { offset: 0x7FEA4, size: 0x8, addend: 0x0, symName: __ZZ13LLaMAGeneratePviNSt3__112basic_stringIcNS0_11char_traitsIcEENS0_9allocatorIcEEEE10opt_paramsS6_bE11mirostat_mu_0, symObjAddr: 0x125920, symBinAddr: 0x1000D4BF8, symSize: 0x0 }
  - { offset: 0x80E65, size: 0x8, addend: 0x0, symName: __ZN8Profiler11getInstanceEv, symObjAddr: 0x18D8, symBinAddr: 0x1000294E4, symSize: 0xA8 }
  - { offset: 0x80E84, size: 0x8, addend: 0x0, symName: __ZZN8Profiler11getInstanceEvE8instance, symObjAddr: 0x12F58, symBinAddr: 0x1000D49D0, symSize: 0x0 }
  - { offset: 0x8371C, size: 0x8, addend: 0x0, symName: __ZNKSt3__16chrono15__duration_castINS0_8durationIxNS_5ratioILl1ELl1000000000EEEEENS2_IxNS3_ILl1ELl1000000EEEEENS3_ILl1ELl1000EEELb1ELb0EEclB8ne180100ERKS5_, symObjAddr: 0x61D4, symBinAddr: 0x10002C730, symSize: 0x44 }
  - { offset: 0x83C26, size: 0x8, addend: 0x0, symName: __ZNSt3__16vectorIiNS_9allocatorIiEEE26__swap_out_circular_bufferERNS_14__split_bufferIiRS2_EE, symObjAddr: 0xD3B8, symBinAddr: 0x100030A68, symSize: 0x110 }
  - { offset: 0x83DA8, size: 0x8, addend: 0x0, symName: __ZNSt3__16vectorIiNS_9allocatorIiEEEC1Em, symObjAddr: 0x1214, symBinAddr: 0x100028F48, symSize: 0x34 }
  - { offset: 0x83DE3, size: 0x8, addend: 0x0, symName: __ZNSt3__16vectorIiNS_9allocatorIiEEE5beginB8ne180100Ev, symObjAddr: 0x128C, symBinAddr: 0x100028FC0, symSize: 0x30 }
  - { offset: 0x83E0B, size: 0x8, addend: 0x0, symName: __ZNSt3__16vectorIiNS_9allocatorIiEEE3endB8ne180100Ev, symObjAddr: 0x12BC, symBinAddr: 0x100028FF0, symSize: 0x30 }
  - { offset: 0x83E33, size: 0x8, addend: 0x0, symName: __ZNSt3__16vectorIiNS_9allocatorIiEEEC1B8ne180100Ev, symObjAddr: 0x12EC, symBinAddr: 0x100029020, symSize: 0x2C }
  - { offset: 0x83E5D, size: 0x8, addend: 0x0, symName: __ZNKSt3__112basic_stringIcNS_11char_traitsIcEENS_9allocatorIcEEE5c_strB8ne180100Ev, symObjAddr: 0x1318, symBinAddr: 0x10002904C, symSize: 0x24 }
  - { offset: 0x83E83, size: 0x8, addend: 0x0, symName: __ZNSt3__16vectorIiNS_9allocatorIiEEE4dataB8ne180100Ev, symObjAddr: 0x133C, symBinAddr: 0x100029070, symSize: 0x28 }
  - { offset: 0x83EA9, size: 0x8, addend: 0x0, symName: __ZNSt3__16vectorIiNS_9allocatorIiEEE6resizeEm, symObjAddr: 0x138C, symBinAddr: 0x100029098, symSize: 0x8C }
  - { offset: 0x83EEF, size: 0x8, addend: 0x0, symName: __ZNSt3__16vectorIiNS_9allocatorIiEEE9push_backB8ne180100ERKi, symObjAddr: 0x1418, symBinAddr: 0x100029124, symSize: 0x8C }
  - { offset: 0x83F35, size: 0x8, addend: 0x0, symName: __ZNSt3__16vectorIiNS_9allocatorIiEEEixB8ne180100Em, symObjAddr: 0x14A4, symBinAddr: 0x1000291B0, symSize: 0x24 }
  - { offset: 0x83F6C, size: 0x8, addend: 0x0, symName: __ZNSt3__16vectorIiNS_9allocatorIiEEE5eraseB8ne180100ENS_11__wrap_iterIPKiEE, symObjAddr: 0x14C8, symBinAddr: 0x1000291D4, symSize: 0x94 }
  - { offset: 0x83FC7, size: 0x8, addend: 0x0, symName: __ZNSt3__111__wrap_iterIPKiEC1B8ne180100IPiTnNS_9enable_ifIXsr14is_convertibleIT_S2_EE5valueEiE4typeELi0EEERKNS0_IS7_EE, symObjAddr: 0x155C, symBinAddr: 0x100029268, symSize: 0x34 }
  - { offset: 0x8400E, size: 0x8, addend: 0x0, symName: __ZNSt3__16vectorI8Matrix3DIfENS_9allocatorIS2_EEEC1B8ne180100Ev, symObjAddr: 0x165C, symBinAddr: 0x10002929C, symSize: 0x2C }
  - { offset: 0x8403D, size: 0x8, addend: 0x0, symName: __ZN27Int4LlamaForCausalLM_outputC1Ev, symObjAddr: 0x16BC, symBinAddr: 0x1000292C8, symSize: 0x2C }
  - { offset: 0x84069, size: 0x8, addend: 0x0, symName: __ZN26Int4LlamaForCausalLM_inputC1Ev, symObjAddr: 0x16E8, symBinAddr: 0x1000292F4, symSize: 0x2C }
  - { offset: 0x84093, size: 0x8, addend: 0x0, symName: __ZN8Matrix3DIiEC1EPiiii, symObjAddr: 0x1714, symBinAddr: 0x100029320, symSize: 0x4C }
  - { offset: 0x840F5, size: 0x8, addend: 0x0, symName: __ZNSt3__16vectorI8Matrix3DIfENS_9allocatorIS2_EEEC1ERKS5_, symObjAddr: 0x1760, symBinAddr: 0x10002936C, symSize: 0x34 }
  - { offset: 0x84130, size: 0x8, addend: 0x0, symName: __ZN26Int4LlamaForCausalLM_inputC1E8Matrix3DIiENSt3__16vectorIS0_IfENS2_9allocatorIS4_EEEES7_, symObjAddr: 0x1794, symBinAddr: 0x1000293A0, symSize: 0x44 }
  - { offset: 0x84193, size: 0x8, addend: 0x0, symName: __ZN26Int4LlamaForCausalLM_inputaSEOS_, symObjAddr: 0x17D8, symBinAddr: 0x1000293E4, symSize: 0x74 }
  - { offset: 0x841C4, size: 0x8, addend: 0x0, symName: __ZN26Int4LlamaForCausalLM_inputD1Ev, symObjAddr: 0x184C, symBinAddr: 0x100029458, symSize: 0x2C }
  - { offset: 0x841F0, size: 0x8, addend: 0x0, symName: __ZNSt3__16vectorI8Matrix3DIfENS_9allocatorIS2_EEED1B8ne180100Ev, symObjAddr: 0x1878, symBinAddr: 0x100029484, symSize: 0x2C }
